ffffff8000a2f954 D .constructors_used
ffffff8000a2f95c D .destructors_used
ffffff800074bb90 T _AddFileExtent
ffffff8000744f70 T _AllocateNode
ffffff80002e3980 T _Assert
ffffff8000742490 T _BTClosePath
ffffff80007449d0 T _BTDeleteRecord
ffffff8000744be0 T _BTFlushPath
ffffff8000744b70 T _BTGetInformation
ffffff8000744d20 T _BTGetLastSync
ffffff8000744d80 T _BTGetUserData
ffffff8000743b60 T _BTInsertRecord
ffffff8000742840 T _BTInvalidateHint
ffffff8000742860 T _BTIterateRecord
ffffff8000743260 T _BTIterateRecords
ffffff80007420b0 T _BTOpenPath
ffffff8000744c10 T _BTReloadData
ffffff8000744090 T _BTReplaceRecord
ffffff80007478f0 T _BTScanInitialize
ffffff8000747640 T _BTScanNextRecord
ffffff80007479c0 T _BTScanTerminate
ffffff80007424e0 T _BTSearchRecord
ffffff8000744d50 T _BTSetLastSync
ffffff8000744e50 T _BTSetUserData
ffffff80007445c0 T _BTUpdateRecord
ffffff8000745bc0 T _BTZeroUnusedNodes
ffffff800072a4f0 T _BestBlockSizeFit
ffffff800074f2f0 T _BlockAllocate
ffffff80007527d0 T _BlockDeallocate
ffffff80007536b0 T _BlockMarkAllocated
ffffff80007536c0 T _BlockMarkFree
ffffff80007536d0 T _BlockMarkFreeUnused
ffffff8000101000 S _BootPDPT
ffffff8000100000 S _BootPML4
ffffff8000102000 S _BootPTD
ffffff80007497c0 T _BuildCatalogKey
ffffff80007498c0 T _BuildCatalogKeyUTF8
ffffff80007b3dc0 T _CURSIG
ffffff8000745fd0 T _CalcKeyRecordSize
ffffff8000745b80 T _CalcMapBits
ffffff80003b47a0 T _CalculateCRC
ffffff8000746910 T _CheckInsertParams
ffffff8000746b80 T _ClearNode
ffffff80006fc360 T _CompareCatalogKeys
ffffff80006fc410 T _CompareExtendedCatalogKeys
ffffff8000754a30 T _ConvertUnicodeToUTF8Mangled
ffffff8000749850 T _CopyCatalogName
ffffff8000a99898 S _DADDR1
ffffff8000a998a0 S _DADDR2
ffffff8000a99888 S _DMAP1
ffffff8000a99890 S _DMAP2
ffffff8000911990 T _DTCreateEntryIterator
ffffff8000911d20 T _DTCreatePropertyIterator
ffffff8000911a10 T _DTDisposeEntryIterator
ffffff8000911d70 T _DTDisposePropertyIterator
ffffff8000911a80 T _DTEnterEntry
ffffff8000911490 T _DTEntryIsEqual
ffffff8000911b10 T _DTExitEntry
ffffff80009114a0 T _DTFindEntry
ffffff8000911c90 T _DTGetProperty
ffffff8000911470 T _DTInit
ffffff8000911b70 T _DTIterateEntries
ffffff8000911da0 T _DTIterateProperties
ffffff8000911610 T _DTLookupEntry
ffffff8000911c70 T _DTRestartEntryIteration
ffffff8000911e00 T _DTRestartPropertyIteration
ffffff800073fee0 T _DebugStr
ffffff80003e0ef0 T _Debugger
ffffff80003e0ee0 T _DebuggerWithContext
ffffff8000747340 T _DeleteOffset
ffffff8000747170 T _DeleteRecord
ffffff8000748c10 T _DeleteTree
ffffff80006f1040 T _DerivePermissionSummary
ffffff800073fec0 T _DisposePtr
ffffff8000a31938 D _EntropyData
ffffff800074a500 T _ExchangeFileIDs
ffffff80007455c0 T _ExtendBTree
ffffff80006f1770 T _ExtendBTreeFile
ffffff800074c320 T _ExtendFileC
ffffff80003b5fd0 T _FIPS_SHA1Final
ffffff80003b4df0 T _FIPS_SHA1Init
ffffff80003b4e30 T _FIPS_SHA1Update
ffffff80007547f0 T _FastRelString
ffffff8000754880 T _FastUnicodeCompare
ffffff80007461d0 T _FindIteratorPosition
ffffff8000749a30 T _FlushCatalog
ffffff800074ba40 T _FlushExtentFile
ffffff8000745450 T _FreeNode
ffffff80006f1200 T _GetBTreeBlock
ffffff8000747600 T _GetChildNodeNum
ffffff8000754660 T _GetEmbeddedFileID
ffffff800072c790 T _GetFileInfo
ffffff800072eb90 T _GetLogicalBlockSize
ffffff8000746b30 T _GetNewNode
ffffff8000746ae0 T _GetNode
ffffff8000747590 T _GetNodeDataSize
ffffff8000746e10 T _GetNodeFreeSize
ffffff80007475e0 T _GetOffsetAddress
ffffff8000747510 T _GetRecordByIndex
ffffff80007475c0 T _GetRecordSize
ffffff800073fdb0 T _GetTimeUTC
ffffff800044b560 T _HMAC_SHA1_DES3KD_Final
ffffff800044b3a0 T _HMAC_SHA1_DES3KD_Init
ffffff800044b550 T _HMAC_SHA1_DES3KD_Update
ffffff800074d4c0 T _HeadTruncateFile
ffffff8000883f80 T _IOAlignmentToSize
ffffff80008f9f20 T _IOBSDGetPlatformSerialNumber
ffffff80008f9e40 T _IOBSDGetPlatformUUID
ffffff80008fa170 T _IOBSDIsMediaEjectable
ffffff80008fa010 T _IOBSDIterateMediaWithContent
ffffff80008fa2b0 T _IOBSDMountChange
ffffff80008f8e50 T _IOBSDNameMatching
ffffff80008f9db0 T _IOBSDRegistryEntryForDeviceTree
ffffff80008f9df0 T _IOBSDRegistryEntryGetData
ffffff80008f9dd0 T _IOBSDRegistryEntryRelease
ffffff80008d6e90 T _IOCPURunPlatformActiveActions
ffffff80008d6f00 T _IOCPURunPlatformHaltRestartActions
ffffff80008d6f80 T _IOCPURunPlatformPanicActions
ffffff80008d6e20 T _IOCPURunPlatformQuiesceActions
ffffff80008f8db0 T _IOCatalogueMatchingDriversPresent
ffffff8000883d20 T _IOCopyLogNameForPID
ffffff8000882530 T _IOCreateThread
ffffff8000886c40 T _IODTFreeLoaderInfo
ffffff8000886d70 T _IODTGetDefault
ffffff8000886cb0 T _IODTGetLoaderInfo
ffffff80003a04f0 T _IODefaultCacheBits
ffffff80008839f0 T _IODelay
ffffff8000882560 T _IOExitThread
ffffff80008f9170 T _IOFindBSDRoot
ffffff8000883c70 T _IOFindNameForValue
ffffff8000883cc0 T _IOFindValueForName
ffffff8000883900 T _IOFlushProcessorCache
ffffff80008825e0 T _IOFree
ffffff80008827f0 T _IOFreeAligned
ffffff8000882c70 T _IOFreeContiguous
ffffff8000883540 T _IOFreePageable
ffffff80009113a0 T _IOGetBootKeyStoreData
ffffff80003a07f0 T _IOGetLastPageNumber
ffffff80003a08b0 T _IOGetTime
ffffff800087e6e0 T _IOHibernateIOKitSleep
ffffff80008820e0 T _IOHibernateSetWakeCapabilities
ffffff800087e740 T _IOHibernateSystemHasSlept
ffffff800087ede0 T _IOHibernateSystemInit
ffffff800087ec70 T _IOHibernateSystemPostWake
ffffff8000882110 T _IOHibernateSystemRestart
ffffff800087ce10 T _IOHibernateSystemSleep
ffffff800087ec00 T _IOHibernateSystemWake
ffffff800087ed50 T _IOHibernateWasScreenLocked
ffffff8000882e00 T _IOIteratePageableMaps
ffffff8000882910 T _IOKernelAllocateWithPhysicalRestrict
ffffff8000882890 T _IOKernelFreePhysical
ffffff80008f8cf0 T _IOKitBSDInit
ffffff8000884f60 T _IOKitInitializeTime
ffffff8000882330 T _IOLibInit
ffffff8000884000 T _IOLockAlloc
ffffff8000884050 T _IOLockFree
ffffff8000884070 T _IOLockGetMachLock
ffffff8000abde90 S _IOLockGroup
ffffff8000883fe0 T _IOLockInitWithState
ffffff80008840e0 T _IOLockSleep
ffffff8000884110 T _IOLockSleepDeadline
ffffff80008840a0 T _IOLockSleepDeadline_darwin14
ffffff8000884080 T _IOLockSleep_darwin14
ffffff8000884140 T _IOLockWakeup
ffffff80008840c0 T _IOLockWakeup_darwin14
ffffff8000883a50 T _IOLog
ffffff8000883bc0 T _IOLogv
ffffff8000882580 T _IOMalloc
ffffff8000882670 T _IOMallocAligned
ffffff8000882b10 T _IOMallocContiguous
ffffff8000882ff0 T _IOMallocPageable
ffffff80003a0540 T _IOMapPages
ffffff80008c4180 T _IOMappedRead16
ffffff80008c4240 T _IOMappedRead32
ffffff80008c42f0 T _IOMappedRead64
ffffff80008c40c0 T _IOMappedRead8
ffffff80008c4480 T _IOMappedWrite16
ffffff80008c4550 T _IOMappedWrite32
ffffff80008c4620 T _IOMappedWrite64
ffffff80008c43b0 T _IOMappedWrite8
ffffff80008c3f20 T _IOMapperIOVMAlloc
ffffff80008c4000 T _IOMapperIOVMFree
ffffff80008c4040 T _IOMapperInsertPage
ffffff80008cb060 T _IOMemoryDescriptorMapAlloc
ffffff8000882640 T _IOMemoryTag
ffffff8000888260 T _IONDRVLibrariesInitialize
ffffff80008f8ef0 T _IONetworkNamePrefixMatching
ffffff80008f9050 T _IOOFPathMatching
ffffff800087e560 T _IOOpenDebugDataFile
ffffff8000882f90 T _IOPageableMapForAddress
ffffff8000883a20 T _IOPause
ffffff80008b56c0 T _IOPolledFilePollersClose
ffffff80008b5410 T _IOPolledFilePollersOpen
ffffff80008b6670 T _IOPolledFileRead
ffffff80008b6220 T _IOPolledFileSeek
ffffff80008b6280 T _IOPolledFileWrite
ffffff80008ea970 T _IOPrintPlane
ffffff80003a06c0 T _IOProtectCacheMode
ffffff8000884470 T _IORWLockAlloc
ffffff8000884490 T _IORWLockFree
ffffff80008844b0 T _IORWLockGetMachLock
ffffff80008f9d10 T _IORamDiskBSDRoot
ffffff8000885310 T _IORecordProgressBackbuffer
ffffff8000884200 T _IORecursiveLockAlloc
ffffff8000884160 T _IORecursiveLockAllocWithLockGroup
ffffff80008842a0 T _IORecursiveLockFree
ffffff80008842d0 T _IORecursiveLockGetMachLock
ffffff8000884390 T _IORecursiveLockHaveLock
ffffff80008842e0 T _IORecursiveLockLock
ffffff80008843b0 T _IORecursiveLockSleep
ffffff8000884400 T _IORecursiveLockSleepDeadline
ffffff8000884320 T _IORecursiveLockTryLock
ffffff8000884370 T _IORecursiveLockUnlock
ffffff8000884450 T _IORecursiveLockWakeup
ffffff80008852c0 T _IORegistrySetOSBuildVersion
ffffff80008f9da0 T _IOSecureBSDRoot
ffffff80008f8d10 T _IOServicePublishResource
ffffff80008f8d50 T _IOServiceWaitForMatchingResource
ffffff8000911380 T _IOSetKeyStoreData
ffffff8000883810 T _IOSetProcessorCacheMode
ffffff80008844c0 T _IOSimpleLockAlloc
ffffff8000884520 T _IOSimpleLockFree
ffffff8000884540 T _IOSimpleLockGetMachLock
ffffff80008844e0 T _IOSimpleLockInit
ffffff8000883dc0 T _IOSizeToAlignment
ffffff8000883980 T _IOSleep
ffffff80008839b0 T _IOSleepWithLeeway
ffffff80002ad384 T _IOSpinUnlock
ffffff800090ae00 T _IOSystemShutdownNotification
ffffff80008fa2c0 T _IOTaskHasEntitlement
ffffff80002ad38c T _IOTrySpinLock
ffffff80008f8ed0 T _IOUUIDMatching
ffffff80003a0690 T _IOUnmapPages
ffffff8000abde88 S _IOZeroTvalspec
ffffff80007a6180 T _IS_64BIT_PROCESS
ffffff8000a9aac8 S _IdlePDPT
ffffff8000a9aa90 S _IdlePML4
ffffff8000a9aac0 S _IdlePTD
ffffff8000746f30 T _InsertKeyRecord
ffffff8000746e40 T _InsertOffset
ffffff8000746c70 T _InsertRecord
ffffff8000747cc0 T _InsertTree
ffffff80007468f0 T _IsItAHint
ffffff8000a870c8 S _KERNEL_AUDIT_TOKEN
ffffff8000a30f30 D _KERNEL_SECURITY_TOKEN
ffffff8000a9aab8 S _KPTphys
ffffff80002bb1b0 T _KUNCExecute
ffffff80002bb0f0 T _KUNCGetNotificationID
ffffff80002bb220 T _KUNCUserNotificationCancel
ffffff80002bb460 T _KUNCUserNotificationDisplayAlert
ffffff80002bb520 T _KUNCUserNotificationDisplayFromBundle
ffffff80002bb3c0 T _KUNCUserNotificationDisplayNotice
ffffff8000a9ad30 S _LastDebuggerEntryAllowance
ffffff8000a9ad08 S _LcksOpts
ffffff800028fa70 T _Load_context
ffffff800073fde0 T _LocalToUTC
ffffff8000749410 T _LocateCatalogNodeByKey
ffffff80007495d0 T _LocateCatalogRecord
ffffff8000a8a980 S _LockCompatGroup
ffffff8000a8aa90 S _LockDefaultGroupAttr
ffffff8000a8aa94 S _LockDefaultLckAttr
ffffff8000a9ad1c S _LockTimeOut
ffffff8000a9ad20 S _LockTimeOutTSC
ffffff8000abcfa4 S _MCFail
ffffff80008712e0 T _MD5Final
ffffff80008710f0 T _MD5Init
ffffff80008711b0 T _MD5Update
ffffff800044b730 T _MD5_DESCBC_Final
ffffff800044b700 T _MD5_DESCBC_Init
ffffff800044b720 T _MD5_DESCBC_Update
ffffff8000abcfb4 S _MDFail
ffffff8000abcfac S _MPFail
ffffff800072a570 T _MacToVFSError
ffffff800074b2e0 T _MapFileBlockC
ffffff80007535b0 T _MetaZoneFreeBlocks
ffffff80006f1380 T _ModifyBlockStart
ffffff8000749a80 T _MoveData
ffffff8000a9ad28 S _MutexSpin
ffffff8000a30e88 D _NDR_record
ffffff8000a9b3a8 S _NMIPI_acks
ffffff8000a9b3b0 S _NMI_count
ffffff80003e6890 T _NMI_cpus
ffffff800073fea0 T _NewPtr
ffffff800073fe60 T _NewPtrSysClear
ffffff800074d9f0 T _NodesAreContiguous
ffffff8000837c90 T _OSAddAtomic
ffffff8000837c80 T _OSAddAtomic16
ffffff8000837ca0 T _OSAddAtomic64
ffffff8000837c70 T _OSAddAtomic8
ffffff8000837cb0 T _OSAddAtomicLong
ffffff8000838200 T _OSBacktrace
ffffff8000837ce0 T _OSBitAndAtomic
ffffff8000837e70 T _OSBitAndAtomic16
ffffff8000837df0 T _OSBitAndAtomic8
ffffff8000837d00 T _OSBitOrAtomic
ffffff8000837e90 T _OSBitOrAtomic16
ffffff8000837e10 T _OSBitOrAtomic8
ffffff8000837d20 T _OSBitXorAtomic
ffffff8000837eb0 T _OSBitXorAtomic16
ffffff8000837e30 T _OSBitXorAtomic8
ffffff8000837c20 T _OSCompareAndSwap
ffffff8000837c00 T _OSCompareAndSwap16
ffffff8000837c30 T _OSCompareAndSwap64
ffffff8000837be0 T _OSCompareAndSwap8
ffffff8000837c50 T _OSCompareAndSwapPtr
ffffff8000837cd0 T _OSDecrementAtomic
ffffff8000837e60 T _OSDecrementAtomic16
ffffff8000837de0 T _OSDecrementAtomic8
ffffff80002edea0 T _OSFree
ffffff8000837cc0 T _OSIncrementAtomic
ffffff8000837e50 T _OSIncrementAtomic16
ffffff8000837dd0 T _OSIncrementAtomic8
ffffff8000883930 T _OSKernelStackRemaining
ffffff8000861c20 T _OSKextCancelRequest
ffffff8000855690 T _OSKextFreeSite
ffffff80008555f0 T _OSKextGetAllocationSiteForCaller
ffffff8000855680 T _OSKextGetKmodIDForSite
ffffff8000861a60 T _OSKextGetLoadTagForIdentifier
ffffff80008541a0 T _OSKextGrabPgoData
ffffff8000861a10 T _OSKextLoadKextWithIdentifier
ffffff8000862370 T _OSKextLoadedKextSummariesUpdated
ffffff800084b240 T _OSKextLog
ffffff8000862720 T _OSKextParseVersionString
ffffff8000861fd0 T _OSKextRegisterKextsWithDTrace
ffffff8000861b60 T _OSKextReleaseKextWithLoadTag
ffffff8000861fc0 T _OSKextRemoveKextBootstrap
ffffff8000861c10 T _OSKextRequestResource
ffffff8000861ac0 T _OSKextRetainKextWithLoadTag
ffffff80008530a0 T _OSKextSystemSleepOrWake
ffffff8000861c00 T _OSKextUnloadKextWithLoadTag
ffffff800084b2a0 T _OSKextVLog
ffffff8000862e20 T _OSKextVersionGetString
ffffff80002edc50 T _OSMalloc
ffffff80002ed830 T _OSMalloc_Tagalloc
ffffff80002edb20 T _OSMalloc_Tagfree
ffffff80002ed990 T _OSMalloc_Tagref
ffffff80002ed9e0 T _OSMalloc_Tagrele
ffffff80002ed300 T _OSMalloc_init
ffffff80002eddd0 T _OSMalloc_noblock
ffffff80002edd00 T _OSMalloc_nowait
ffffff8000a8a858 S _OSMalloc_tag_lck_grp
ffffff8000a8a860 S _OSMalloc_tag_lock
ffffff8000838930 T _OSPrintBacktrace
ffffff80008eab90 T _OSPrintMemory
ffffff8000838500 T _OSReportWithBacktrace
ffffff8000857a70 T _OSRuntimeFinalizeCPP
ffffff8000857bb0 T _OSRuntimeInitializeCPP
ffffff8000857970 T _OSRuntimeUnloadCPP
ffffff8000857960 T _OSRuntimeUnloadCPPForSegment
ffffff8000857680 T _OSRuntimeUnloadCPPForSegmentInKmod
ffffff80002ad38c T _OSSpinLockTry
ffffff80002ad384 T _OSSpinLockUnlock
ffffff8000837d90 T _OSTestAndClear
ffffff8000837d40 T _OSTestAndSet
ffffff8000abde60 S _OSUnserializechar
ffffff8000abde68 S _OSUnserializelval
ffffff8000abde70 S _OSUnserializenerrs
ffffff8000858120 T _OSlibkernInit
ffffff80008d52b0 T _PEGetGMTTimeOfDay
ffffff80008d4b30 T _PEGetMachineName
ffffff80008d4b60 T _PEGetModelName
ffffff80008d4b90 T _PEGetPlatformEpoch
ffffff80008d52f0 T _PEGetUTCTimeOfDay
ffffff80008d4bb0 T _PEHaltRestart
ffffff80008d4de0 T _PEReadNVRAMProperty
ffffff80008d51c0 T _PERemoveNVRAMProperty
ffffff80008d4db0 T _PESavePanicInfo
ffffff80008d5340 T _PESetGMTTimeOfDay
ffffff80008d5370 T _PESetUTCTimeOfDay
ffffff80008d4f50 T _PEWriteNVRAMBooleanProperty
ffffff80008d5070 T _PEWriteNVRAMProperty
ffffff80009137d0 T _PE_boot_args
ffffff80009136c0 T _PE_call_timebase_callback
ffffff80008d7640 T _PE_cpu_halt
ffffff80008d78a0 T _PE_cpu_machine_init
ffffff80008d7910 T _PE_cpu_machine_quiesce
ffffff80008d7690 T _PE_cpu_signal
ffffff80008d77f0 T _PE_cpu_signal_cancel
ffffff80008d7740 T _PE_cpu_signal_deferred
ffffff80008d75c0 T _PE_cpu_start
ffffff8000913510 T _PE_create_console
ffffff8000913560 T _PE_current_console
ffffff8000913580 T _PE_display_icon
ffffff8000912d70 T _PE_enter_debugger
ffffff80009124b0 T _PE_get_default
ffffff8000913610 T _PE_get_hotkey
ffffff8000912dc0 T _PE_get_random_seed
ffffff8000abea08 S _PE_halt_restart
ffffff8000913780 T _PE_i_can_has_debugger
ffffff8000912d90 T _PE_i_can_has_kernel_configuration
ffffff80009124a0 T _PE_imgsrc_mount_supported
ffffff8000913b10 T _PE_incoming_interrupt
ffffff8000912ff0 T _PE_init_iokit
ffffff80009138c0 T _PE_init_kprintf
ffffff8000913350 T _PE_init_platform
ffffff8000912da0 T _PE_init_printf
ffffff8000912ec0 T _PE_initialize_console
ffffff8000913b40 T _PE_install_interrupt_handler
ffffff8000abf230 S _PE_interrupt_handler
ffffff8000abf228 S _PE_kputc
ffffff8000911e20 T _PE_parse_boot_argn
ffffff8000a81010 D _PE_poll_input
ffffff8000abf0a0 S _PE_putc
ffffff8000913760 T _PE_reboot_on_panic
ffffff8000913620 T _PE_register_timebase_callback
ffffff8000abf0a8 S _PE_state
ffffff80003e6b10 T _PM_interrupt_register
ffffff80004b7ab0 T _PRIV_POLICY_CHOICE
ffffff80004b7af0 T _PRIV_POLICY_ONLY
ffffff8000ab86c8 S _RAW_file_offset
ffffff8000ab86d0 S _RAW_file_written
ffffff80004c03a0 T _RandomULong
ffffff80006f1440 T _ReleaseBTreeBlock
ffffff8000746ba0 T _ReleaseNode
ffffff800074b190 T _ReplaceBTreeRecord
ffffff8000753ca0 T _ResetVCBFreeExtCache
ffffff8000300310 T _SFI_APP_NAP_THREAD_IS_WAITING
ffffff8000a81898 S _SFI_APP_NAP_registration
ffffff8000300300 T _SFI_DARWIN_BG_THREAD_IS_WAITING
ffffff8000a818b8 S _SFI_DARWIN_BG_registration
ffffff8000300350 T _SFI_DEFAULT_FOCAL_THREAD_IS_WAITING
ffffff8000a81818 S _SFI_DEFAULT_FOCAL_registration
ffffff8000300360 T _SFI_DEFAULT_NONFOCAL_THREAD_IS_WAITING
ffffff8000a817f8 S _SFI_DEFAULT_NONFOCAL_registration
ffffff80003003d0 T _SFI_KERNEL_THREAD_IS_WAITING
ffffff8000a81718 S _SFI_KERNEL_registration
ffffff8000300370 T _SFI_LEGACY_FOCAL_THREAD_IS_WAITING
ffffff8000a817d8 S _SFI_LEGACY_FOCAL_registration
ffffff8000300380 T _SFI_LEGACY_NONFOCAL_THREAD_IS_WAITING
ffffff8000a817b8 S _SFI_LEGACY_NONFOCAL_registration
ffffff8000300200 T _SFI_MAINTENANCE_THREAD_IS_WAITING
ffffff8000a816d8 S _SFI_MAINTENANCE_registration
ffffff8000300320 T _SFI_MANAGED_FOCAL_THREAD_IS_WAITING
ffffff8000a81878 S _SFI_MANAGED_FOCAL_registration
ffffff8000300330 T _SFI_MANAGED_NONFOCAL_THREAD_IS_WAITING
ffffff8000a81858 S _SFI_MANAGED_NONFOCAL_registration
ffffff80003003e0 T _SFI_OPTED_OUT_THREAD_IS_WAITING
ffffff8000a816f8 S _SFI_OPTED_OUT_registration
ffffff8000300390 T _SFI_USER_INITIATED_FOCAL_THREAD_IS_WAITING
ffffff8000a81798 S _SFI_USER_INITIATED_FOCAL_registration
ffffff80003003a0 T _SFI_USER_INITIATED_NONFOCAL_THREAD_IS_WAITING
ffffff8000a81778 S _SFI_USER_INITIATED_NONFOCAL_registration
ffffff80003003b0 T _SFI_USER_INTERACTIVE_FOCAL_THREAD_IS_WAITING
ffffff8000a81758 S _SFI_USER_INTERACTIVE_FOCAL_registration
ffffff80003003c0 T _SFI_USER_INTERACTIVE_NONFOCAL_THREAD_IS_WAITING
ffffff8000a81738 S _SFI_USER_INTERACTIVE_NONFOCAL_registration
ffffff8000300340 T _SFI_UTILITY_THREAD_IS_WAITING
ffffff8000a81838 S _SFI_UTILITY_registration
ffffff8000870fa0 T _SHA1Final
ffffff8000871080 T _SHA1Final_r
ffffff8000870dd0 T _SHA1Init
ffffff8000870e80 T _SHA1Update
ffffff8000871070 T _SHA1UpdateUsePhysicalAddress
ffffff8000870c50 T _SHA256_Final
ffffff8000870bc0 T _SHA256_Init
ffffff8000870c20 T _SHA256_Update
ffffff8000870d00 T _SHA384_Final
ffffff8000870c70 T _SHA384_Init
ffffff8000870cd0 T _SHA384_Update
ffffff8000870db0 T _SHA512_Final
ffffff8000870d20 T _SHA512_Init
ffffff8000870d80 T _SHA512_Update
ffffff80004de010 T _SPECHASH_LOCK
ffffff80004de030 T _SPECHASH_UNLOCK
ffffff80003a9cd0 T _STRDUP
ffffff800074b440 T _SearchExtentFile
ffffff8000747450 T _SearchNode
ffffff8000747a10 T _SearchTree
ffffff80006f11c0 T _SetBTreeBlockSize
ffffff800028fb30 T _Shutdown_context
ffffff80008850d0 T _StartIOKit
ffffff800028faa0 T _Switch_context
ffffff8000306b60 T _THIS_PROCESS_IS_CAUSING_TOO_MANY_WAKEUPS__SENDING_EXC_RESOURCE
ffffff800030fcc0 T _THIS_THREAD_IS_CONSUMING_TOO_MUCH_CPU__SENDING_EXC_RESOURCE
ffffff8000a9ad24 S _TLBTimeOut
ffffff8000a50130 D _TRAP_TYPES
ffffff8000a50260 D _TSC_sync_margin
ffffff800028fb20 T _Thread_continue
ffffff8000746be0 T _TrashNode
ffffff800074ce50 T _TruncateFileC
ffffff8000746980 T _TrySimpleReplace
ffffff80007d9050 T _UBCINFOEXISTS
ffffff80002baf90 T _UNDAlertCompletedWithResult_rpc
ffffff80002ba570 T _UNDCancelNotification_rpc
ffffff80002b9ff0 T _UNDDisplayAlertFromBundle_rpc
ffffff80002ba900 T _UNDDisplayAlertSimple_rpc
ffffff80002ba280 T _UNDDisplayCustomFromBundle_rpc
ffffff80002b9d20 T _UNDDisplayNoticeFromBundle_rpc
ffffff80002ba5c0 T _UNDDisplayNoticeSimple_rpc
ffffff80002b9bd0 T _UNDExecute_rpc
ffffff80002bb090 T _UNDNotificationCreated_rpc
ffffff80002baee0 T _UNDReply_deallocate
ffffff80002bae60 T _UNDReply_server
ffffff80002bad50 T _UNDReply_server_routine
ffffff8000a013b0 S _UNDReply_subsystem
ffffff800073fe00 T _UTCToLocal
ffffff80007549d0 T _UnicodeBinaryCompare
ffffff8000749890 T _UpdateCatalogName
ffffff80007460a0 T _UpdateHeader
ffffff8000746c20 T _UpdateNode
ffffff8000512950 T _VFS_FHTOVP
ffffff8000512650 T _VFS_GETATTR
ffffff8000512330 T _VFS_MOUNT
ffffff8000512620 T _VFS_QUOTACTL
ffffff80005124c0 T _VFS_ROOT
ffffff8000512710 T _VFS_SETATTR
ffffff8000512460 T _VFS_START
ffffff80005127d0 T _VFS_SYNC
ffffff8000512490 T _VFS_UNMOUNT
ffffff8000512890 T _VFS_VGET
ffffff8000512a10 T _VFS_VPTOFH
ffffff8000382010 T _VM_PRESSURE_CRITICAL_TO_WARNING
ffffff8000381f00 T _VM_PRESSURE_NORMAL_TO_WARNING
ffffff8000381e60 T _VM_PRESSURE_WARNING_TO_CRITICAL
ffffff8000381f80 T _VM_PRESSURE_WARNING_TO_NORMAL
ffffff8000516710 T _VNOP_ACCESS
ffffff8000519010 T _VNOP_ADVLOCK
ffffff80005190c0 T _VNOP_ALLOCATE
ffffff8000519690 T _VNOP_BLKTOOFF
ffffff8000519770 T _VNOP_BLOCKMAP
ffffff8000519930 T _VNOP_BWRITE
ffffff8000516610 T _VNOP_CLOSE
ffffff80005184f0 T _VNOP_COMPOUND_MKDIR
ffffff8000515c50 T _VNOP_COMPOUND_OPEN
ffffff8000516f10 T _VNOP_COMPOUND_REMOVE
ffffff8000517e00 T _VNOP_COMPOUND_RENAME
ffffff80005187f0 T _VNOP_COMPOUND_RMDIR
ffffff80005193a0 T _VNOP_COPYFILE
ffffff8000516340 T _VNOP_CREATE
ffffff8000516c60 T _VNOP_EXCHANGE
ffffff8000516ea0 T _VNOP_FSYNC
ffffff8000514e00 T _VNOP_GETATTR
ffffff8000518d20 T _VNOP_GETATTRLISTBULK
ffffff8000519b60 T _VNOP_GETNAMEDSTREAM
ffffff8000519420 T _VNOP_GETXATTR
ffffff8000518e90 T _VNOP_INACTIVE
ffffff80005169b0 T _VNOP_IOCTL
ffffff80005199a0 T _VNOP_KQFILT_ADD
ffffff8000519a10 T _VNOP_KQFILT_REMOVE
ffffff8000517120 T _VNOP_LINK
ffffff8000519610 T _VNOP_LISTXATTR
ffffff8000515bd0 T _VNOP_LOOKUP
ffffff8000519be0 T _VNOP_MAKENAMEDSTREAM
ffffff8000518650 T _VNOP_MKDIR
ffffff8000516450 T _VNOP_MKNOD
ffffff8000516dc0 T _VNOP_MMAP
ffffff8000516e30 T _VNOP_MNOMAP
ffffff8000519a80 T _VNOP_MONITOR
ffffff8000519700 T _VNOP_OFFTOBLK
ffffff8000516510 T _VNOP_OPEN
ffffff8000519170 T _VNOP_PAGEIN
ffffff80005191f0 T _VNOP_PAGEOUT
ffffff8000518fa0 T _VNOP_PATHCONF
ffffff8000516810 T _VNOP_READ
ffffff8000518bb0 T _VNOP_READDIR
ffffff8000518c60 T _VNOP_READDIRATTR
ffffff8000518df0 T _VNOP_READLINK
ffffff8000518f30 T _VNOP_RECLAIM
ffffff8000516200 T _VNOP_REMOVE
ffffff8000519c60 T _VNOP_REMOVENAMEDSTREAM
ffffff8000519560 T _VNOP_REMOVEXATTR
ffffff8000518160 T _VNOP_RENAME
ffffff8000516d50 T _VNOP_REVOKE
ffffff8000518980 T _VNOP_RMDIR
ffffff80005192e0 T _VNOP_SEARCHFS
ffffff8000516b50 T _VNOP_SELECT
ffffff8000514fd0 T _VNOP_SETATTR
ffffff8000519af0 T _VNOP_SETLABEL
ffffff80005194a0 T _VNOP_SETXATTR
ffffff80005198c0 T _VNOP_STRATEGY
ffffff8000518ac0 T _VNOP_SYMLINK
ffffff8000516440 T _VNOP_WHITEOUT
ffffff80005168c0 T _VNOP_WRITE
ffffff8000745ff0 T _VerifyHeader
ffffff800028e2b0 T _WKdm_compress_new
ffffff800010e160 S _WKdm_decompress_new
ffffff80007a25c0 T __FREE
ffffff80007a2760 T __FREE_ZONE
ffffff80007a2680 T __MALLOC_ZONE_external
ffffff80007a24d0 T __MALLOC_external
ffffff8000a50010 D __MachineStateCount
ffffff800085e600 T __Z13OSUnserializePKcPP8OSString
ffffff800084d640 T __Z13kern_allocatemP19kxld_allocate_flagsPv
ffffff80008d7000 T __Z15IOCPUInitializev
ffffff80008eadf0 T __Z15IOTrackingDebugjjPKcmmPP8OSObject
ffffff80008d7a10 T __Z16IOCPUSleepKernelv
ffffff8000888090 T __Z16IODTFindSlotNameP15IORegistryEntryj
ffffff8000887490 T __Z16IODTSetResolvingP15IORegistryEntryPFijPjS1_EPFvS0_PhS4_S4_E
ffffff80008b5830 T __Z16IOPolledFileOpenPKcyyPvmPP18IOPolledFileIOVarsPP6OSDataPhm
ffffff8000860780 T __Z16OSUnserializeXMLPKcPP8OSString
ffffff8000860900 T __Z16OSUnserializeXMLPKcmPP8OSString
ffffff80008874f0 T __Z17IODTGetCellCountsP15IORegistryEntryPjS1_
ffffff8000886fd0 T __Z17IODTMapInterruptsP15IORegistryEntry
ffffff8000885390 T __Z17IODeviceTreeAllocPv
ffffff80008b6040 T __Z17IOPolledFileClosePP18IOPolledFileIOVarsxPvmxx
ffffff8000897020 T __Z17IOServiceOrderingPK15OSMetaClassBaseS1_Pv
ffffff800084d780 T __Z17kxld_log_callback18kxld_log_subsystem14kxld_log_levelPKcP13__va_list_tagPv
ffffff8000886fe0 T __Z18IODTCompareNubNamePK15IORegistryEntryP8OSStringPS3_
ffffff800085d450 T __Z18OSUnserializeparsev
ffffff8000861080 T __Z19OSUnserializeBinaryPKcmPP8OSString
ffffff80008d4550 T __Z19printDictionaryKeysP12OSDictionaryPc
ffffff8000887e90 T __Z20IODTMakeNVDescriptorP15IORegistryEntryP17IONVRAMDescriptor
ffffff80008872c0 T __Z20IODTMatchNubWithKeysP15IORegistryEntryPKc
ffffff8000887cd0 T __Z21IODTResolveAddressingP15IORegistryEntryPKcP14IODeviceMemory
ffffff800085e6f0 T __Z21OSUnserializeXMLparsePv
ffffff8000887600 T __Z22IODTResolveAddressCellP15IORegistryEntryPjPyS2_
ffffff8000852840 T __Z22_OSKextConsiderUnloadsPvS_
ffffff8000887310 T __Z23IODTFindMatchingEntriesP15IORegistryEntryjPKc
ffffff8000886e40 T __Z23IODTGetInterruptOptionsP15IORegistryEntryiPj
ffffff80008b5820 T __Z23IOPolledFileGetIOBufferP18IOPolledFileIOVars
ffffff80008f2480 T __Z23interruptAccountingInitv
ffffff80008b60d0 T __Z24IOPolledFilePollersSetupP18IOPolledFileIOVarsj
ffffff8000886b80 T __Z27IODTInterruptControllerNameP15IORegistryEntry
ffffff80008d7370 T __Z30IORemoveServicePlatformActionsP9IOService
ffffff80008d7120 T __Z31IOInstallServicePlatformActionsP9IOService
ffffff80008f24e0 T __Z32interruptAccountingDataAddToListP25IOInterruptAccountingData
ffffff80008f2540 T __Z37interruptAccountingDataRemoveFromListP25IOInterruptAccountingData
ffffff80008f25b0 T __Z37interruptAccountingDataUpdateChannelsP25IOInterruptAccountingDataP16IOSimpleReporter
ffffff80008f2640 T __Z38interruptAccountingDataInheritChannelsP25IOInterruptAccountingDataP16IOSimpleReporter
ffffff8000abeb38 S __ZN10IOMachPort10gMetaClassE
ffffff8000a22500 S __ZN10IOMachPort10superClassE
ffffff80008e2160 T __ZN10IOMachPort11dictForTypeEj
ffffff80008deb60 T __ZN10IOMachPort13portForObjectEP8OSObjectj
ffffff80008e2490 T __ZN10IOMachPort14setHoldDestroyEP8OSObjectj
ffffff80008e2680 T __ZN10IOMachPort20makeSendRightForTaskEP4taskP8OSObjectj
ffffff80008e23e0 T __ZN10IOMachPort20releasePortForObjectEP8OSObjectj
ffffff80008e21a0 T __ZN10IOMachPort22noMoreSendersForObjectEP8OSObjectjPj
ffffff80008ddc80 T __ZN10IOMachPort4freeEv
ffffff80008e2010 T __ZN10IOMachPort9MetaClassC1Ev
ffffff80008e20a0 T __ZN10IOMachPort9MetaClassC2Ev
ffffff8000a224f8 S __ZN10IOMachPort9metaClassE
ffffff80008e2070 T __ZN10IOMachPortC1EPK11OSMetaClass
ffffff80008e20e0 T __ZN10IOMachPortC1Ev
ffffff80008e2050 T __ZN10IOMachPortC2EPK11OSMetaClass
ffffff80008e2120 T __ZN10IOMachPortC2Ev
ffffff80008ddc30 T __ZN10IOMachPortD0Ev
ffffff80008ddc20 T __ZN10IOMachPortD1Ev
ffffff80008e2090 T __ZN10IOMachPortD2Ev
ffffff8000abe218 S __ZN10IONotifier10gMetaClassE
ffffff8000a129f0 S __ZN10IONotifier10superClassE
ffffff800089b770 T __ZN10IONotifier9MetaClassC1Ev
ffffff800089b7b0 T __ZN10IONotifier9MetaClassC2Ev
ffffff8000a129f8 S __ZN10IONotifier9metaClassE
ffffff800089afc0 T __ZN10IONotifierC2EPK11OSMetaClass
ffffff800089a0a0 T __ZN10IONotifierD0Ev
ffffff800089a090 T __ZN10IONotifierD1Ev
ffffff800089b010 T __ZN10IONotifierD2Ev
ffffff80008f41b0 T __ZN10IOReporter10addChannelEyPKc
ffffff8000abed70 S __ZN10IOReporter10gMetaClassE
ffffff80008f3490 T __ZN10IOReporter10legendWithEP7OSArrayS1_19IOReportChannelTypey
ffffff8000a24ce8 S __ZN10IOReporter10superClassE
ffffff80008f4410 T __ZN10IOReporter12createLegendEv
ffffff80008f4360 T __ZN10IOReporter12lockReporterEv
ffffff80008f40f0 T __ZN10IOReporter12updateReportEP19IOReportChannelListjPvS2_
ffffff80008f33f0 T __ZN10IOReporter14copyChannelIDsEv
ffffff80008f43a0 T __ZN10IOReporter14unlockReporterEv
ffffff80008f3f00 T __ZN10IOReporter15configureReportEP19IOReportChannelListjPvS2_
ffffff80008f32b0 T __ZN10IOReporter15getChannelIndexEyPi
ffffff80008f3210 T __ZN10IOReporter16getElementValuesEi
ffffff80008f3170 T __ZN10IOReporter16setElementValuesEiP21IOReportElementValuesy
ffffff80008f3f70 T __ZN10IOReporter16updateAllReportsEP5OSSetP19IOReportChannelListjPvS4_
ffffff80008f3380 T __ZN10IOReporter17copyElementValuesEiP21IOReportElementValues
ffffff80008f3300 T __ZN10IOReporter17getChannelIndicesEyPiS0_
ffffff80008f2dc0 T __ZN10IOReporter17handleSwapCleanupEi
ffffff80008f29a0 T __ZN10IOReporter17handleSwapPrepareEi
ffffff80008f3110 T __ZN10IOReporter18handleCreateLegendEv
ffffff80008f2fe0 T __ZN10IOReporter18handleUpdateReportEP19IOReportChannelListjPvS2_
ffffff80008f4340 T __ZN10IOReporter18lockReporterConfigEv
ffffff80008f3dd0 T __ZN10IOReporter19configureAllReportsEP5OSSetP19IOReportChannelListjPvS4_
ffffff80008f3160 T __ZN10IOReporter19updateChannelValuesEi
ffffff80008f3710 T __ZN10IOReporter19updateReportChannelEiPiP24IOBufferMemoryDescriptor
ffffff80008f3260 T __ZN10IOReporter20getFirstElementIndexEyPi
ffffff80008f2b90 T __ZN10IOReporter20handleAddChannelSwapEyPK8OSSymbol
ffffff80008f43f0 T __ZN10IOReporter20unlockReporterConfigEv
ffffff80008f2f10 T __ZN10IOReporter21handleConfigureReportEP19IOReportChannelListjPvS2_
ffffff80008f2730 T __ZN10IOReporter4freeEv
ffffff80008f2860 T __ZN10IOReporter4initEP9IOService19IOReportChannelTypey
ffffff80008f3c80 T __ZN10IOReporter9MetaClassC1Ev
ffffff80008f3d10 T __ZN10IOReporter9MetaClassC2Ev
ffffff8000a24ce0 S __ZN10IOReporter9metaClassE
ffffff80008f3ce0 T __ZN10IOReporterC1EPK11OSMetaClass
ffffff80008f3d50 T __ZN10IOReporterC1Ev
ffffff80008f3cc0 T __ZN10IOReporterC2EPK11OSMetaClass
ffffff80008f3d90 T __ZN10IOReporterC2Ev
ffffff80008f26e0 T __ZN10IOReporterD0Ev
ffffff80008f26d0 T __ZN10IOReporterD1Ev
ffffff80008f3d00 T __ZN10IOReporterD2Ev
ffffff8000abe590 S __ZN10IOWorkLoop10gMetaClassE
ffffff8000a16940 S __ZN10IOWorkLoop10superClassE
ffffff80008b7070 T __ZN10IOWorkLoop10threadMainEv
ffffff80008b7740 T __ZN10IOWorkLoop10wakeupGateEPvb
ffffff80008b7610 T __ZN10IOWorkLoop12tryCloseGateEv
ffffff80008b6e00 T __ZN10IOWorkLoop13_maintRequestEPvS0_S0_S0_
ffffff80008b72c0 T __ZN10IOWorkLoop14addEventSourceEP13IOEventSource
ffffff80008b77c0 T __ZN10IOWorkLoop15runEventSourcesEv
ffffff80008b72e0 T __ZN10IOWorkLoop17removeEventSourceEP13IOEventSource
ffffff80008b74d0 T __ZN10IOWorkLoop19signalWorkAvailableEv
ffffff80008b8230 T __ZN10IOWorkLoop19workLoopWithOptionsEj
ffffff80008b7ab0 T __ZN10IOWorkLoop20_RESERVEDIOWorkLoop0Ev
ffffff80008b7ae0 T __ZN10IOWorkLoop20_RESERVEDIOWorkLoop1Ev
ffffff80008b7b10 T __ZN10IOWorkLoop20_RESERVEDIOWorkLoop2Ev
ffffff80008b7b40 T __ZN10IOWorkLoop20_RESERVEDIOWorkLoop3Ev
ffffff80008b7b70 T __ZN10IOWorkLoop20_RESERVEDIOWorkLoop4Ev
ffffff80008b7ba0 T __ZN10IOWorkLoop20_RESERVEDIOWorkLoop5Ev
ffffff80008b7bd0 T __ZN10IOWorkLoop20_RESERVEDIOWorkLoop6Ev
ffffff80008b7c00 T __ZN10IOWorkLoop20_RESERVEDIOWorkLoop7Ev
ffffff80008b82d0 T __ZN10IOWorkLoop23eventSourcePerformsWorkEP13IOEventSource
ffffff80008b6bd0 T __ZN10IOWorkLoop4freeEv
ffffff80008b6a80 T __ZN10IOWorkLoop4initEv
ffffff80008b7550 T __ZN10IOWorkLoop8openGateEv
ffffff80008b81b0 T __ZN10IOWorkLoop8workLoopEv
ffffff80008b8060 T __ZN10IOWorkLoop9MetaClassC1Ev
ffffff80008b80f0 T __ZN10IOWorkLoop9MetaClassC2Ev
ffffff80008b75a0 T __ZN10IOWorkLoop9closeGateEv
ffffff8000a16938 S __ZN10IOWorkLoop9metaClassE
ffffff80008b7760 T __ZN10IOWorkLoop9runActionEPFiP8OSObjectPvS2_S2_S2_ES1_S2_S2_S2_S2_
ffffff80008b7690 T __ZN10IOWorkLoop9sleepGateEPvj
ffffff80008b79f0 T __ZN10IOWorkLoop9sleepGateEPvyj
ffffff80008b80c0 T __ZN10IOWorkLoopC1EPK11OSMetaClass
ffffff80008b8130 T __ZN10IOWorkLoopC1Ev
ffffff80008b80a0 T __ZN10IOWorkLoopC2EPK11OSMetaClass
ffffff80008b8170 T __ZN10IOWorkLoopC2Ev
ffffff80008b6a30 T __ZN10IOWorkLoopD0Ev
ffffff80008b6a20 T __ZN10IOWorkLoopD1Ev
ffffff80008b80e0 T __ZN10IOWorkLoopD2Ev
ffffff8000abdc88 S __ZN10OSIterator10gMetaClassE
ffffff8000a0f4f8 S __ZN10OSIterator10superClassE
ffffff8000841340 T __ZN10OSIterator20_RESERVEDOSIterator0Ev
ffffff8000841370 T __ZN10OSIterator20_RESERVEDOSIterator1Ev
ffffff80008413a0 T __ZN10OSIterator20_RESERVEDOSIterator2Ev
ffffff80008413d0 T __ZN10OSIterator20_RESERVEDOSIterator3Ev
ffffff80008417f0 T __ZN10OSIterator9MetaClassC1Ev
ffffff8000841860 T __ZN10OSIterator9MetaClassC2Ev
ffffff8000a0f4f0 S __ZN10OSIterator9metaClassE
ffffff8000841830 T __ZN10OSIteratorC2EPK11OSMetaClass
ffffff80008412f0 T __ZN10OSIteratorD0Ev
ffffff80008412e0 T __ZN10OSIteratorD1Ev
ffffff8000841850 T __ZN10OSIteratorD2Ev
ffffff80008b0ee0 T __ZN11IOCatalogue10addDriversEP7OSArrayb
ffffff8000abe4c8 S __ZN11IOCatalogue10gMetaClassE
ffffff80008b0870 T __ZN11IOCatalogue10initializeEv
ffffff8000a15690 S __ZN11IOCatalogue10superClassE
ffffff80008b0d70 T __ZN11IOCatalogue11findDriversEP12OSDictionaryPi
ffffff80008b0c60 T __ZN11IOCatalogue11findDriversEP9IOServicePi
ffffff80008b1170 T __ZN11IOCatalogue13removeDriversEP12OSDictionaryb
ffffff80008b1510 T __ZN11IOCatalogue13startMatchingEP12OSDictionary
ffffff80008b1810 T __ZN11IOCatalogue14_removeDriversEP12OSDictionary
ffffff80008b0b10 T __ZN11IOCatalogue14addPersonalityEP12OSDictionary
ffffff80008b14b0 T __ZN11IOCatalogue15moduleHasLoadedEP8OSString
ffffff80008b1690 T __ZN11IOCatalogue15moduleHasLoadedEPKc
ffffff80008b18e0 T __ZN11IOCatalogue16terminateDriversEP12OSDictionary
ffffff80008b1730 T __ZN11IOCatalogue17_terminateDriversEP12OSDictionary
ffffff80008b1a90 T __ZN11IOCatalogue18resetAndAddDriversEP7OSArrayb
ffffff80008b0bf0 T __ZN11IOCatalogue19arrayForPersonalityEP12OSDictionary
ffffff80008b1930 T __ZN11IOCatalogue25terminateDriversForModuleEP8OSStringb
ffffff80008b1a30 T __ZN11IOCatalogue25terminateDriversForModuleEPKcb
ffffff80008b02d0 T __ZN11IOCatalogue4freeEv
ffffff80008b09a0 T __ZN11IOCatalogue4initEP7OSArray
ffffff80008b1a80 T __ZN11IOCatalogue5resetEv
ffffff80008b0720 T __ZN11IOCatalogue9MetaClassC1Ev
ffffff80008b07b0 T __ZN11IOCatalogue9MetaClassC2Ev
ffffff8000a15688 S __ZN11IOCatalogue9metaClassE
ffffff80008b0780 T __ZN11IOCatalogueC1EPK11OSMetaClass
ffffff80008b07f0 T __ZN11IOCatalogueC1Ev
ffffff80008b0760 T __ZN11IOCatalogueC2EPK11OSMetaClass
ffffff80008b0830 T __ZN11IOCatalogueC2Ev
ffffff80008b0260 T __ZN11IOCatalogueD0Ev
ffffff80008b0250 T __ZN11IOCatalogueD1Ev
ffffff80008b07a0 T __ZN11IOCatalogueD2Ev
ffffff8000abeca8 S __ZN11IODataQueue10gMetaClassE
ffffff8000a247e8 S __ZN11IODataQueue10superClassE
ffffff80008eb950 T __ZN11IODataQueue11withEntriesEjj
ffffff80008eb8d0 T __ZN11IODataQueue12withCapacityEj
ffffff80008eb1b0 T __ZN11IODataQueue15initWithEntriesEjj
ffffff80008eb110 T __ZN11IODataQueue16initWithCapacityEj
ffffff80008eb320 T __ZN11IODataQueue19getMemoryDescriptorEv
ffffff80008eb2e0 T __ZN11IODataQueue19setNotificationPortEP8ipc_port
ffffff80008eb0c0 T __ZN11IODataQueue29sendDataAvailableNotificationEv
ffffff80008eb040 T __ZN11IODataQueue4freeEv
ffffff80008eb1f0 T __ZN11IODataQueue7enqueueEPvj
ffffff80008eb780 T __ZN11IODataQueue9MetaClassC1Ev
ffffff80008eb810 T __ZN11IODataQueue9MetaClassC2Ev
ffffff8000a247e0 S __ZN11IODataQueue9metaClassE
ffffff80008eb7e0 T __ZN11IODataQueueC1EPK11OSMetaClass
ffffff80008eb850 T __ZN11IODataQueueC1Ev
ffffff80008eb7c0 T __ZN11IODataQueueC2EPK11OSMetaClass
ffffff80008eb890 T __ZN11IODataQueueC2Ev
ffffff80008eaff0 T __ZN11IODataQueueD0Ev
ffffff80008eafe0 T __ZN11IODataQueueD1Ev
ffffff80008eb800 T __ZN11IODataQueueD2Ev
ffffff8000abe868 S __ZN11IOMemoryMap10gMetaClassE
ffffff8000a1a468 S __ZN11IOMemoryMap10superClassE
ffffff80008cc210 T __ZN11IOMemoryMap13getMapOptionsEv
ffffff80008c7920 T __ZN11IOMemoryMap14copyCompatibleEPS_
ffffff80008cc1e0 T __ZN11IOMemoryMap14getAddressTaskEv
ffffff80008ce530 T __ZN11IOMemoryMap15userClientUnmapEv
ffffff80008cc120 T __ZN11IOMemoryMap17getVirtualAddressEv
ffffff80008ce400 T __ZN11IOMemoryMap18getPhysicalAddressEv
ffffff80008cc130 T __ZN11IOMemoryMap18getPhysicalSegmentEyPyj
ffffff80008cc200 T __ZN11IOMemoryMap19getMemoryDescriptorEv
ffffff80008ce4b0 T __ZN11IOMemoryMap19setMemoryDescriptorEP18IOMemoryDescriptory
ffffff80008cc620 T __ZN11IOMemoryMap21_RESERVEDIOMemoryMap0Ev
ffffff80008cc650 T __ZN11IOMemoryMap21_RESERVEDIOMemoryMap1Ev
ffffff80008cc680 T __ZN11IOMemoryMap21_RESERVEDIOMemoryMap2Ev
ffffff80008cc6b0 T __ZN11IOMemoryMap21_RESERVEDIOMemoryMap3Ev
ffffff80008cc6e0 T __ZN11IOMemoryMap21_RESERVEDIOMemoryMap4Ev
ffffff80008cc710 T __ZN11IOMemoryMap21_RESERVEDIOMemoryMap5Ev
ffffff80008cc740 T __ZN11IOMemoryMap21_RESERVEDIOMemoryMap6Ev
ffffff80008cc770 T __ZN11IOMemoryMap21_RESERVEDIOMemoryMap7Ev
ffffff80008cbfb0 T __ZN11IOMemoryMap4freeEv
ffffff80008ce420 T __ZN11IOMemoryMap4initEP4taskyjyy
ffffff80008cc220 T __ZN11IOMemoryMap5unmapEv
ffffff80008cc390 T __ZN11IOMemoryMap8redirectEP18IOMemoryDescriptorjy
ffffff80008cbc40 T __ZN11IOMemoryMap8redirectEP4taskb
ffffff80008cc2f0 T __ZN11IOMemoryMap8taskDiedEv
ffffff80008ce2b0 T __ZN11IOMemoryMap9MetaClassC1Ev
ffffff80008ce340 T __ZN11IOMemoryMap9MetaClassC2Ev
ffffff80008cc1d0 T __ZN11IOMemoryMap9getLengthEv
ffffff8000a1a470 S __ZN11IOMemoryMap9metaClassE
ffffff80008ce540 T __ZN11IOMemoryMap9wireRangeEjyy
ffffff80008ce310 T __ZN11IOMemoryMapC1EPK11OSMetaClass
ffffff80008ce380 T __ZN11IOMemoryMapC1Ev
ffffff80008ce2f0 T __ZN11IOMemoryMapC2EPK11OSMetaClass
ffffff80008ce3c0 T __ZN11IOMemoryMapC2Ev
ffffff80008cbed0 T __ZN11IOMemoryMapD0Ev
ffffff80008cbec0 T __ZN11IOMemoryMapD1Ev
ffffff80008ce330 T __ZN11IOMemoryMapD2Ev
ffffff8000abe360 S __ZN11IOPMRequest10gMetaClassE
ffffff8000a141c0 S __ZN11IOPMRequest10superClassE
ffffff80008aae60 T __ZN11IOPMRequest17attachNextRequestEPS_
ffffff80008ae050 T __ZN11IOPMRequest17attachRootRequestEPS_
ffffff80008ae450 T __ZN11IOPMRequest17detachNextRequestEv
ffffff80008ae480 T __ZN11IOPMRequest17detachRootRequestEv
ffffff80008adff0 T __ZN11IOPMRequest4initEP9IOServicej
ffffff80008ae070 T __ZN11IOPMRequest5resetEv
ffffff80008adf90 T __ZN11IOPMRequest6createEv
ffffff80008ae300 T __ZN11IOPMRequest9MetaClassC1Ev
ffffff80008ae390 T __ZN11IOPMRequest9MetaClassC2Ev
ffffff8000a141b8 S __ZN11IOPMRequest9metaClassE
ffffff80008ae360 T __ZN11IOPMRequestC1EPK11OSMetaClass
ffffff80008ae3d0 T __ZN11IOPMRequestC1Ev
ffffff80008ae340 T __ZN11IOPMRequestC2EPK11OSMetaClass
ffffff80008ae410 T __ZN11IOPMRequestC2Ev
ffffff800089da00 T __ZN11IOPMRequestD0Ev
ffffff800089d9f0 T __ZN11IOPMRequestD1Ev
ffffff80008ae380 T __ZN11IOPMRequestD2Ev
ffffff8000abe268 S __ZN11IOResources10gMetaClassE
ffffff8000a12a10 S __ZN11IOResources10superClassE
ffffff8000899710 T __ZN11IOResources13newUserClientEP4taskPvjP12OSDictionaryPP12IOUserClient
ffffff8000899390 T __ZN11IOResources13setPropertiesEP8OSObject
ffffff80008995a0 T __ZN11IOResources18matchPropertyTableEP12OSDictionary
ffffff8000899300 T __ZN11IOResources4initEP12OSDictionary
ffffff800089b4d0 T __ZN11IOResources9MetaClassC1Ev
ffffff800089b560 T __ZN11IOResources9MetaClassC2Ev
ffffff8000a12a18 S __ZN11IOResources9metaClassE
ffffff800089be00 T __ZN11IOResources9resourcesEv
ffffff800089b530 T __ZN11IOResourcesC1EPK11OSMetaClass
ffffff800089b5a0 T __ZN11IOResourcesC1Ev
ffffff800089b510 T __ZN11IOResourcesC2EPK11OSMetaClass
ffffff800089b5e0 T __ZN11IOResourcesC2Ev
ffffff80008992b0 T __ZN11IOResourcesD0Ev
ffffff80008992a0 T __ZN11IOResourcesD1Ev
ffffff800089b550 T __ZN11IOResourcesD2Ev
ffffff8000abe388 S __ZN11IOServicePM10gMetaClassE
ffffff8000a142f8 S __ZN11IOServicePM10superClassE
ffffff80008ae900 T __ZN11IOServicePM9MetaClassC1Ev
ffffff80008ae990 T __ZN11IOServicePM9MetaClassC2Ev
ffffff8000a14300 S __ZN11IOServicePM9metaClassE
ffffff80008ae960 T __ZN11IOServicePMC1EPK11OSMetaClass
ffffff80008aa0a0 T __ZN11IOServicePMC1Ev
ffffff80008ae940 T __ZN11IOServicePMC2EPK11OSMetaClass
ffffff80008ae9d0 T __ZN11IOServicePMC2Ev
ffffff800089eb60 T __ZN11IOServicePMD0Ev
ffffff800089eb50 T __ZN11IOServicePMD1Ev
ffffff80008ae980 T __ZN11IOServicePMD2Ev
ffffff80008396f0 T __ZN11OSMetaClass10preModLoadEPKc
ffffff80008397e0 T __ZN11OSMetaClass11postModLoadEPv
ffffff80008397c0 T __ZN11OSMetaClass12checkModLoadEPv
ffffff8000839d10 T __ZN11OSMetaClass14modHasInstanceEPKc
ffffff800083a200 T __ZN11OSMetaClass15considerUnloadsEv
ffffff8000839ec0 T __ZN11OSMetaClass16applyToInstancesEP12OSOrderedSetPFbPK8OSObjectPvES5_
ffffff800083a2d0 T __ZN11OSMetaClass18allocClassWithNameEPK8OSString
ffffff800083a260 T __ZN11OSMetaClass18allocClassWithNameEPK8OSSymbol
ffffff800083a360 T __ZN11OSMetaClass18allocClassWithNameEPKc
ffffff800083a6b0 T __ZN11OSMetaClass18getClassDictionaryEv
ffffff8000839d50 T __ZN11OSMetaClass18reportModInstancesEPKc
ffffff800083a5e0 T __ZN11OSMetaClass19printInstanceCountsEv
ffffff800083a210 T __ZN11OSMetaClass20getMetaClassWithNameEPK8OSSymbol
ffffff8000838ca0 T __ZN11OSMetaClass21_RESERVEDOSMetaClass0Ev
ffffff8000838cc0 T __ZN11OSMetaClass21_RESERVEDOSMetaClass1Ev
ffffff8000838ce0 T __ZN11OSMetaClass21_RESERVEDOSMetaClass2Ev
ffffff8000838d00 T __ZN11OSMetaClass21_RESERVEDOSMetaClass3Ev
ffffff8000838d20 T __ZN11OSMetaClass21_RESERVEDOSMetaClass4Ev
ffffff8000838d40 T __ZN11OSMetaClass21_RESERVEDOSMetaClass5Ev
ffffff8000838d60 T __ZN11OSMetaClass21_RESERVEDOSMetaClass6Ev
ffffff8000838d80 T __ZN11OSMetaClass21_RESERVEDOSMetaClass7Ev
ffffff800083a3f0 T __ZN11OSMetaClass21checkMetaCastWithNameEPK8OSStringPK15OSMetaClassBase
ffffff8000839280 T __ZN11OSMetaClass21checkMetaCastWithNameEPK8OSSymbolPK15OSMetaClassBase
ffffff800083a4a0 T __ZN11OSMetaClass21checkMetaCastWithNameEPKcPK15OSMetaClassBase
ffffff800083a6d0 T __ZN11OSMetaClass24serializeClassDictionaryEP12OSDictionary
ffffff800083a150 T __ZN11OSMetaClass27applyToInstancesOfClassNameEPK8OSSymbolPFbPK8OSObjectPvES6_
ffffff80008394d0 T __ZN11OSMetaClass8logErrorEi
ffffff8000a0df90 S __ZN11OSMetaClass9metaClassE
ffffff8000838f10 T __ZN11OSMetaClassC2EPKcPKS_j
ffffff8000838ed0 T __ZN11OSMetaClassD0Ev
ffffff8000838da0 T __ZN11OSMetaClassD1Ev
ffffff8000839580 T __ZN11OSMetaClassD2Ev
ffffff80008582a0 T __ZN11OSMetaClassdlEPvm
ffffff80008582b0 T __ZN11OSMetaClassnwEm
ffffff8000abdd98 S __ZN11OSSerialize10gMetaClassE
ffffff8000a101d8 S __ZN11OSSerialize10superClassE
ffffff8000858620 T __ZN11OSSerialize12addXMLEndTagEPKc
ffffff80008594c0 T __ZN11OSSerialize12withCapacityEj
ffffff8000858510 T __ZN11OSSerialize14addXMLStartTagEPK15OSMetaClassBasePKc
ffffff80008588a0 T __ZN11OSSerialize14ensureCapacityEj
ffffff8000860a30 T __ZN11OSSerialize15addBinaryObjectEPK15OSMetaClassBasejPKvm
ffffff8000860b20 T __ZN11OSSerialize15binarySerializeEPK15OSMetaClassBase
ffffff8000858750 T __ZN11OSSerialize16initWithCapacityEj
ffffff8000860940 T __ZN11OSSerialize18binaryWithCapacityEjPFPK15OSMetaClassBasePvPS_P12OSCollectionPK8OSSymbolS2_ES3_
ffffff8000858400 T __ZN11OSSerialize20previouslySerializedEPK15OSMetaClassBase
ffffff8000858880 T __ZN11OSSerialize20setCapacityIncrementEj
ffffff8000858940 T __ZN11OSSerialize21_RESERVEDOSSerialize0Ev
ffffff8000858970 T __ZN11OSSerialize21_RESERVEDOSSerialize1Ev
ffffff80008589a0 T __ZN11OSSerialize21_RESERVEDOSSerialize2Ev
ffffff80008589d0 T __ZN11OSSerialize21_RESERVEDOSSerialize3Ev
ffffff8000858a00 T __ZN11OSSerialize21_RESERVEDOSSerialize4Ev
ffffff8000858a30 T __ZN11OSSerialize21_RESERVEDOSSerialize5Ev
ffffff8000858a60 T __ZN11OSSerialize21_RESERVEDOSSerialize6Ev
ffffff8000858a90 T __ZN11OSSerialize21_RESERVEDOSSerialize7Ev
ffffff8000858320 T __ZN11OSSerialize4freeEv
ffffff8000858690 T __ZN11OSSerialize7addCharEc
ffffff8000859370 T __ZN11OSSerialize9MetaClassC1Ev
ffffff8000859400 T __ZN11OSSerialize9MetaClassC2Ev
ffffff80008609a0 T __ZN11OSSerialize9addBinaryEPKvm
ffffff8000858710 T __ZN11OSSerialize9addStringEPKc
ffffff80008583a0 T __ZN11OSSerialize9clearTextEv
ffffff8000a101d0 S __ZN11OSSerialize9metaClassE
ffffff80008593d0 T __ZN11OSSerializeC1EPK11OSMetaClass
ffffff8000859440 T __ZN11OSSerializeC1Ev
ffffff80008593b0 T __ZN11OSSerializeC2EPK11OSMetaClass
ffffff8000859480 T __ZN11OSSerializeC2Ev
ffffff80008582d0 T __ZN11OSSerializeD0Ev
ffffff80008582c0 T __ZN11OSSerializeD1Ev
ffffff80008593f0 T __ZN11OSSerializeD2Ev
ffffff8000abe720 S __ZN12IODMACommand10gMetaClassE
ffffff8000a18890 S __ZN12IODMACommand10superClassE
ffffff80008c2450 T __ZN12IODMACommand10withRefConEPv
ffffff80008c26d0 T __ZN12IODMACommand10writeBytesEyPKvy
ffffff80008c10f0 T __ZN12IODMACommand11OutputBig32EPS_NS_9Segment64EPvj
ffffff80008c2740 T __ZN12IODMACommand11OutputBig64EPS_NS_9Segment64EPvj
ffffff80008c0940 T __ZN12IODMACommand11synchronizeEj
ffffff80008c10d0 T __ZN12IODMACommand12OutputHost32EPS_NS_9Segment64EPvj
ffffff80008c2720 T __ZN12IODMACommand12OutputHost64EPS_NS_9Segment64EPvj
ffffff80008c01d0 T __ZN12IODMACommand12cloneCommandEPv
ffffff80008c2680 T __ZN12IODMACommand12getAlignmentEv
ffffff80008c1120 T __ZN12IODMACommand14OutputLittle32EPS_NS_9Segment64EPvj
ffffff80008c2760 T __ZN12IODMACommand14OutputLittle64EPS_NS_9Segment64EPvj
ffffff80008c0b70 T __ZN12IODMACommand14initWithRefConEPv
ffffff80008c26f0 T __ZN12IODMACommand15genIOVMSegmentsEPFbPS_NS_9Segment64EPvjEPyS2_Pj
ffffff80008c09e0 T __ZN12IODMACommand15genIOVMSegmentsEPyPvPj
ffffff80008c1240 T __ZN12IODMACommand15genIOVMSegmentsEjPFiPvPS_NS_9Segment64ES0_jES0_PyS0_Pj
ffffff80008c1140 T __ZN12IODMACommand15transferSegmentEPvPS_NS_9Segment64ES0_j
ffffff80008c0cb0 T __ZN12IODMACommand16createCopyBufferEjy
ffffff80008c0e80 T __ZN12IODMACommand16setSpecificationEPFbPS_NS_9Segment64EPvjEPKNS_14SegmentOptionsEjP8IOMapper
ffffff80008c2670 T __ZN12IODMACommand17getNumAddressBitsEv
ffffff80008c24d0 T __ZN12IODMACommand17withSpecificationEPFbPS_NS_9Segment64EPvjEPKNS_14SegmentOptionsEjP8IOMapperS2_
ffffff80008c2580 T __ZN12IODMACommand17withSpecificationEPFbPS_NS_9Segment64EPvjEhyNS_14MappingOptionsEyjP8IOMapperS2_
ffffff80008c2690 T __ZN12IODMACommand18getAlignmentLengthEv
ffffff80008c1770 T __ZN12IODMACommand19clientOutputSegmentEPvPS_NS_9Segment64ES0_j
ffffff80008c0300 T __ZN12IODMACommand19setMemoryDescriptorEPK18IOMemoryDescriptorb
ffffff80008c04a0 T __ZN12IODMACommand21clearMemoryDescriptorEb
ffffff80008c0bd0 T __ZN12IODMACommand21initWithSpecificationEPFbPS_NS_9Segment64EPvjEPKNS_14SegmentOptionsEjP8IOMapperS2_
ffffff80008c02b0 T __ZN12IODMACommand21initWithSpecificationEPFbPS_NS_9Segment64EPvjEhyNS_14MappingOptionsEyjP8IOMapperS2_
ffffff80008c0cd0 T __ZN12IODMACommand22_RESERVEDIODMACommand7Ev
ffffff80008c0d00 T __ZN12IODMACommand22_RESERVEDIODMACommand8Ev
ffffff80008c0d30 T __ZN12IODMACommand22_RESERVEDIODMACommand9Ev
ffffff80008c0d60 T __ZN12IODMACommand23_RESERVEDIODMACommand10Ev
ffffff80008c0d90 T __ZN12IODMACommand23_RESERVEDIODMACommand11Ev
ffffff80008c0dc0 T __ZN12IODMACommand23_RESERVEDIODMACommand12Ev
ffffff80008c0df0 T __ZN12IODMACommand23_RESERVEDIODMACommand13Ev
ffffff80008c0e20 T __ZN12IODMACommand23_RESERVEDIODMACommand14Ev
ffffff80008c0e50 T __ZN12IODMACommand23_RESERVEDIODMACommand15Ev
ffffff80008c0c30 T __ZN12IODMACommand24prepareWithSpecificationEPFbPS_NS_9Segment64EPvjEPKNS_14SegmentOptionsEjP8IOMapperyybb
ffffff80008c0ab0 T __ZN12IODMACommand24prepareWithSpecificationEPFbPS_NS_9Segment64EPvjEhyNS_14MappingOptionsEyjP8IOMapperyybb
ffffff80008c0b30 T __ZN12IODMACommand26getPreparedOffsetAndLengthEPyS0_
ffffff80008c26a0 T __ZN12IODMACommand28getAlignmentInternalSegmentsEv
ffffff80008c0180 T __ZN12IODMACommand4freeEv
ffffff80008c0530 T __ZN12IODMACommand7prepareEyybb
ffffff80008c17e0 T __ZN12IODMACommand7walkAllEh
ffffff80008c0830 T __ZN12IODMACommand8completeEbb
ffffff80008c0a10 T __ZN12IODMACommand8transferEjyPvy
ffffff80008c2300 T __ZN12IODMACommand9MetaClassC1Ev
ffffff80008c2390 T __ZN12IODMACommand9MetaClassC2Ev
ffffff8000a18888 S __ZN12IODMACommand9metaClassE
ffffff80008c26b0 T __ZN12IODMACommand9readBytesEyPvy
ffffff80008c1b70 T __ZN12IODMACommand9segmentOpEPvPS_NS_9Segment64ES0_j
ffffff80008c2360 T __ZN12IODMACommandC1EPK11OSMetaClass
ffffff80008c23d0 T __ZN12IODMACommandC1Ev
ffffff80008c2340 T __ZN12IODMACommandC2EPK11OSMetaClass
ffffff80008c2410 T __ZN12IODMACommandC2Ev
ffffff80008c0130 T __ZN12IODMACommandD0Ev
ffffff80008c0120 T __ZN12IODMACommandD1Ev
ffffff80008c2380 T __ZN12IODMACommandD2Ev
ffffff8000abe428 S __ZN12IOPMinformee10gMetaClassE
ffffff80008af0b0 T __ZN12IOPMinformee10initializeEP9IOService
ffffff8000a14f78 S __ZN12IOPMinformee10superClassE
ffffff80008af030 T __ZN12IOPMinformee10withObjectEP9IOService
ffffff80008aea70 T __ZN12IOPMinformee4freeEv
ffffff80008aeee0 T __ZN12IOPMinformee9MetaClassC1Ev
ffffff80008aef70 T __ZN12IOPMinformee9MetaClassC2Ev
ffffff8000a14f70 S __ZN12IOPMinformee9metaClassE
ffffff80008aef40 T __ZN12IOPMinformeeC1EPK11OSMetaClass
ffffff80008aefb0 T __ZN12IOPMinformeeC1Ev
ffffff80008aef20 T __ZN12IOPMinformeeC2EPK11OSMetaClass
ffffff80008aeff0 T __ZN12IOPMinformeeC2Ev
ffffff80008aea20 T __ZN12IOPMinformeeD0Ev
ffffff80008aea10 T __ZN12IOPMinformeeD1Ev
ffffff80008aef60 T __ZN12IOPMinformeeD2Ev
ffffff8000910ac0 T __ZN12IORootParent10dozeSystemEv
ffffff8000abef88 S __ZN12IORootParent10gMetaClassE
ffffff8000910a80 T __ZN12IORootParent10initializeEv
ffffff8000a27a88 S __ZN12IORootParent10superClassE
ffffff8000910ae0 T __ZN12IORootParent10wakeSystemEv
ffffff8000910ab0 T __ZN12IORootParent11sleepSystemEv
ffffff8000910ad0 T __ZN12IORootParent11sleepToDozeEv
ffffff8000910aa0 T __ZN12IORootParent13restartSystemEv
ffffff8000910a70 T __ZN12IORootParent14__OSFinalClassEv
ffffff8000910a90 T __ZN12IORootParent14shutDownSystemEv
ffffff8000904fa0 T __ZN12IORootParent5startEP9IOService
ffffff8000910960 T __ZN12IORootParent9MetaClassC1Ev
ffffff80009109f0 T __ZN12IORootParent9MetaClassC2Ev
ffffff8000a27a90 S __ZN12IORootParent9metaClassE
ffffff80009109c0 T __ZN12IORootParentC1EPK11OSMetaClass
ffffff800090c0d0 T __ZN12IORootParentC1Ev
ffffff80009109a0 T __ZN12IORootParentC2EPK11OSMetaClass
ffffff8000910a30 T __ZN12IORootParentC2Ev
ffffff8000904f40 T __ZN12IORootParentD0Ev
ffffff8000904f30 T __ZN12IORootParentD1Ev
ffffff80009109e0 T __ZN12IORootParentD2Ev
ffffff80008f2440 T __ZN12IOStatistics10countAllocEjm
ffffff80008f1170 T __ZN12IOStatistics10initializeEv
ffffff80008f1200 T __ZN12IOStatistics10onKextLoadEP6OSKextP9kmod_info
ffffff8000abecfc S __ZN12IOStatistics10sequenceIDE
ffffff8000abed08 S __ZN12IOStatistics11loadedKextsE
ffffff80008f15e0 T __ZN12IOStatistics12onClassAddedEP6OSKextP11OSMetaClass
ffffff80008f1470 T __ZN12IOStatistics12onKextUnloadEP6OSKext
ffffff80008ec790 T __ZN12IOStatistics13getStatisticsEP10sysctl_req
ffffff8000abed04 S __ZN12IOStatistics13lastKextIndexE
ffffff80008ed390 T __ZN12IOStatistics14copyClassNamesEP21IOStatisticsClassName
ffffff8000abed00 S __ZN12IOStatistics14lastClassIndexE
ffffff80008f1800 T __ZN12IOStatistics14onClassRemovedEP6OSKextP11OSMetaClass
ffffff8000abed40 S __ZN12IOStatistics15kextAddressHeadE
ffffff80008ed490 T __ZN12IOStatistics15kextNodeCompareEP8KextNodeS1_
ffffff80008f1d00 T __ZN12IOStatistics15releaseKextNodeEP8KextNode
ffffff80008ee2c0 T __ZN12IOStatistics16KextTree_RB_FINDEPNS_8KextTreeEP8KextNode
ffffff80008ee300 T __ZN12IOStatistics16KextTree_RB_NEXTEP8KextNode
ffffff80008ef330 T __ZN12IOStatistics16classNodeCompareEP9ClassNodeS1_
ffffff80008f1b20 T __ZN12IOStatistics16registerWorkLoopEP10IOWorkLoop
ffffff80008f0160 T __ZN12IOStatistics17ClassTree_RB_FINDEPNS_9ClassTreeEP9ClassNode
ffffff80008f01a0 T __ZN12IOStatistics17ClassTree_RB_NEXTEP9ClassNode
ffffff8000abed0c S __ZN12IOStatistics17registeredClassesE
ffffff80008ee200 T __ZN12IOStatistics18KextTree_RB_INSERTEPNS_8KextTreeEP8KextNode
ffffff80008ee380 T __ZN12IOStatistics18KextTree_RB_MINMAXEPNS_8KextTreeEi
ffffff80008ee060 T __ZN12IOStatistics18KextTree_RB_REMOVEEPNS_8KextTreeEP8KextNode
ffffff80008ece00 T __ZN12IOStatistics18copyKextStatisticsEP16IOStatisticsKext
ffffff80008f1db0 T __ZN12IOStatistics18registerUserClientEP12IOUserClient
ffffff8000abed10 S __ZN12IOStatistics18registeredCountersE
ffffff80008f1d20 T __ZN12IOStatistics18unregisterWorkLoopEP17IOWorkLoopCounter
ffffff80008f00a0 T __ZN12IOStatistics19ClassTree_RB_INSERTEPNS_9ClassTreeEP9ClassNode
ffffff80008f0220 T __ZN12IOStatistics19ClassTree_RB_MINMAXEPNS_9ClassTreeEi
ffffff80008eff00 T __ZN12IOStatistics19ClassTree_RB_REMOVEEPNS_9ClassTreeEP9ClassNode
ffffff80008ecff0 T __ZN12IOStatistics19copyClassStatisticsEP17IOStatisticsClass
ffffff80008ed2c0 T __ZN12IOStatistics19copyKextIdentifiersEP26IOStatisticsKextIdentifier
ffffff80008f2410 T __ZN12IOStatistics19countUserClientCallEP12IOUserClient
ffffff80008f1970 T __ZN12IOStatistics19registerEventSourceEP8OSObject
ffffff8000abed14 S __ZN12IOStatistics19registeredWorkloopsE
ffffff80008ed4d0 T __ZN12IOStatistics20KextTree_RB_GETCOLOREP8KextNode
ffffff80008ed4e0 T __ZN12IOStatistics20KextTree_RB_SETCOLOREP8KextNodei
ffffff8000abed18 S __ZN12IOStatistics20attachedEventSourcesE
ffffff80008f2110 T __ZN12IOStatistics20copyGlobalStatisticsEP18IOStatisticsGlobal
ffffff80008ecf20 T __ZN12IOStatistics20copyMemoryStatisticsEP18IOStatisticsMemory
ffffff80008f1ea0 T __ZN12IOStatistics20unregisterUserClientEP19IOUserClientCounter
ffffff80008ef370 T __ZN12IOStatistics21ClassTree_RB_GETCOLOREP9ClassNode
ffffff80008ef380 T __ZN12IOStatistics21ClassTree_RB_SETCOLOREP9ClassNodei
ffffff80008ed4b0 T __ZN12IOStatistics21KextTree_RB_GETPARENTEP8KextNode
ffffff80008ed510 T __ZN12IOStatistics21KextTree_RB_SETPARENTEP8KextNodeS1_
ffffff80008ed0d0 T __ZN12IOStatistics21copyCounterStatisticsEP19IOStatisticsCounter
ffffff80008ec930 T __ZN12IOStatistics21getWorkLoopStatisticsEP10sysctl_req
ffffff80008f1a90 T __ZN12IOStatistics21unregisterEventSourceEP20IOEventSourceCounter
ffffff80008ef350 T __ZN12IOStatistics22ClassTree_RB_GETPARENTEP9ClassNode
ffffff80008ef3b0 T __ZN12IOStatistics22ClassTree_RB_SETPARENTEP9ClassNodeS1_
ffffff80008ecc50 T __ZN12IOStatistics22copyWorkLoopStatisticsEP20IOStatisticsWorkLoop
ffffff80008ee3b0 T __ZN12IOStatistics22kextAddressNodeCompareEP8KextNodeS1_
ffffff8000abed20 S __ZN12IOStatistics22nextWorkLoopDependencyE
ffffff80008ef230 T __ZN12IOStatistics23KextAddressTree_RB_FINDEPNS_15KextAddressTreeEP8KextNode
ffffff80008ef280 T __ZN12IOStatistics23KextAddressTree_RB_NEXTEP8KextNode
ffffff80008eca10 T __ZN12IOStatistics23getUserClientStatisticsEP10sysctl_req
ffffff80008f2140 T __ZN12IOStatistics23storeUserClientCallInfoEP12IOUserClientP19IOUserClientCounter
ffffff80008ed550 T __ZN12IOStatistics24KextTree_RB_INSERT_COLOREPNS_8KextTreeEP8KextNode
ffffff80008ed970 T __ZN12IOStatistics24KextTree_RB_REMOVE_COLOREPNS_8KextTreeEP8KextNodeS3_
ffffff80008ecb20 T __ZN12IOStatistics24copyUserClientStatisticsEP28IOStatisticsUserClientHeaderj
ffffff80008f1be0 T __ZN12IOStatistics24getKextNodeFromBacktraceEi
ffffff80008ef3f0 T __ZN12IOStatistics25ClassTree_RB_INSERT_COLOREPNS_9ClassTreeEP9ClassNode
ffffff80008ef810 T __ZN12IOStatistics25ClassTree_RB_REMOVE_COLOREPNS_9ClassTreeEP9ClassNodeS3_
ffffff80008ef170 T __ZN12IOStatistics25KextAddressTree_RB_INSERTEPNS_15KextAddressTreeEP8KextNode
ffffff80008ef300 T __ZN12IOStatistics25KextAddressTree_RB_MINMAXEPNS_15KextAddressTreeEi
ffffff80008eefc0 T __ZN12IOStatistics25KextAddressTree_RB_REMOVEEPNS_15KextAddressTreeEP8KextNode
ffffff80008f1f20 T __ZN12IOStatistics25attachWorkLoopEventSourceEP17IOWorkLoopCounterP20IOEventSourceCounter
ffffff80008f2060 T __ZN12IOStatistics25detachWorkLoopEventSourceEP17IOWorkLoopCounterP20IOEventSourceCounter
ffffff80008ee3f0 T __ZN12IOStatistics27KextAddressTree_RB_GETCOLOREP8KextNode
ffffff80008ee400 T __ZN12IOStatistics27KextAddressTree_RB_SETCOLOREP8KextNodei
ffffff80008ee3d0 T __ZN12IOStatistics28KextAddressTree_RB_GETPARENTEP8KextNode
ffffff80008ee430 T __ZN12IOStatistics28KextAddressTree_RB_SETPARENTEP8KextNodeS1_
ffffff80008ee470 T __ZN12IOStatistics31KextAddressTree_RB_INSERT_COLOREPNS_15KextAddressTreeEP8KextNode
ffffff80008ee8b0 T __ZN12IOStatistics31KextAddressTree_RB_REMOVE_COLOREPNS_15KextAddressTreeEP8KextNodeS3_
ffffff8000abed28 S __ZN12IOStatistics4lockE
ffffff8000abecf8 S __ZN12IOStatistics7enabledE
ffffff8000abed38 S __ZN12IOStatistics8kextHeadE
ffffff8000abed30 S __ZN12IOStatistics8kextHintE
ffffff8000abed48 S __ZN12IOStatistics9classHeadE
ffffff80008dff20 T __ZN12IOUserClient10clientDiedEv
ffffff8000abeb68 S __ZN12IOUserClient10gMetaClassE
ffffff80008dff50 T __ZN12IOUserClient10getServiceEv
ffffff80008e3040 T __ZN12IOUserClient10initializeEv
ffffff8000a22638 S __ZN12IOUserClient10superClassE
ffffff80008dff10 T __ZN12IOUserClient11clientCloseEv
ffffff80008dfe80 T __ZN12IOUserClient12initWithTaskEP4taskPvj
ffffff80008dfe30 T __ZN12IOUserClient12initWithTaskEP4taskPvjP12OSDictionary
ffffff80008dff80 T __ZN12IOUserClient13connectClientEPS_
ffffff80008e22c0 T __ZN12IOUserClient13noMoreSendersEv
ffffff80008e3ce0 T __ZN12IOUserClient13registerOwnerEP4task
ffffff80008df790 T __ZN12IOUserClient14externalMethodEjP25IOExternalMethodArgumentsP24IOExternalMethodDispatchP8OSObjectPv
ffffff80008e4050 T __ZN12IOUserClient15sendAsyncResultEPjiPPvj
ffffff80008e3f80 T __ZN12IOUserClient17mapClientMemory64EjP4taskjy
ffffff80008e4420 T __ZN12IOUserClient17sendAsyncResult64EPyiS0_j
ffffff80008e3060 T __ZN12IOUserClient17setAsyncReferenceEPjP8ipc_portPvS3_
ffffff80008e4190 T __ZN12IOUserClient18_sendAsyncResult64EPyiS0_jj
ffffff80008e3100 T __ZN12IOUserClient18clientHasPrivilegeEPvPKc
ffffff80008dff90 T __ZN12IOUserClient19clientMemoryForTypeEjPjPP18IOMemoryDescriptor
ffffff80008e3080 T __ZN12IOUserClient19setAsyncReference64EPyP8ipc_portyy
ffffff80008e30a0 T __ZN12IOUserClient19setAsyncReference64EPyP8ipc_portyyP4task
ffffff80008dffa0 T __ZN12IOUserClient20exportObjectToClientEP4taskP8OSObjectPS3_
ffffff80008e3a00 T __ZN12IOUserClient21copyClientEntitlementEP4taskPKc
ffffff80008e2510 T __ZN12IOUserClient21destroyUserReferencesEP8OSObject
ffffff80008dfb30 T __ZN12IOUserClient22_RESERVEDIOUserClient0Ev
ffffff80008dfb60 T __ZN12IOUserClient22_RESERVEDIOUserClient1Ev
ffffff80008dfb90 T __ZN12IOUserClient22_RESERVEDIOUserClient2Ev
ffffff80008dfbc0 T __ZN12IOUserClient22_RESERVEDIOUserClient3Ev
ffffff80008dfbf0 T __ZN12IOUserClient22_RESERVEDIOUserClient4Ev
ffffff80008dfc20 T __ZN12IOUserClient22_RESERVEDIOUserClient5Ev
ffffff80008dfc50 T __ZN12IOUserClient22_RESERVEDIOUserClient6Ev
ffffff80008dfc80 T __ZN12IOUserClient22_RESERVEDIOUserClient7Ev
ffffff80008dfcb0 T __ZN12IOUserClient22_RESERVEDIOUserClient8Ev
ffffff80008dfce0 T __ZN12IOUserClient22_RESERVEDIOUserClient9Ev
ffffff80008e30d0 T __ZN12IOUserClient22clientHasAuthorizationEP4taskP9IOService
ffffff80008e29c0 T __ZN12IOUserClient22finalizeUserReferencesEP8OSObject
ffffff80008dfd10 T __ZN12IOUserClient23_RESERVEDIOUserClient10Ev
ffffff80008dfd40 T __ZN12IOUserClient23_RESERVEDIOUserClient11Ev
ffffff80008dfd70 T __ZN12IOUserClient23_RESERVEDIOUserClient12Ev
ffffff80008dfda0 T __ZN12IOUserClient23_RESERVEDIOUserClient13Ev
ffffff80008dfdd0 T __ZN12IOUserClient23_RESERVEDIOUserClient14Ev
ffffff80008dfe00 T __ZN12IOUserClient23_RESERVEDIOUserClient15Ev
ffffff80008e0050 T __ZN12IOUserClient23getExternalTrapForIndexEj
ffffff80008e4010 T __ZN12IOUserClient23releaseAsyncReference64EPy
ffffff80008e4030 T __ZN12IOUserClient23releaseNotificationPortEP8ipc_port
ffffff80008dff70 T __ZN12IOUserClient24getNotificationSemaphoreEjPP9semaphore
ffffff80008e0060 T __ZN12IOUserClient24getTargetAndTrapForIndexEPP9IOServicej
ffffff80008dff60 T __ZN12IOUserClient24registerNotificationPortEP8ipc_portjj
ffffff80008dfb10 T __ZN12IOUserClient24registerNotificationPortEP8ipc_portjy
ffffff80008dffd0 T __ZN12IOUserClient25getExternalMethodForIndexEj
ffffff80008dfff0 T __ZN12IOUserClient26getTargetAndMethodForIndexEPP9IOServicej
ffffff80008e7ed0 T __ZN12IOUserClient26removeMappingForDescriptorEP18IOMemoryDescriptor
ffffff80008e4430 T __ZN12IOUserClient28sendAsyncResult64WithOptionsEPyiS0_jj
ffffff80008dffe0 T __ZN12IOUserClient30getExternalAsyncMethodForIndexEj
ffffff80008e0020 T __ZN12IOUserClient31getAsyncTargetAndMethodForIndexEPP9IOServicej
ffffff80008df6b0 T __ZN12IOUserClient4freeEv
ffffff80008df710 T __ZN12IOUserClient4initEP12OSDictionary
ffffff80008df620 T __ZN12IOUserClient4initEv
ffffff80008e3c70 T __ZN12IOUserClient7reserveEv
ffffff80008e2f70 T __ZN12IOUserClient9MetaClassC1Ev
ffffff80008e3000 T __ZN12IOUserClient9MetaClassC2Ev
ffffff8000a22640 S __ZN12IOUserClient9metaClassE
ffffff80008e2fd0 T __ZN12IOUserClientC1EPK11OSMetaClass
ffffff80008e2fb0 T __ZN12IOUserClientC2EPK11OSMetaClass
ffffff80008df5d0 T __ZN12IOUserClientD0Ev
ffffff80008df5c0 T __ZN12IOUserClientD1Ev
ffffff80008e2ff0 T __ZN12IOUserClientD2Ev
ffffff8000b09460 S __ZN12KLDBootstrap20readBooterExtensionsEv
ffffff8000b09150 S __ZN12KLDBootstrap21readStartupExtensionsEv
ffffff8000b09d70 S __ZN12KLDBootstrap22loadSecurityExtensionsEv
ffffff8000b091b0 S __ZN12KLDBootstrap23readPrelinkedExtensionsEP10section_64
ffffff8000b09760 S __ZN12KLDBootstrap24loadKernelComponentKextsEv
ffffff8000b09a00 S __ZN12KLDBootstrap24readBuiltinPersonalitiesEv
ffffff8000b09820 S __ZN12KLDBootstrap28loadKernelExternalComponentsEv
ffffff8000b09000 S __ZN12KLDBootstrapC1Ev
ffffff8000b09090 S __ZN12KLDBootstrapC2Ev
ffffff8000b09050 S __ZN12KLDBootstrapD1Ev
ffffff8000b09110 S __ZN12KLDBootstrapD2Ev
ffffff8000abdbe8 S __ZN12OSCollection10gMetaClassE
ffffff800083d3a0 T __ZN12OSCollection10setOptionsEjjPv
ffffff8000a0e978 S __ZN12OSCollection10superClassE
ffffff800083d9c0 T __ZN12OSCollection11haveUpdatedEv
ffffff800083d3c0 T __ZN12OSCollection14copyCollectionEP12OSDictionary
ffffff800083d400 T __ZN12OSCollection22_RESERVEDOSCollection2Ev
ffffff800083d430 T __ZN12OSCollection22_RESERVEDOSCollection3Ev
ffffff800083d460 T __ZN12OSCollection22_RESERVEDOSCollection4Ev
ffffff800083d490 T __ZN12OSCollection22_RESERVEDOSCollection5Ev
ffffff800083d4c0 T __ZN12OSCollection22_RESERVEDOSCollection6Ev
ffffff800083d4f0 T __ZN12OSCollection22_RESERVEDOSCollection7Ev
ffffff800083d390 T __ZN12OSCollection4initEv
ffffff800083d910 T __ZN12OSCollection9MetaClassC1Ev
ffffff800083d980 T __ZN12OSCollection9MetaClassC2Ev
ffffff8000a0e970 S __ZN12OSCollection9metaClassE
ffffff800083d950 T __ZN12OSCollectionC2EPK11OSMetaClass
ffffff800083d340 T __ZN12OSCollectionD0Ev
ffffff800083d330 T __ZN12OSCollectionD1Ev
ffffff800083d970 T __ZN12OSCollectionD2Ev
ffffff8000abdc60 S __ZN12OSDictionary10gMetaClassE
ffffff800083fac0 T __ZN12OSDictionary10setOptionsEjjPv
ffffff8000a0f188 S __ZN12OSDictionary10superClassE
ffffff80008411b0 T __ZN12OSDictionary11withObjectsEPPK8OSObjectPPK8OSStringjj
ffffff8000841110 T __ZN12OSDictionary11withObjectsEPPK8OSObjectPPK8OSSymboljj
ffffff8000840300 T __ZN12OSDictionary12removeObjectEPK8OSString
ffffff80008401a0 T __ZN12OSDictionary12removeObjectEPK8OSSymbol
ffffff8000840340 T __ZN12OSDictionary12removeObjectEPKc
ffffff8000841090 T __ZN12OSDictionary12withCapacityEj
ffffff800083fb70 T __ZN12OSDictionary14copyCollectionEPS_
ffffff800083f960 T __ZN12OSDictionary14ensureCapacityEj
ffffff8000841250 T __ZN12OSDictionary14withDictionaryEPKS_j
ffffff800083fa20 T __ZN12OSDictionary15flushCollectionEv
ffffff800083fef0 T __ZN12OSDictionary15initWithObjectsEPPK8OSObjectPPK8OSStringjj
ffffff800083fe50 T __ZN12OSDictionary15initWithObjectsEPPK8OSObjectPPK8OSSymboljj
ffffff800083fdc0 T __ZN12OSDictionary16initWithCapacityEj
ffffff800083ffd0 T __ZN12OSDictionary18initWithDictionaryEPKS_j
ffffff800083f940 T __ZN12OSDictionary20setCapacityIncrementEj
ffffff8000840750 T __ZN12OSDictionary22_RESERVEDOSDictionary0Ev
ffffff8000840780 T __ZN12OSDictionary22_RESERVEDOSDictionary1Ev
ffffff80008407b0 T __ZN12OSDictionary22_RESERVEDOSDictionary2Ev
ffffff80008407e0 T __ZN12OSDictionary22_RESERVEDOSDictionary3Ev
ffffff8000840810 T __ZN12OSDictionary22_RESERVEDOSDictionary4Ev
ffffff8000840840 T __ZN12OSDictionary22_RESERVEDOSDictionary5Ev
ffffff8000840870 T __ZN12OSDictionary22_RESERVEDOSDictionary6Ev
ffffff80008408a0 T __ZN12OSDictionary22_RESERVEDOSDictionary7Ev
ffffff800083f860 T __ZN12OSDictionary4freeEv
ffffff8000840380 T __ZN12OSDictionary5mergeEPKS_
ffffff8000840f40 T __ZN12OSDictionary9MetaClassC1Ev
ffffff8000840fd0 T __ZN12OSDictionary9MetaClassC2Ev
ffffff8000a0f180 S __ZN12OSDictionary9metaClassE
ffffff8000840100 T __ZN12OSDictionary9setObjectEPK8OSStringPK15OSMetaClassBase
ffffff80008400f0 T __ZN12OSDictionary9setObjectEPK8OSSymbolPK15OSMetaClassBase
ffffff80008408d0 T __ZN12OSDictionary9setObjectEPK8OSSymbolPK15OSMetaClassBaseb
ffffff8000840150 T __ZN12OSDictionary9setObjectEPKcPK15OSMetaClassBase
ffffff8000840fa0 T __ZN12OSDictionaryC1EPK11OSMetaClass
ffffff8000841010 T __ZN12OSDictionaryC1Ev
ffffff8000840f80 T __ZN12OSDictionaryC2EPK11OSMetaClass
ffffff8000841050 T __ZN12OSDictionaryC2Ev
ffffff800083f5b0 T __ZN12OSDictionaryD0Ev
ffffff800083f5a0 T __ZN12OSDictionaryD1Ev
ffffff8000840fc0 T __ZN12OSDictionaryD2Ev
ffffff8000abdd70 S __ZN12OSOrderedSet10gMetaClassE
ffffff8000856510 T __ZN12OSOrderedSet10setOptionsEjjPv
ffffff8000a0fe78 S __ZN12OSOrderedSet10superClassE
ffffff8000856a80 T __ZN12OSOrderedSet11orderObjectEPK15OSMetaClassBase
ffffff8000856900 T __ZN12OSOrderedSet12removeObjectEPK15OSMetaClassBase
ffffff8000857400 T __ZN12OSOrderedSet12withCapacityEjPFiPK15OSMetaClassBaseS2_PvES3_
ffffff80008568e0 T __ZN12OSOrderedSet13setLastObjectEPK15OSMetaClassBase
ffffff80008565c0 T __ZN12OSOrderedSet14copyCollectionEP12OSDictionary
ffffff80008563d0 T __ZN12OSOrderedSet14ensureCapacityEj
ffffff8000856c60 T __ZN12OSOrderedSet14getOrderingRefEv
ffffff80008568c0 T __ZN12OSOrderedSet14setFirstObjectEPK15OSMetaClassBase
ffffff8000856490 T __ZN12OSOrderedSet15flushCollectionEv
ffffff80008567b0 T __ZN12OSOrderedSet16initWithCapacityEjPFiPK15OSMetaClassBaseS2_PvES3_
ffffff80008563b0 T __ZN12OSOrderedSet20setCapacityIncrementEj
ffffff8000856d00 T __ZN12OSOrderedSet22_RESERVEDOSOrderedSet0Ev
ffffff8000856d30 T __ZN12OSOrderedSet22_RESERVEDOSOrderedSet1Ev
ffffff8000856d60 T __ZN12OSOrderedSet22_RESERVEDOSOrderedSet2Ev
ffffff8000856d90 T __ZN12OSOrderedSet22_RESERVEDOSOrderedSet3Ev
ffffff8000856dc0 T __ZN12OSOrderedSet22_RESERVEDOSOrderedSet4Ev
ffffff8000856df0 T __ZN12OSOrderedSet22_RESERVEDOSOrderedSet5Ev
ffffff8000856e20 T __ZN12OSOrderedSet22_RESERVEDOSOrderedSet6Ev
ffffff8000856e50 T __ZN12OSOrderedSet22_RESERVEDOSOrderedSet7Ev
ffffff80008562d0 T __ZN12OSOrderedSet4freeEv
ffffff80008572b0 T __ZN12OSOrderedSet9MetaClassC1Ev
ffffff8000857340 T __ZN12OSOrderedSet9MetaClassC2Ev
ffffff8000a0fe70 S __ZN12OSOrderedSet9metaClassE
ffffff8000856850 T __ZN12OSOrderedSet9setObjectEPK15OSMetaClassBase
ffffff8000856aa0 T __ZN12OSOrderedSet9setObjectEjPK15OSMetaClassBase
ffffff8000857310 T __ZN12OSOrderedSetC1EPK11OSMetaClass
ffffff8000857380 T __ZN12OSOrderedSetC1Ev
ffffff80008572f0 T __ZN12OSOrderedSetC2EPK11OSMetaClass
ffffff80008573c0 T __ZN12OSOrderedSetC2Ev
ffffff8000856220 T __ZN12OSOrderedSetD0Ev
ffffff8000856210 T __ZN12OSOrderedSetD1Ev
ffffff8000857330 T __ZN12OSOrderedSetD2Ev
ffffff8000abddc0 S __ZN12OSSerializer10gMetaClassE
ffffff8000a103b8 S __ZN12OSSerializer10superClassE
ffffff8000859540 T __ZN12OSSerializer9MetaClassC1Ev
ffffff80008595d0 T __ZN12OSSerializer9MetaClassC2Ev
ffffff8000859690 T __ZN12OSSerializer9forTargetEPvPFbS0_S0_P11OSSerializeES0_
ffffff8000a103c0 S __ZN12OSSerializer9metaClassE
ffffff80008595a0 T __ZN12OSSerializerC1EPK11OSMetaClass
ffffff8000859610 T __ZN12OSSerializerC1Ev
ffffff8000859580 T __ZN12OSSerializerC2EPK11OSMetaClass
ffffff8000859650 T __ZN12OSSerializerC2Ev
ffffff8000858d80 T __ZN12OSSerializerD0Ev
ffffff8000858d70 T __ZN12OSSerializerD1Ev
ffffff80008595c0 T __ZN12OSSerializerD2Ev
ffffff800085c360 T __ZN12OSSymbolPool12insertSymbolEP8OSSymbol
ffffff800085beb0 T __ZN12OSSymbolPool12removeSymbolEP8OSSymbol
ffffff800085cd80 T __ZN12OSSymbolPool13initHashStateEv
ffffff800085cd90 T __ZN12OSSymbolPool13nextHashStateEP17OSSymbolPoolState
ffffff800085c210 T __ZN12OSSymbolPool18reconstructSymbolsEb
ffffff800085ce00 T __ZN12OSSymbolPool18reconstructSymbolsEv
ffffff800085c990 T __ZN12OSSymbolPool4initEv
ffffff800085cc50 T __ZN12OSSymbolPool4log2Ej
ffffff800085cc30 T __ZN12OSSymbolPool6exp2mlEj
ffffff800085cca0 T __ZN12OSSymbolPoolC1EPKS_
ffffff800085cc70 T __ZN12OSSymbolPoolC2EPKS_
ffffff800085bad0 T __ZN12OSSymbolPoolD0Ev
ffffff800085ba20 T __ZN12OSSymbolPoolD1Ev
ffffff800085ccd0 T __ZN12OSSymbolPoolD2Ev
ffffff800085cc10 T __ZN12OSSymbolPooldlEPvm
ffffff800085cbb0 T __ZN12OSSymbolPoolnwEm
ffffff8000abf078 S __ZN12PMHaltWorker10gMetaClassE
ffffff8000a27b40 S __ZN12PMHaltWorker10superClassE
ffffff800090b9f0 T __ZN12PMHaltWorker12checkTimeoutEPS_Py
ffffff800090abb0 T __ZN12PMHaltWorker14__OSFinalClassEv
ffffff80008fd920 T __ZN12PMHaltWorker4freeEv
ffffff800090bb10 T __ZN12PMHaltWorker4mainEPvi
ffffff800090bca0 T __ZN12PMHaltWorker4workEPS_
ffffff800090b920 T __ZN12PMHaltWorker6workerEv
ffffff800090aa60 T __ZN12PMHaltWorker9MetaClassC1Ev
ffffff800090aaf0 T __ZN12PMHaltWorker9MetaClassC2Ev
ffffff8000a27b48 S __ZN12PMHaltWorker9metaClassE
ffffff800090aac0 T __ZN12PMHaltWorkerC1EPK11OSMetaClass
ffffff800090ab30 T __ZN12PMHaltWorkerC1Ev
ffffff800090aaa0 T __ZN12PMHaltWorkerC2EPK11OSMetaClass
ffffff800090ab70 T __ZN12PMHaltWorkerC2Ev
ffffff80008fd8d0 T __ZN12PMHaltWorkerD0Ev
ffffff80008fd8c0 T __ZN12PMHaltWorkerD1Ev
ffffff800090aae0 T __ZN12PMHaltWorkerD2Ev
ffffff8000abe608 S __ZN13IOCommandGate10gMetaClassE
ffffff80008ba240 T __ZN13IOCommandGate10runCommandEPvS0_S0_S0_
ffffff8000a17250 S __ZN13IOCommandGate10superClassE
ffffff80008bafd0 T __ZN13IOCommandGate11commandGateEP8OSObjectPFiS1_PvS2_S2_S2_E
ffffff80008ba050 T __ZN13IOCommandGate11setWorkLoopEP10IOWorkLoop
ffffff80008ba810 T __ZN13IOCommandGate12commandSleepEPvj
ffffff80008ba880 T __ZN13IOCommandGate12commandSleepEPvyj
ffffff80008ba5b0 T __ZN13IOCommandGate13attemptActionEPFiP8OSObjectPvS2_S2_S2_ES2_S2_S2_S2_
ffffff80008ba860 T __ZN13IOCommandGate13commandWakeupEPvb
ffffff80008ba580 T __ZN13IOCommandGate14attemptCommandEPvS0_S0_S0_
ffffff80008ba8d0 T __ZN13IOCommandGate23_RESERVEDIOCommandGate0Ev
ffffff80008ba900 T __ZN13IOCommandGate23_RESERVEDIOCommandGate1Ev
ffffff80008ba930 T __ZN13IOCommandGate23_RESERVEDIOCommandGate2Ev
ffffff80008ba960 T __ZN13IOCommandGate23_RESERVEDIOCommandGate3Ev
ffffff80008ba990 T __ZN13IOCommandGate23_RESERVEDIOCommandGate4Ev
ffffff80008ba9c0 T __ZN13IOCommandGate23_RESERVEDIOCommandGate5Ev
ffffff80008ba9f0 T __ZN13IOCommandGate23_RESERVEDIOCommandGate6Ev
ffffff80008baa20 T __ZN13IOCommandGate23_RESERVEDIOCommandGate7Ev
ffffff80008ba020 T __ZN13IOCommandGate4freeEv
ffffff80008ba210 T __ZN13IOCommandGate4initEP8OSObjectPFiS1_PvS2_S2_S2_E
ffffff80008ba120 T __ZN13IOCommandGate6enableEv
ffffff80008ba1d0 T __ZN13IOCommandGate7disableEv
ffffff80008bae80 T __ZN13IOCommandGate9MetaClassC1Ev
ffffff80008baf10 T __ZN13IOCommandGate9MetaClassC2Ev
ffffff8000a17248 S __ZN13IOCommandGate9metaClassE
ffffff80008ba270 T __ZN13IOCommandGate9runActionEPFiP8OSObjectPvS2_S2_S2_ES2_S2_S2_S2_
ffffff80008baee0 T __ZN13IOCommandGateC1EPK11OSMetaClass
ffffff80008baf50 T __ZN13IOCommandGateC1Ev
ffffff80008baec0 T __ZN13IOCommandGateC2EPK11OSMetaClass
ffffff80008baf90 T __ZN13IOCommandGateC2Ev
ffffff80008b9fd0 T __ZN13IOCommandGateD0Ev
ffffff80008b9fc0 T __ZN13IOCommandGateD1Ev
ffffff80008baf00 T __ZN13IOCommandGateD2Ev
ffffff8000abe658 S __ZN13IOCommandPool10gMetaClassE
ffffff80008bb7b0 T __ZN13IOCommandPool10getCommandEb
ffffff8000a177c0 S __ZN13IOCommandPool10superClassE
ffffff80008bc0a0 T __ZN13IOCommandPool11commandPoolEP9IOServiceP10IOWorkLoopj
ffffff80008bc020 T __ZN13IOCommandPool12withWorkLoopEP10IOWorkLoop
ffffff80008bb800 T __ZN13IOCommandPool13returnCommandEP9IOCommand
ffffff80008bb830 T __ZN13IOCommandPool15gatedGetCommandEPP9IOCommandb
ffffff80008bb730 T __ZN13IOCommandPool16initWithWorkLoopEP10IOWorkLoop
ffffff80008bb8c0 T __ZN13IOCommandPool18gatedReturnCommandEP9IOCommand
ffffff80008bb920 T __ZN13IOCommandPool23_RESERVEDIOCommandPool0Ev
ffffff80008bb950 T __ZN13IOCommandPool23_RESERVEDIOCommandPool1Ev
ffffff80008bb980 T __ZN13IOCommandPool23_RESERVEDIOCommandPool2Ev
ffffff80008bb9b0 T __ZN13IOCommandPool23_RESERVEDIOCommandPool3Ev
ffffff80008bb9e0 T __ZN13IOCommandPool23_RESERVEDIOCommandPool4Ev
ffffff80008bba10 T __ZN13IOCommandPool23_RESERVEDIOCommandPool5Ev
ffffff80008bba40 T __ZN13IOCommandPool23_RESERVEDIOCommandPool6Ev
ffffff80008bba70 T __ZN13IOCommandPool23_RESERVEDIOCommandPool7Ev
ffffff80008bb6c0 T __ZN13IOCommandPool4freeEv
ffffff80008bb790 T __ZN13IOCommandPool4initEP9IOServiceP10IOWorkLoopj
ffffff80008bbed0 T __ZN13IOCommandPool9MetaClassC1Ev
ffffff80008bbf60 T __ZN13IOCommandPool9MetaClassC2Ev
ffffff8000a177b8 S __ZN13IOCommandPool9metaClassE
ffffff80008bbf30 T __ZN13IOCommandPoolC1EPK11OSMetaClass
ffffff80008bbfa0 T __ZN13IOCommandPoolC1Ev
ffffff80008bbf10 T __ZN13IOCommandPoolC2EPK11OSMetaClass
ffffff80008bbfe0 T __ZN13IOCommandPoolC2Ev
ffffff80008bb670 T __ZN13IOCommandPoolD0Ev
ffffff80008bb660 T __ZN13IOCommandPoolD1Ev
ffffff80008bbf50 T __ZN13IOCommandPoolD2Ev
ffffff8000abe5b8 S __ZN13IOEventSource10gMetaClassE
ffffff8000a16c48 S __ZN13IOEventSource10superClassE
ffffff80008b8d60 T __ZN13IOEventSource10wakeupGateEPvb
ffffff80008b8440 T __ZN13IOEventSource11setWorkLoopEP10IOWorkLoop
ffffff80008b8430 T __ZN13IOEventSource12checkForWorkEv
ffffff80008b8c00 T __ZN13IOEventSource12tryCloseGateEv
ffffff80008b8b60 T __ZN13IOEventSource19signalWorkAvailableEv
ffffff80008b8520 T __ZN13IOEventSource23_RESERVEDIOEventSource0Ev
ffffff80008b8550 T __ZN13IOEventSource23_RESERVEDIOEventSource1Ev
ffffff80008b8580 T __ZN13IOEventSource23_RESERVEDIOEventSource2Ev
ffffff80008b85b0 T __ZN13IOEventSource23_RESERVEDIOEventSource3Ev
ffffff80008b85e0 T __ZN13IOEventSource23_RESERVEDIOEventSource4Ev
ffffff80008b8610 T __ZN13IOEventSource23_RESERVEDIOEventSource5Ev
ffffff80008b8640 T __ZN13IOEventSource23_RESERVEDIOEventSource6Ev
ffffff80008b8670 T __ZN13IOEventSource23_RESERVEDIOEventSource7Ev
ffffff80008b8360 T __ZN13IOEventSource4freeEv
ffffff80008b83c0 T __ZN13IOEventSource4initEP8OSObjectPFvS1_zE
ffffff80008b84b0 T __ZN13IOEventSource6enableEv
ffffff80008b84d0 T __ZN13IOEventSource7disableEv
ffffff80008b8470 T __ZN13IOEventSource7setNextEPS_
ffffff80008b8b80 T __ZN13IOEventSource8openGateEv
ffffff80008b8a90 T __ZN13IOEventSource9MetaClassC1Ev
ffffff80008b8b20 T __ZN13IOEventSource9MetaClassC2Ev
ffffff80008b8bc0 T __ZN13IOEventSource9closeGateEv
ffffff8000a16c40 S __ZN13IOEventSource9metaClassE
ffffff80008b8490 T __ZN13IOEventSource9setActionEPFvP8OSObjectzE
ffffff80008b8c50 T __ZN13IOEventSource9sleepGateEPvj
ffffff80008b8cd0 T __ZN13IOEventSource9sleepGateEPvyj
ffffff80008b8af0 T __ZN13IOEventSourceC1EPK11OSMetaClass
ffffff80008b8ad0 T __ZN13IOEventSourceC2EPK11OSMetaClass
ffffff80008b8310 T __ZN13IOEventSourceD0Ev
ffffff80008b8300 T __ZN13IOEventSourceD1Ev
ffffff80008b8b10 T __ZN13IOEventSourceD2Ev
ffffff8000abe3d8 S __ZN13IOPMWorkQueue10gMetaClassE
ffffff8000a14318 S __ZN13IOPMWorkQueue10superClassE
ffffff800089e1e0 T __ZN13IOPMWorkQueue12checkForWorkEv
ffffff80008a9e10 T __ZN13IOPMWorkQueue14queuePMRequestEP11IOPMRequestP11IOServicePM
ffffff800089e390 T __ZN13IOPMWorkQueue17checkRequestQueueEP11queue_entryPb
ffffff80008ac970 T __ZN13IOPMWorkQueue19signalWorkAvailableEv
ffffff80008ae750 T __ZN13IOPMWorkQueue20attachQuiesceRequestEP11IOPMRequest
ffffff80008ae2b0 T __ZN13IOPMWorkQueue20finishQuiesceRequestEP11IOPMRequest
ffffff80008ab160 T __ZN13IOPMWorkQueue22incrementProducerCountEv
ffffff800089e320 T __ZN13IOPMWorkQueue4initEP9IOServicePFbS1_P11IOPMRequestPS_ES6_
ffffff80008a9fe0 T __ZN13IOPMWorkQueue6createEP9IOServicePFbS1_P11IOPMRequestPS_ES6_
ffffff80008ae600 T __ZN13IOPMWorkQueue9MetaClassC1Ev
ffffff80008ae690 T __ZN13IOPMWorkQueue9MetaClassC2Ev
ffffff8000a14320 S __ZN13IOPMWorkQueue9metaClassE
ffffff80008ae660 T __ZN13IOPMWorkQueueC1EPK11OSMetaClass
ffffff80008ae6d0 T __ZN13IOPMWorkQueueC1Ev
ffffff80008ae640 T __ZN13IOPMWorkQueueC2EPK11OSMetaClass
ffffff80008ae710 T __ZN13IOPMWorkQueueC2Ev
ffffff800089e190 T __ZN13IOPMWorkQueueD0Ev
ffffff800089e180 T __ZN13IOPMWorkQueueD1Ev
ffffff80008ae680 T __ZN13IOPMWorkQueueD2Ev
ffffff8000abf000 S __ZN13PMTraceWorker10gMetaClassE
ffffff8000a27ab8 S __ZN13PMTraceWorker10superClassE
ffffff800090f970 T __ZN13PMTraceWorker10tracePointEh
ffffff800090f9f0 T __ZN13PMTraceWorker10tracePointEhh
ffffff800090fb10 T __ZN13PMTraceWorker11traceDetailEj
ffffff800090fd20 T __ZN13PMTraceWorker15getPMStatusCodeEv
ffffff800090eb80 T __ZN13PMTraceWorker19tracePCIPowerChangeENS_8change_tEP9IOServicejj
ffffff800090c130 T __ZN13PMTraceWorker21traceLoginWindowPhaseEh
ffffff800090ea40 T __ZN13PMTraceWorker23recordTopLevelPCIDeviceEP9IOService
ffffff800090bf80 T __ZN13PMTraceWorker6tracerEP14IOPMrootDomain
ffffff800090fb90 T __ZN13PMTraceWorker9MetaClassC1Ev
ffffff800090fc20 T __ZN13PMTraceWorker9MetaClassC2Ev
ffffff800090fce0 T __ZN13PMTraceWorker9RTC_TRACEEv
ffffff8000a27ac0 S __ZN13PMTraceWorker9metaClassE
ffffff800090fbf0 T __ZN13PMTraceWorkerC1EPK11OSMetaClass
ffffff800090fc60 T __ZN13PMTraceWorkerC1Ev
ffffff800090fbd0 T __ZN13PMTraceWorkerC2EPK11OSMetaClass
ffffff800090fca0 T __ZN13PMTraceWorkerC2Ev
ffffff8000908bd0 T __ZN13PMTraceWorkerD0Ev
ffffff8000908bc0 T __ZN13PMTraceWorkerD1Ev
ffffff800090fc10 T __ZN13PMTraceWorkerD2Ev
ffffff8000abe290 S __ZN13_IOServiceJob10gMetaClassE
ffffff8000897b40 T __ZN13_IOServiceJob10pingConfigEPS_
ffffff8000a12a20 S __ZN13_IOServiceJob10superClassE
ffffff8000896170 T __ZN13_IOServiceJob8startJobEP9IOServiceij
ffffff800089b380 T __ZN13_IOServiceJob9MetaClassC1Ev
ffffff800089b410 T __ZN13_IOServiceJob9MetaClassC2Ev
ffffff8000a12a28 S __ZN13_IOServiceJob9metaClassE
ffffff800089b3e0 T __ZN13_IOServiceJobC1EPK11OSMetaClass
ffffff800089b450 T __ZN13_IOServiceJobC1Ev
ffffff800089b3c0 T __ZN13_IOServiceJobC2EPK11OSMetaClass
ffffff800089b490 T __ZN13_IOServiceJobC2Ev
ffffff8000897fd0 T __ZN13_IOServiceJobD0Ev
ffffff8000897fc0 T __ZN13_IOServiceJobD1Ev
ffffff800089b400 T __ZN13_IOServiceJobD2Ev
ffffff80008c27a0 T __ZN14IODeviceMemory12withSubRangeEPS_yy
ffffff80008c27b0 T __ZN14IODeviceMemory13arrayFromListEPNS_11InitElementEj
ffffff80008c2780 T __ZN14IODeviceMemory9withRangeEyy
ffffff8000abe798 S __ZN14IOMemoryCursor10gMetaClassE
ffffff8000a198f8 S __ZN14IOMemoryCursor10superClassE
ffffff80008c5f20 T __ZN14IOMemoryCursor17withSpecificationEPFvNS_15PhysicalSegmentEPvjEyyy
ffffff80008c4800 T __ZN14IOMemoryCursor19genPhysicalSegmentsEP18IOMemoryDescriptoryPvjjPy
ffffff80008c4750 T __ZN14IOMemoryCursor21initWithSpecificationEPFvNS_15PhysicalSegmentEPvjEyyy
ffffff80008c5dd0 T __ZN14IOMemoryCursor9MetaClassC1Ev
ffffff80008c5e60 T __ZN14IOMemoryCursor9MetaClassC2Ev
ffffff8000a198f0 S __ZN14IOMemoryCursor9metaClassE
ffffff80008c5e30 T __ZN14IOMemoryCursorC1EPK11OSMetaClass
ffffff80008c5ea0 T __ZN14IOMemoryCursorC1Ev
ffffff80008c5e10 T __ZN14IOMemoryCursorC2EPK11OSMetaClass
ffffff80008c5ee0 T __ZN14IOMemoryCursorC2Ev
ffffff80008c4700 T __ZN14IOMemoryCursorD0Ev
ffffff80008c46f0 T __ZN14IOMemoryCursorD1Ev
ffffff80008c5e50 T __ZN14IOMemoryCursorD2Ev
ffffff8000abf050 S __ZN14IOPMrootDomain10gMetaClassE
ffffff8000a27b30 S __ZN14IOPMrootDomain10superClassE
ffffff8000903a80 T __ZN14IOPMrootDomain10tracePointEh
ffffff800090ec40 T __ZN14IOPMrootDomain10tracePointEhh
ffffff8000900de0 T __ZN14IOPMrootDomain11sleepSystemEv
ffffff800090fa80 T __ZN14IOPMrootDomain11traceDetailEj
ffffff8000907e10 T __ZN14IOPMrootDomain12setPMSettingEPK8OSSymbolP8OSObject
ffffff8000900240 T __ZN14IOPMrootDomain12tellChangeUpEm
ffffff80008fedd0 T __ZN14IOPMrootDomain12updateReportEP19IOReportChannelListjPvS2_
ffffff800090d110 T __ZN14IOPMrootDomain12wakeFromDozeEv
ffffff80009000b0 T __ZN14IOPMrootDomain13askChangeDownEm
ffffff800090d1b0 T __ZN14IOPMrootDomain13copyPMSettingEP8OSSymbol
ffffff800090add0 T __ZN14IOPMrootDomain13restartSystemEv
ffffff80008fe180 T __ZN14IOPMrootDomain13setPropertiesEP8OSObject
ffffff8000910b20 T __ZN14IOPMrootDomain13takeStackshotEbbb
ffffff800090ad10 T __ZN14IOPMrootDomain14__OSFinalClassEv
ffffff80009017b0 T __ZN14IOPMrootDomain14evaluatePolicyEij
ffffff80009037c0 T __ZN14IOPMrootDomain14getSleepOptionEPKcPj
ffffff800090c110 T __ZN14IOPMrootDomain14publishFeatureEPKc
ffffff80009046c0 T __ZN14IOPMrootDomain14publishFeatureEPKcjPj
ffffff800090adf0 T __ZN14IOPMrootDomain14shutdownSystemEv
ffffff8000900110 T __ZN14IOPMrootDomain14tellChangeDownEm
ffffff80008fecc0 T __ZN14IOPMrootDomain15configureReportEP19IOReportChannelListjPvS2_
ffffff8000900320 T __ZN14IOPMrootDomain15powerChangeDoneEm
ffffff800090c730 T __ZN14IOPMrootDomain15reportUserInputEv
ffffff8000901560 T __ZN14IOPMrootDomain15requestFullWakeENS_14FullWakeReasonE
ffffff8000902f40 T __ZN14IOPMrootDomain15setThermalStateEP8OSObject
ffffff800090ccd0 T __ZN14IOPMrootDomain16abortHibernationEv
ffffff80009025b0 T __ZN14IOPMrootDomain16adjustPowerStateEb
ffffff800090f4b0 T __ZN14IOPMrootDomain16batteryPublishedEPvS0_P9IOServiceP10IONotifier
ffffff800090d120 T __ZN14IOPMrootDomain16publishPMSettingEPK8OSSymboljPj
ffffff80008ffd60 T __ZN14IOPMrootDomain16registerInterestEPK8OSSymbolPFiPvS3_jP9IOServiceS3_mES3_S3_
ffffff80009001e0 T __ZN14IOPMrootDomain16tellNoChangeDownEm
ffffff800090caa0 T __ZN14IOPMrootDomain17askChangeDownDoneEPjPb
ffffff800090fe00 T __ZN14IOPMrootDomain17createPMAssertionEyjP9IOServicePKc
ffffff80008fff20 T __ZN14IOPMrootDomain17getAggressivenessEmPm
ffffff8000900ed0 T __ZN14IOPMrootDomain17getSleepSupportedEv
ffffff80008fff10 T __ZN14IOPMrootDomain17setAggressivenessEmm
ffffff8000902270 T __ZN14IOPMrootDomain17setAggressivenessEmmj
ffffff800090f490 T __ZN14IOPMrootDomain17setDisplayPowerOnEj
ffffff8000900e90 T __ZN14IOPMrootDomain17setSleepSupportedEj
ffffff8000903910 T __ZN14IOPMrootDomain17systemDidNotSleepEv
ffffff8000907b30 T __ZN14IOPMrootDomain17updateReportGatedEyPvP24IOBufferMemoryDescriptor
ffffff80009016a0 T __ZN14IOPMrootDomain17willEnterFullWakeEv
ffffff800090ccb0 T __ZN14IOPMrootDomain18activitySinceSleepEv
ffffff8000900ee0 T __ZN14IOPMrootDomain18changePowerStateToEm
ffffff8000903e60 T __ZN14IOPMrootDomain18dispatchPowerEventEjPvy
ffffff8000906860 T __ZN14IOPMrootDomain18evaluateAssertionsEyy
ffffff800090d6d0 T __ZN14IOPMrootDomain18getSystemSleepTypeEPj
ffffff80009026b0 T __ZN14IOPMrootDomain18getTimeToIdleSleepEv
ffffff800090c1a0 T __ZN14IOPMrootDomain18joinAggressivenessEP9IOService
ffffff800090f4e0 T __ZN14IOPMrootDomain18pmStatsRecordEventEiy
ffffff800090c550 T __ZN14IOPMrootDomain18privateSleepSystemEj
ffffff800090ff20 T __ZN14IOPMrootDomain18releasePMAssertionEy
ffffff800090c350 T __ZN14IOPMrootDomain18sleepSystemOptionsEP12OSDictionary
ffffff80009112e0 T __ZN14IOPMrootDomain18sleepWakeDebugTrigEb
ffffff800090bf40 T __ZN14IOPMrootDomain18updateConsoleUsersEv
ffffff800090cb70 T __ZN14IOPMrootDomain19checkSystemCanSleepEj
ffffff8000903d70 T __ZN14IOPMrootDomain19fullWakeDelayedWorkEv
ffffff800090d600 T __ZN14IOPMrootDomain19getPMAssertionLevelEy
ffffff800090ffa0 T __ZN14IOPMrootDomain19setPMAssertionLevelEyj
ffffff8000902750 T __ZN14IOPMrootDomain19startIdleSleepTimerEj
ffffff8000904300 T __ZN14IOPMrootDomain19sysPowerDownHandlerEPvS0_jP9IOServiceS0_m
ffffff800090eed0 T __ZN14IOPMrootDomain19systemMessageFilterEPvS0_S0_S0_
ffffff8000902dc0 T __ZN14IOPMrootDomain20broadcastAggressivesEPK17AggressivesRecordi
ffffff80008ffbc0 T __ZN14IOPMrootDomain20callPlatformFunctionEPK8OSSymbolbPvS3_S3_S3_
ffffff8000900f80 T __ZN14IOPMrootDomain20cancelIdleSleepTimerEv
ffffff80009101d0 T __ZN14IOPMrootDomain20claimSystemWakeEventEP9IOServicejPKcP8OSObject
ffffff8000907c20 T __ZN14IOPMrootDomain20configureReportGatedEyyPv
ffffff8000910140 T __ZN14IOPMrootDomain20copyWakeReasonStringEPcm
ffffff800090d630 T __ZN14IOPMrootDomain20getHibernateSettingsEPjS0_S0_
ffffff8000901480 T __ZN14IOPMrootDomain20handleDisplayPowerOnEv
ffffff8000907730 T __ZN14IOPMrootDomain20informCPUStateChangeEjj
ffffff8000910af0 T __ZN14IOPMrootDomain20restartWithStackshotEv
ffffff800090d790 T __ZN14IOPMrootDomain20tagPowerPlaneServiceEP9IOServiceP11IOPMActions
ffffff80009045c0 T __ZN14IOPMrootDomain21IONVRAMMatchPublishedEPvS0_P9IOServiceP10IONotifier
ffffff800090c650 T __ZN14IOPMrootDomain22acceptSystemWakeEventsEb
ffffff8000900f30 T __ZN14IOPMrootDomain22changePowerStateToPrivEm
ffffff8000906c20 T __ZN14IOPMrootDomain22checkForValidDebugDataEPKcPP11vfs_contextPvPP5vnode
ffffff800090e400 T __ZN14IOPMrootDomain22overrideOurPowerChangeEP9IOServiceP11IOPMActionsPmPjj
ffffff80009094f0 T __ZN14IOPMrootDomain22removePublishedFeatureEj
ffffff8000906ed0 T __ZN14IOPMrootDomain22sleepWakeDebugCopyFileEP5vnodeP11vfs_contextPcyyPKcyj
ffffff80009111d0 T __ZN14IOPMrootDomain22sleepWakeDebugMemAllocEv
ffffff8000904910 T __ZN14IOPMrootDomain22sleepWakeDebugRetrieveEv
ffffff8000907480 T __ZN14IOPMrootDomain22sleepWakeDebugSaveFileEPKcPci
ffffff8000902c90 T __ZN14IOPMrootDomain22synchronizeAggressivesEP11queue_entryPK17AggressivesRecordi
ffffff80009023d0 T __ZN14IOPMrootDomain23checkSystemSleepAllowedEjj
ffffff800090c5e0 T __ZN14IOPMrootDomain23checkSystemSleepEnabledEv
ffffff8000908430 T __ZN14IOPMrootDomain23copySleepPreventersListEPP7OSArrayS2_
ffffff8000905000 T __ZN14IOPMrootDomain23handlePowerNotificationEj
ffffff80008fff00 T __ZN14IOPMrootDomain23requestPowerDomainStateEmP17IOPowerConnectionm
ffffff800090c2b0 T __ZN14IOPMrootDomain23setQuickSpinDownTimeoutEv
ffffff800090ce70 T __ZN14IOPMrootDomain23willNotifyPowerChildrenEm
ffffff800090dfc0 T __ZN14IOPMrootDomain24handleOurPowerChangeDoneEP9IOServiceP11IOPMActionsmjj
ffffff80009064b0 T __ZN14IOPMrootDomain24handleQueueSleepWakeUUIDEP8OSObject
ffffff8000900e70 T __ZN14IOPMrootDomain24receivePowerNotificationEj
ffffff800090d020 T __ZN14IOPMrootDomain24setDisableClamShellSleepEb
ffffff8000910020 T __ZN14IOPMrootDomain24setPMAssertionUserLevelsEy
ffffff8000911300 T __ZN14IOPMrootDomain24sleepWakeDebugEnableWdogEv
ffffff8000901260 T __ZN14IOPMrootDomain24systemPowerEventOccurredEPK8OSSymbolP8OSObject
ffffff800090c6d0 T __ZN14IOPMrootDomain24systemPowerEventOccurredEPK8OSSymbolj
ffffff8000908fe0 T __ZN14IOPMrootDomain25deregisterPMSettingObjectEP15PMSettingObject
ffffff8000903040 T __ZN14IOPMrootDomain25evaluateSystemSleepPolicyEP25IOPMSystemSleepParametersiPj
ffffff8000902830 T __ZN14IOPMrootDomain25handleAggressivesRequestsEv
ffffff800090dad0 T __ZN14IOPMrootDomain25handleOurPowerChangeStartEP9IOServiceP11IOPMActionsmPjj
ffffff800090aea0 T __ZN14IOPMrootDomain25handlePlatformHaltRestartEj
ffffff800090c030 T __ZN14IOPMrootDomain25initializeBootSessionUUIDEv
ffffff8000905880 T __ZN14IOPMrootDomain25sleepWakeDebugDumpFromMemEP11IOMemoryMap
ffffff80009065f0 T __ZN14IOPMrootDomain26handlePublishSleepWakeUUIDEb
ffffff8000907a40 T __ZN14IOPMrootDomain26handleSleepTimerExpirationEv
ffffff800090f310 T __ZN14IOPMrootDomain26latchDisplayWranglerTickleEb
ffffff800090c300 T __ZN14IOPMrootDomain26restoreUserSpinDownTimeoutEv
ffffff800090f230 T __ZN14IOPMrootDomain26setMaintenanceWakeCalendarEPK18IOPMCalendarStruct
ffffff8000905a90 T __ZN14IOPMrootDomain26sleepWakeDebugDumpFromFileEv
ffffff8000906a10 T __ZN14IOPMrootDomain26updatePreventIdleSleepListEP9IOServiceb
ffffff8000904c70 T __ZN14IOPMrootDomain27displayWranglerNotificationEPvS0_jP9IOServiceS0_m
ffffff800090d220 T __ZN14IOPMrootDomain27registerPMSettingControllerEPPK8OSSymbolPFiP8OSObjectS2_S5_mES5_mPS5_
ffffff800090d250 T __ZN14IOPMrootDomain27registerPMSettingControllerEPPK8OSSymboljPFiP8OSObjectS2_S5_mES5_mPS5_
ffffff800090cc80 T __ZN14IOPMrootDomain27sleepWakeDebugIsWdogEnabledEv
ffffff800090ed10 T __ZN14IOPMrootDomain28shouldDelayChildNotificationEP9IOService
ffffff800090cf70 T __ZN14IOPMrootDomain28shouldSleepOnClamshellClosedEv
ffffff800090c840 T __ZN14IOPMrootDomain28updatePreventSystemSleepListEP9IOServiceb
ffffff800090fd60 T __ZN14IOPMrootDomain29acknowledgeSystemWillShutdownEP9IOService
ffffff800090c7d0 T __ZN14IOPMrootDomain29checkSystemCanSustainFullWakeEv
ffffff8000904590 T __ZN14IOPMrootDomain29displayWranglerMatchPublishedEPvS0_P9IOServiceP10IONotifier
ffffff800090cbc0 T __ZN14IOPMrootDomain29preventTransitionToUserActiveEb
ffffff8000904dd0 T __ZN14IOPMrootDomain30evaluateSystemSleepPolicyEarlyEv
ffffff80009010d0 T __ZN14IOPMrootDomain30evaluateSystemSleepPolicyFinalEv
ffffff8000911320 T __ZN14IOPMrootDomain30sleepWakeDebugSaveSpinDumpFileEv
ffffff8000911120 T __ZN14IOPMrootDomain30sleepWakeDebugSpinDumpMemAllocEv
ffffff800090e480 T __ZN14IOPMrootDomain31overridePowerChangeForUIServiceEP9IOServiceP11IOPMActionsPmPj
ffffff8000907840 T __ZN14IOPMrootDomain31sendClientClamshellNotificationEv
ffffff800090f620 T __ZN14IOPMrootDomain32pmStatsRecordApplicationResponseEPK8OSSymbolPKcijiP8OSObjectm
ffffff800090eb60 T __ZN14IOPMrootDomain33handlePowerChangeDoneForPCIDeviceEP9IOServiceP11IOPMActionsmj
ffffff800090eb40 T __ZN14IOPMrootDomain34handlePowerChangeStartForPCIDeviceEP9IOServiceP11IOPMActionsmPj
ffffff800090e890 T __ZN14IOPMrootDomain38handleActivityTickleForDisplayWranglerEP9IOServiceP11IOPMActions
ffffff800090e970 T __ZN14IOPMrootDomain41handleUpdatePowerClientForDisplayWranglerEP9IOServiceP11IOPMActionsPK8OSSymbolmm
ffffff80008fefd0 T __ZN14IOPMrootDomain5startEP9IOService
ffffff800090abc0 T __ZN14IOPMrootDomain9MetaClassC1Ev
ffffff800090ac50 T __ZN14IOPMrootDomain9MetaClassC2Ev
ffffff800090bed0 T __ZN14IOPMrootDomain9constructEv
ffffff8000a27b38 S __ZN14IOPMrootDomain9metaClassE
ffffff800090ac20 T __ZN14IOPMrootDomainC1EPK11OSMetaClass
ffffff800090ac90 T __ZN14IOPMrootDomainC1Ev
ffffff800090ac00 T __ZN14IOPMrootDomainC2EPK11OSMetaClass
ffffff800090acd0 T __ZN14IOPMrootDomainC2Ev
ffffff80008fdc70 T __ZN14IOPMrootDomainD0Ev
ffffff80008fdc60 T __ZN14IOPMrootDomainD1Ev
ffffff800090ac40 T __ZN14IOPMrootDomainD2Ev
ffffff8000abee10 S __ZN14IOReportLegend10gMetaClassE
ffffff8000a25780 S __ZN14IOReportLegend10superClassE
ffffff80008f80c0 T __ZN14IOReportLegend14addLegendEntryEP12OSDictionaryPKcS3_
ffffff80008f8270 T __ZN14IOReportLegend14organizeLegendEP12OSDictionaryPK8OSSymbolS4_
ffffff80008f81e0 T __ZN14IOReportLegend17addReporterLegendEP10IOReporterPKcS3_
ffffff80008f7f10 T __ZN14IOReportLegend17addReporterLegendEP9IOServiceP10IOReporterPKcS5_
ffffff80008f7880 T __ZN14IOReportLegend4freeEv
ffffff80008f7e40 T __ZN14IOReportLegend4withEP7OSArray
ffffff80008f7ec0 T __ZN14IOReportLegend8initWithEP7OSArray
ffffff80008f7cf0 T __ZN14IOReportLegend9MetaClassC1Ev
ffffff80008f7d80 T __ZN14IOReportLegend9MetaClassC2Ev
ffffff80008f7f00 T __ZN14IOReportLegend9getLegendEv
ffffff8000a25778 S __ZN14IOReportLegend9metaClassE
ffffff80008f7d50 T __ZN14IOReportLegendC1EPK11OSMetaClass
ffffff80008f7dc0 T __ZN14IOReportLegendC1Ev
ffffff80008f7d30 T __ZN14IOReportLegendC2EPK11OSMetaClass
ffffff80008f7e00 T __ZN14IOReportLegendC2Ev
ffffff80008f7830 T __ZN14IOReportLegendD0Ev
ffffff80008f7820 T __ZN14IOReportLegendD1Ev
ffffff80008f7d70 T __ZN14IOReportLegendD2Ev
ffffff8000abec08 S __ZN14IOUserIterator10gMetaClassE
ffffff8000a22678 S __ZN14IOUserIterator10superClassE
ffffff80008e27e0 T __ZN14IOUserIterator12withIteratorEP10OSIterator
ffffff80008de0c0 T __ZN14IOUserIterator13getNextObjectEv
ffffff80008ddff0 T __ZN14IOUserIterator4freeEv
ffffff80008ddfd0 T __ZN14IOUserIterator4initEv
ffffff80008de050 T __ZN14IOUserIterator5resetEv
ffffff80008de080 T __ZN14IOUserIterator7isValidEv
ffffff80008e2690 T __ZN14IOUserIterator9MetaClassC1Ev
ffffff80008e2720 T __ZN14IOUserIterator9MetaClassC2Ev
ffffff8000a22680 S __ZN14IOUserIterator9metaClassE
ffffff80008e26f0 T __ZN14IOUserIteratorC1EPK11OSMetaClass
ffffff80008e2760 T __ZN14IOUserIteratorC1Ev
ffffff80008e26d0 T __ZN14IOUserIteratorC2EPK11OSMetaClass
ffffff80008e27a0 T __ZN14IOUserIteratorC2Ev
ffffff80008ddf80 T __ZN14IOUserIteratorD0Ev
ffffff80008ddf70 T __ZN14IOUserIteratorD1Ev
ffffff80008e2710 T __ZN14IOUserIteratorD2Ev
ffffff8000abdee8 S __ZN15IOConditionLock10gMetaClassE
ffffff8000a111c8 S __ZN15IOConditionLock10superClassE
ffffff8000884900 T __ZN15IOConditionLock10unlockWithEi
ffffff8000884780 T __ZN15IOConditionLock12setConditionEi
ffffff8000884ed0 T __ZN15IOConditionLock13withConditionEib
ffffff8000884610 T __ZN15IOConditionLock17initWithConditionEib
ffffff80008845b0 T __ZN15IOConditionLock4freeEv
ffffff80008846a0 T __ZN15IOConditionLock4lockEv
ffffff8000884710 T __ZN15IOConditionLock6unlockEv
ffffff8000884660 T __ZN15IOConditionLock7tryLockEv
ffffff80008847b0 T __ZN15IOConditionLock8lockWhenEi
ffffff8000884d80 T __ZN15IOConditionLock9MetaClassC1Ev
ffffff8000884e10 T __ZN15IOConditionLock9MetaClassC2Ev
ffffff8000a111c0 S __ZN15IOConditionLock9metaClassE
ffffff8000884de0 T __ZN15IOConditionLockC1EPK11OSMetaClass
ffffff8000884e50 T __ZN15IOConditionLockC1Ev
ffffff8000884dc0 T __ZN15IOConditionLockC2EPK11OSMetaClass
ffffff8000884e90 T __ZN15IOConditionLockC2Ev
ffffff8000884560 T __ZN15IOConditionLockD0Ev
ffffff8000884550 T __ZN15IOConditionLockD1Ev
ffffff8000884e00 T __ZN15IOConditionLockD2Ev
ffffff8000abeac0 S __ZN15IODMAController10gMetaClassE
ffffff8000a20710 S __ZN15IODMAController10superClassE
ffffff80008dbd20 T __ZN15IODMAController13getControllerEP9IOServicej
ffffff80008db800 T __ZN15IODMAController16notifyDMACommandEP16IODMAEventSourceP12IODMACommandiyy
ffffff80008db7e0 T __ZN15IODMAController18completeDMACommandEP16IODMAEventSourceP12IODMACommand
ffffff80008dbcc0 T __ZN15IODMAController20createControllerNameEj
ffffff80008db6f0 T __ZN15IODMAController21registerDMAControllerEj
ffffff80008db6e0 T __ZN15IODMAController5startEP9IOService
ffffff80008dbc10 T __ZN15IODMAController9MetaClassC1Ev
ffffff80008dbc80 T __ZN15IODMAController9MetaClassC2Ev
ffffff8000a20708 S __ZN15IODMAController9metaClassE
ffffff80008dbc50 T __ZN15IODMAControllerC2EPK11OSMetaClass
ffffff80008db690 T __ZN15IODMAControllerD0Ev
ffffff80008db680 T __ZN15IODMAControllerD1Ev
ffffff80008dbc70 T __ZN15IODMAControllerD2Ev
ffffff80008b39d0 T __ZN15IOPMPowerSource10cycleCountEv
ffffff8000abe4f0 S __ZN15IOPMPowerSource10gMetaClassE
ffffff80008b35f0 T __ZN15IOPMPowerSource10isChargingEv
ffffff80008b3040 T __ZN15IOPMPowerSource10setVoltageEj
ffffff8000a158b8 S __ZN15IOPMPowerSource10superClassE
ffffff80008b3a40 T __ZN15IOPMPowerSource11adapterInfoEv
ffffff80008b3630 T __ZN15IOPMPowerSource11atWarnLevelEv
ffffff80008b3720 T __ZN15IOPMPowerSource11maxCapacityEv
ffffff80008b2950 T __ZN15IOPMPowerSource11powerSourceEv
ffffff80008b2fb0 T __ZN15IOPMPowerSource11setAmperageEi
ffffff80008b31f0 T __ZN15IOPMPowerSource11setLocationEi
ffffff80008b3b80 T __ZN15IOPMPowerSource12manufacturerEv
ffffff80008b22e0 T __ZN15IOPMPowerSource12updateStatusEv
ffffff80008b3500 T __ZN15IOPMPowerSource13getPSPropertyEPK8OSSymbol
ffffff80008b30d0 T __ZN15IOPMPowerSource13setCycleCountEj
ffffff80008b2c20 T __ZN15IOPMPowerSource13setIsChargingEb
ffffff80008b29c0 T __ZN15IOPMPowerSource13setPSPropertyEPK8OSSymbolP8OSObject
ffffff80008b3880 T __ZN15IOPMPowerSource13timeRemainingEv
ffffff80008b3b20 T __ZN15IOPMPowerSource14errorConditionEv
ffffff80008b3160 T __ZN15IOPMPowerSource14setAdapterInfoEi
ffffff80008b2cc0 T __ZN15IOPMPowerSource14setAtWarnLevelEb
ffffff80008b2e90 T __ZN15IOPMPowerSource14setMaxCapacityEj
ffffff80008b3670 T __ZN15IOPMPowerSource15atCriticalLevelEv
ffffff80008b36b0 T __ZN15IOPMPowerSource15currentCapacityEv
ffffff80008b3300 T __ZN15IOPMPowerSource15setManufacturerEP8OSSymbol
ffffff80008b35b0 T __ZN15IOPMPowerSource16batteryInstalledEv
ffffff80008b2f20 T __ZN15IOPMPowerSource16setTimeRemainingEi
ffffff80008b3530 T __ZN15IOPMPowerSource17externalConnectedEv
ffffff80008b3280 T __ZN15IOPMPowerSource17setErrorConditionEP8OSSymbol
ffffff80008b2d60 T __ZN15IOPMPowerSource18setAtCriticalLevelEb
ffffff80008b2e00 T __ZN15IOPMPowerSource18setCurrentCapacityEj
ffffff80008b3ca0 T __ZN15IOPMPowerSource19legacyIOBatteryInfoEv
ffffff80008b2b80 T __ZN15IOPMPowerSource19setBatteryInstalledEb
ffffff80008b2a40 T __ZN15IOPMPowerSource20setExternalConnectedEb
ffffff80008b3570 T __ZN15IOPMPowerSource21externalChargeCapableEv
ffffff80008b3480 T __ZN15IOPMPowerSource22setLegacyIOBatteryInfoEP12OSDictionary
ffffff80008b3790 T __ZN15IOPMPowerSource24capacityPercentRemainingEv
ffffff80008b2ae0 T __ZN15IOPMPowerSource24setExternalChargeCapableEb
ffffff80008b2160 T __ZN15IOPMPowerSource4freeEv
ffffff80008b1f90 T __ZN15IOPMPowerSource4initEv
ffffff80008b3be0 T __ZN15IOPMPowerSource5modelEv
ffffff80008b3c40 T __ZN15IOPMPowerSource6serialEv
ffffff80008b3960 T __ZN15IOPMPowerSource7voltageEv
ffffff80008b38f0 T __ZN15IOPMPowerSource8amperageEv
ffffff80008b3ab0 T __ZN15IOPMPowerSource8locationEv
ffffff80008b3380 T __ZN15IOPMPowerSource8setModelEP8OSSymbol
ffffff80008b2800 T __ZN15IOPMPowerSource9MetaClassC1Ev
ffffff80008b2890 T __ZN15IOPMPowerSource9MetaClassC2Ev
ffffff8000a158b0 S __ZN15IOPMPowerSource9metaClassE
ffffff80008b3400 T __ZN15IOPMPowerSource9setSerialEP8OSSymbol
ffffff80008b2860 T __ZN15IOPMPowerSourceC1EPK11OSMetaClass
ffffff80008b28d0 T __ZN15IOPMPowerSourceC1Ev
ffffff80008b2840 T __ZN15IOPMPowerSourceC2EPK11OSMetaClass
ffffff80008b2910 T __ZN15IOPMPowerSourceC2Ev
ffffff80008b1f40 T __ZN15IOPMPowerSourceD0Ev
ffffff80008b1f30 T __ZN15IOPMPowerSourceD1Ev
ffffff80008b2880 T __ZN15IOPMPowerSourceD2Ev
ffffff8000abe968 S __ZN15IOPanicPlatform10gMetaClassE
ffffff8000a1be58 S __ZN15IOPanicPlatform10superClassE
ffffff80008d3a20 T __ZN15IOPanicPlatform5startEP9IOService
ffffff80008d5790 T __ZN15IOPanicPlatform9MetaClassC1Ev
ffffff80008d5820 T __ZN15IOPanicPlatform9MetaClassC2Ev
ffffff8000a1be60 S __ZN15IOPanicPlatform9metaClassE
ffffff80008d57f0 T __ZN15IOPanicPlatformC1EPK11OSMetaClass
ffffff80008d5860 T __ZN15IOPanicPlatformC1Ev
ffffff80008d57d0 T __ZN15IOPanicPlatformC2EPK11OSMetaClass
ffffff80008d58a0 T __ZN15IOPanicPlatformC2Ev
ffffff80008d39d0 T __ZN15IOPanicPlatformD0Ev
ffffff80008d39c0 T __ZN15IOPanicPlatformD1Ev
ffffff80008d5810 T __ZN15IOPanicPlatformD2Ev
ffffff8000abdfb8 S __ZN15IORegistryEntry10gMetaClassE
ffffff800088d5b0 T __ZN15IORegistryEntry10initializeEv
ffffff8000a11438 S __ZN15IORegistryEntry10superClassE
ffffff800088bbc0 T __ZN15IORegistryEntry11dealiasPathEPPKcPK15IORegistryPlane
ffffff800088a810 T __ZN15IORegistryEntry11detachAboveEPK15IORegistryPlane
ffffff800088ae30 T __ZN15IORegistryEntry11setLocationEPK8OSSymbolPK15IORegistryPlane
ffffff800088aea0 T __ZN15IORegistryEntry11setLocationEPKcPK15IORegistryPlane
ffffff8000889010 T __ZN15IORegistryEntry11setPropertyEPK8OSStringP8OSObject
ffffff8000888ee0 T __ZN15IORegistryEntry11setPropertyEPK8OSSymbolP8OSObject
ffffff8000889060 T __ZN15IORegistryEntry11setPropertyEPKcP8OSObject
ffffff8000889200 T __ZN15IORegistryEntry11setPropertyEPKcPvj
ffffff80008890b0 T __ZN15IORegistryEntry11setPropertyEPKcS1_
ffffff8000889120 T __ZN15IORegistryEntry11setPropertyEPKcb
ffffff8000889190 T __ZN15IORegistryEntry11setPropertyEPKcyj
ffffff800088a5a0 T __ZN15IORegistryEntry13attachToChildEPS_PK15IORegistryPlane
ffffff800088b460 T __ZN15IORegistryEntry13childFromPathEPKcPK15IORegistryPlanePcPi
ffffff8000889980 T __ZN15IORegistryEntry13setPropertiesEP8OSObject
ffffff800088a210 T __ZN15IORegistryEntry14attachToParentEPS_PK15IORegistryPlane
ffffff8000889300 T __ZN15IORegistryEntry14removePropertyEPK8OSString
ffffff8000889270 T __ZN15IORegistryEntry14removePropertyEPK8OSSymbol
ffffff8000889340 T __ZN15IORegistryEntry14removePropertyEPKc
ffffff800088a6b0 T __ZN15IORegistryEntry15detachFromChildEPS_PK15IORegistryPlane
ffffff800088d7c0 T __ZN15IORegistryEntry15getRegistryRootEv
ffffff800088a440 T __ZN15IORegistryEntry16detachFromParentEPS_PK15IORegistryPlane
ffffff8000888ea0 T __ZN15IORegistryEntry16setPropertyTableEP12OSDictionary
ffffff800088bea0 T __ZN15IORegistryEntry17matchPathLocationEPKcPK15IORegistryPlane
ffffff8000888660 T __ZN15IORegistryEntry17runPropertyActionEPFiP8OSObjectPvS2_S2_S2_ES1_S2_S2_S2_S2_
ffffff800088d7d0 T __ZN15IORegistryEntry18getGenerationCountEv
ffffff800088dbc0 T __ZN15IORegistryEntry18getRegistryEntryIDEv
ffffff800088bd10 T __ZN15IORegistryEntry21getChildFromComponentEPPKcPK15IORegistryPlane
ffffff8000888710 T __ZN15IORegistryEntry25_RESERVEDIORegistryEntry0Ev
ffffff8000888740 T __ZN15IORegistryEntry25_RESERVEDIORegistryEntry1Ev
ffffff8000888770 T __ZN15IORegistryEntry25_RESERVEDIORegistryEntry2Ev
ffffff80008887a0 T __ZN15IORegistryEntry25_RESERVEDIORegistryEntry3Ev
ffffff80008887d0 T __ZN15IORegistryEntry25_RESERVEDIORegistryEntry4Ev
ffffff8000888800 T __ZN15IORegistryEntry25_RESERVEDIORegistryEntry5Ev
ffffff8000888830 T __ZN15IORegistryEntry25_RESERVEDIORegistryEntry6Ev
ffffff8000888860 T __ZN15IORegistryEntry25_RESERVEDIORegistryEntry7Ev
ffffff8000888890 T __ZN15IORegistryEntry25_RESERVEDIORegistryEntry8Ev
ffffff80008888c0 T __ZN15IORegistryEntry25_RESERVEDIORegistryEntry9Ev
ffffff80008888f0 T __ZN15IORegistryEntry26_RESERVEDIORegistryEntry10Ev
ffffff8000888920 T __ZN15IORegistryEntry26_RESERVEDIORegistryEntry11Ev
ffffff8000888950 T __ZN15IORegistryEntry26_RESERVEDIORegistryEntry12Ev
ffffff8000888980 T __ZN15IORegistryEntry26_RESERVEDIORegistryEntry13Ev
ffffff80008889b0 T __ZN15IORegistryEntry26_RESERVEDIORegistryEntry14Ev
ffffff80008889e0 T __ZN15IORegistryEntry26_RESERVEDIORegistryEntry15Ev
ffffff8000888a10 T __ZN15IORegistryEntry26_RESERVEDIORegistryEntry16Ev
ffffff8000888a40 T __ZN15IORegistryEntry26_RESERVEDIORegistryEntry17Ev
ffffff8000888a70 T __ZN15IORegistryEntry26_RESERVEDIORegistryEntry18Ev
ffffff8000888aa0 T __ZN15IORegistryEntry26_RESERVEDIORegistryEntry19Ev
ffffff8000888ad0 T __ZN15IORegistryEntry26_RESERVEDIORegistryEntry20Ev
ffffff8000888b00 T __ZN15IORegistryEntry26_RESERVEDIORegistryEntry21Ev
ffffff8000888b30 T __ZN15IORegistryEntry26_RESERVEDIORegistryEntry22Ev
ffffff8000888b60 T __ZN15IORegistryEntry26_RESERVEDIORegistryEntry23Ev
ffffff8000888b90 T __ZN15IORegistryEntry26_RESERVEDIORegistryEntry24Ev
ffffff8000888bc0 T __ZN15IORegistryEntry26_RESERVEDIORegistryEntry25Ev
ffffff8000888bf0 T __ZN15IORegistryEntry26_RESERVEDIORegistryEntry26Ev
ffffff8000888c20 T __ZN15IORegistryEntry26_RESERVEDIORegistryEntry27Ev
ffffff8000888c50 T __ZN15IORegistryEntry26_RESERVEDIORegistryEntry28Ev
ffffff8000888c80 T __ZN15IORegistryEntry26_RESERVEDIORegistryEntry29Ev
ffffff8000888cb0 T __ZN15IORegistryEntry26_RESERVEDIORegistryEntry30Ev
ffffff8000888ce0 T __ZN15IORegistryEntry26_RESERVEDIORegistryEntry31Ev
ffffff80008882d0 T __ZN15IORegistryEntry4freeEv
ffffff8000888d10 T __ZN15IORegistryEntry4initEP12OSDictionary
ffffff800088b480 T __ZN15IORegistryEntry4initEPS_PK15IORegistryPlane
ffffff800088acb0 T __ZN15IORegistryEntry7setNameEPK8OSSymbolPK15IORegistryPlane
ffffff800088ad20 T __ZN15IORegistryEntry7setNameEPKcPK15IORegistryPlane
ffffff800088b810 T __ZN15IORegistryEntry8fromPathEPKcPK15IORegistryPlanePcPiPS_
ffffff800088da60 T __ZN15IORegistryEntry8getPlaneEPKc
ffffff800088d310 T __ZN15IORegistryEntry9MetaClassC1Ev
ffffff800088d3a0 T __ZN15IORegistryEntry9MetaClassC2Ev
ffffff800088a880 T __ZN15IORegistryEntry9detachAllEPK15IORegistryPlane
ffffff800088d7e0 T __ZN15IORegistryEntry9makePlaneEPKc
ffffff8000a11430 S __ZN15IORegistryEntry9metaClassE
ffffff800088d370 T __ZN15IORegistryEntryC1EPK11OSMetaClass
ffffff800088d3e0 T __ZN15IORegistryEntryC1Ev
ffffff800088d350 T __ZN15IORegistryEntryC2EPK11OSMetaClass
ffffff800088d420 T __ZN15IORegistryEntryC2Ev
ffffff8000888280 T __ZN15IORegistryEntryD0Ev
ffffff8000888270 T __ZN15IORegistryEntryD1Ev
ffffff800088d390 T __ZN15IORegistryEntryD2Ev
ffffff8000abe030 S __ZN15IORegistryPlane10gMetaClassE
ffffff8000a11860 S __ZN15IORegistryPlane10superClassE
ffffff800088d460 T __ZN15IORegistryPlane9MetaClassC1Ev
ffffff800088d4f0 T __ZN15IORegistryPlane9MetaClassC2Ev
ffffff8000a11868 S __ZN15IORegistryPlane9metaClassE
ffffff800088d4c0 T __ZN15IORegistryPlaneC1EPK11OSMetaClass
ffffff800088d530 T __ZN15IORegistryPlaneC1Ev
ffffff800088d4a0 T __ZN15IORegistryPlaneC2EPK11OSMetaClass
ffffff800088d570 T __ZN15IORegistryPlaneC2Ev
ffffff800088c920 T __ZN15IORegistryPlaneD0Ev
ffffff800088c910 T __ZN15IORegistryPlaneD1Ev
ffffff800088d4e0 T __ZN15IORegistryPlaneD2Ev
ffffff8000abedc0 S __ZN15IOStateReporter10gMetaClassE
ffffff80008f6460 T __ZN15IOStateReporter10setStateIDEyiy
ffffff8000a25220 S __ZN15IOStateReporter10superClassE
ffffff80008f65f0 T __ZN15IOStateReporter14_getStateValueEyyNS_13valueSelectorE
ffffff80008f5fd0 T __ZN15IOStateReporter15setChannelStateEyy
ffffff80008f60b0 T __ZN15IOStateReporter15setChannelStateEyyyy
ffffff80008f5f10 T __ZN15IOStateReporter16_getStateIndicesEyyPiS0_
ffffff80008f56e0 T __ZN15IOStateReporter16handleSetStateIDEyiy
ffffff80008f5260 T __ZN15IOStateReporter17handleSwapCleanupEi
ffffff80008f4e60 T __ZN15IOStateReporter17handleSwapPrepareEi
ffffff80008f64e0 T __ZN15IOStateReporter17setStateByIndicesEii
ffffff80008f6560 T __ZN15IOStateReporter17setStateByIndicesEiiyy
ffffff80008f5390 T __ZN15IOStateReporter19updateChannelValuesEi
ffffff80008f5020 T __ZN15IOStateReporter20handleAddChannelSwapEyPK8OSSymbol
ffffff80008f60c0 T __ZN15IOStateReporter20overrideChannelStateEyyyyy
ffffff80008f65e0 T __ZN15IOStateReporter21getStateInTransitionsEyy
ffffff80008f6700 T __ZN15IOStateReporter21getStateResidencyTimeEyy
ffffff80008f61d0 T __ZN15IOStateReporter21incrementChannelStateEyyyyy
ffffff80008f54e0 T __ZN15IOStateReporter23handleSetStateByIndicesEiiyy
ffffff80008f6710 T __ZN15IOStateReporter26getStateLastTransitionTimeEyy
ffffff80008f6720 T __ZN15IOStateReporter29getStateLastChannelUpdateTimeEy
ffffff80008f57b0 T __ZN15IOStateReporter35handleOverrideChannelStateByIndicesEiiyyy
ffffff80008f5850 T __ZN15IOStateReporter36handleIncrementChannelStateByIndicesEiiyyy
ffffff80008f4d60 T __ZN15IOStateReporter4freeEv
ffffff80008f5e70 T __ZN15IOStateReporter4withEP9IOServicetiy
ffffff80008f5490 T __ZN15IOStateReporter8initWithEP9IOServicetsy
ffffff80008f62e0 T __ZN15IOStateReporter8setStateEy
ffffff80008f63a0 T __ZN15IOStateReporter8setStateEyyy
ffffff80008f5d20 T __ZN15IOStateReporter9MetaClassC1Ev
ffffff80008f5db0 T __ZN15IOStateReporter9MetaClassC2Ev
ffffff8000a25218 S __ZN15IOStateReporter9metaClassE
ffffff80008f5d80 T __ZN15IOStateReporterC1EPK11OSMetaClass
ffffff80008f5df0 T __ZN15IOStateReporterC1Ev
ffffff80008f5d60 T __ZN15IOStateReporterC2EPK11OSMetaClass
ffffff80008f5e30 T __ZN15IOStateReporterC2Ev
ffffff80008f4d10 T __ZN15IOStateReporterD0Ev
ffffff80008f4d00 T __ZN15IOStateReporterD1Ev
ffffff80008f5da0 T __ZN15IOStateReporterD2Ev
ffffff8000abee98 S __ZN15IOWatchDogTimer10gMetaClassE
ffffff8000a26d78 S __ZN15IOWatchDogTimer10superClassE
ffffff80008fbfd0 T __ZN15IOWatchDogTimer13setPropertiesEP8OSObject
ffffff80008fc140 T __ZN15IOWatchDogTimer25_RESERVEDIOWatchDogTimer0Ev
ffffff80008fc170 T __ZN15IOWatchDogTimer25_RESERVEDIOWatchDogTimer1Ev
ffffff80008fc1a0 T __ZN15IOWatchDogTimer25_RESERVEDIOWatchDogTimer2Ev
ffffff80008fc1d0 T __ZN15IOWatchDogTimer25_RESERVEDIOWatchDogTimer3Ev
ffffff80008fc110 T __ZN15IOWatchDogTimer4stopEP9IOService
ffffff80008fc090 T __ZN15IOWatchDogTimer5startEP9IOService
ffffff80008fc670 T __ZN15IOWatchDogTimer9MetaClassC1Ev
ffffff80008fc6e0 T __ZN15IOWatchDogTimer9MetaClassC2Ev
ffffff8000a26d70 S __ZN15IOWatchDogTimer9metaClassE
ffffff80008fc6b0 T __ZN15IOWatchDogTimerC2EPK11OSMetaClass
ffffff80008fbf80 T __ZN15IOWatchDogTimerD0Ev
ffffff80008fbf70 T __ZN15IOWatchDogTimerD1Ev
ffffff80008fc6d0 T __ZN15IOWatchDogTimerD2Ev
ffffff8000839160 T __ZN15OSMetaClassBase10initializeEv
ffffff8000839060 T __ZN15OSMetaClassBase12safeMetaCastEPKS_PK11OSMetaClass
ffffff80008390f0 T __ZN15OSMetaClassBase13checkTypeInstEPKS_S1_
ffffff8000838a10 T __ZN15OSMetaClassBase25_RESERVEDOSMetaClassBase3Ev
ffffff8000838a30 T __ZN15OSMetaClassBase25_RESERVEDOSMetaClassBase4Ev
ffffff8000838a50 T __ZN15OSMetaClassBase25_RESERVEDOSMetaClassBase5Ev
ffffff8000838a70 T __ZN15OSMetaClassBase25_RESERVEDOSMetaClassBase6Ev
ffffff8000838a90 T __ZN15OSMetaClassBase25_RESERVEDOSMetaClassBase7Ev
ffffff8000839190 T __ZN15OSMetaClassBaseC2Ev
ffffff80008389d0 T __ZN15OSMetaClassBaseD0Ev
ffffff80008389c0 T __ZN15OSMetaClassBaseD1Ev
ffffff80008391a0 T __ZN15OSMetaClassBaseD2Ev
ffffff80008394a0 T __ZN15OSMetaClassMetaC1Ev
ffffff8000839470 T __ZN15OSMetaClassMetaC2Ev
ffffff8000abefd8 S __ZN15PMSettingHandle10gMetaClassE
ffffff8000a27aa8 S __ZN15PMSettingHandle10superClassE
ffffff8000908f80 T __ZN15PMSettingHandle4freeEv
ffffff8000910570 T __ZN15PMSettingHandle9MetaClassC1Ev
ffffff8000910600 T __ZN15PMSettingHandle9MetaClassC2Ev
ffffff8000a27ab0 S __ZN15PMSettingHandle9metaClassE
ffffff80009105d0 T __ZN15PMSettingHandleC1EPK11OSMetaClass
ffffff8000910640 T __ZN15PMSettingHandleC1Ev
ffffff80009105b0 T __ZN15PMSettingHandleC2EPK11OSMetaClass
ffffff8000910680 T __ZN15PMSettingHandleC2Ev
ffffff8000908f30 T __ZN15PMSettingHandleD0Ev
ffffff8000908f20 T __ZN15PMSettingHandleD1Ev
ffffff80009105f0 T __ZN15PMSettingHandleD2Ev
ffffff8000abefb0 S __ZN15PMSettingObject10gMetaClassE
ffffff8000a27a98 S __ZN15PMSettingObject10superClassE
ffffff8000910830 T __ZN15PMSettingObject14__OSFinalClassEv
ffffff800090d380 T __ZN15PMSettingObject15pmSettingObjectEP14IOPMrootDomainPFiP8OSObjectPK8OSSymbolS3_mES3_mjPS6_PS3_
ffffff80009106c0 T __ZN15PMSettingObject17clientHandleFreedEv
ffffff800090d190 T __ZN15PMSettingObject17dispatchPMSettingEPK8OSSymbolP8OSObject
ffffff8000909470 T __ZN15PMSettingObject4freeEv
ffffff80009106e0 T __ZN15PMSettingObject9MetaClassC1Ev
ffffff8000910770 T __ZN15PMSettingObject9MetaClassC2Ev
ffffff8000a27aa0 S __ZN15PMSettingObject9metaClassE
ffffff8000910740 T __ZN15PMSettingObjectC1EPK11OSMetaClass
ffffff80009107b0 T __ZN15PMSettingObjectC1Ev
ffffff8000910720 T __ZN15PMSettingObjectC2EPK11OSMetaClass
ffffff80009107f0 T __ZN15PMSettingObjectC2Ev
ffffff8000909420 T __ZN15PMSettingObjectD0Ev
ffffff8000909410 T __ZN15PMSettingObjectD1Ev
ffffff8000910760 T __ZN15PMSettingObjectD2Ev
ffffff8000abe2b8 S __ZN15_IOConfigThread10gMetaClassE
ffffff8000a12a30 S __ZN15_IOConfigThread10superClassE
ffffff8000897c30 T __ZN15_IOConfigThread12configThreadEv
ffffff8000897f80 T __ZN15_IOConfigThread4freeEv
ffffff8000897cc0 T __ZN15_IOConfigThread4mainEPvi
ffffff800089b230 T __ZN15_IOConfigThread9MetaClassC1Ev
ffffff800089b2c0 T __ZN15_IOConfigThread9MetaClassC2Ev
ffffff8000a12a38 S __ZN15_IOConfigThread9metaClassE
ffffff800089b290 T __ZN15_IOConfigThreadC1EPK11OSMetaClass
ffffff800089b300 T __ZN15_IOConfigThreadC1Ev
ffffff800089b270 T __ZN15_IOConfigThreadC2EPK11OSMetaClass
ffffff800089b340 T __ZN15_IOConfigThreadC2Ev
ffffff8000897f30 T __ZN15_IOConfigThreadD0Ev
ffffff8000897f20 T __ZN15_IOConfigThreadD1Ev
ffffff800089b2b0 T __ZN15_IOConfigThreadD2Ev
ffffff8000abe680 S __ZN16IODMAEventSource10gMetaClassE
ffffff8000a17a58 S __ZN16IODMAEventSource10superClassE
ffffff80008bc1c0 T __ZN16IODMAEventSource12checkForWorkEv
ffffff80008bc440 T __ZN16IODMAEventSource12getFIFODepthEj
ffffff80008bc530 T __ZN16IODMAEventSource12setDMAConfigEj
ffffff80008bc470 T __ZN16IODMAEventSource12setFIFODepthEy
ffffff80008bc4f0 T __ZN16IODMAEventSource12setFrameSizeEh
ffffff80008bcbe0 T __ZN16IODMAEventSource14dmaEventSourceEP8OSObjectP9IOServicePFvS1_PS_P12IODMACommandiyyES8_j
ffffff80008bc3c0 T __ZN16IODMAEventSource14stopDMACommandEby
ffffff80008bc560 T __ZN16IODMAEventSource14validDMAConfigEj
ffffff80008bc4b0 T __ZN16IODMAEventSource14validFIFODepthEyj
ffffff80008bc400 T __ZN16IODMAEventSource15queryDMACommandEPP12IODMACommandPyb
ffffff80008bc320 T __ZN16IODMAEventSource15startDMACommandEP12IODMACommandjyy
ffffff80008bc2e0 T __ZN16IODMAEventSource16notifyDMACommandEP12IODMACommandiyy
ffffff80008bc260 T __ZN16IODMAEventSource18completeDMACommandEP12IODMACommand
ffffff80008bc190 T __ZN16IODMAEventSource4freeEv
ffffff80008bc590 T __ZN16IODMAEventSource4initEP8OSObjectP9IOServicePFvS1_PS_P12IODMACommandiyyES8_j
ffffff80008bca90 T __ZN16IODMAEventSource9MetaClassC1Ev
ffffff80008bcb20 T __ZN16IODMAEventSource9MetaClassC2Ev
ffffff8000a17a50 S __ZN16IODMAEventSource9metaClassE
ffffff80008bcaf0 T __ZN16IODMAEventSourceC1EPK11OSMetaClass
ffffff80008bcb60 T __ZN16IODMAEventSourceC1Ev
ffffff80008bcad0 T __ZN16IODMAEventSourceC2EPK11OSMetaClass
ffffff80008bcba0 T __ZN16IODMAEventSourceC2Ev
ffffff80008bc140 T __ZN16IODMAEventSourceD0Ev
ffffff80008bc130 T __ZN16IODMAEventSourceD1Ev
ffffff80008bcb10 T __ZN16IODMAEventSourceD2Ev
ffffff8000abec58 S __ZN16IOKitDiagnostics10gMetaClassE
ffffff8000a23b50 S __ZN16IOKitDiagnostics10superClassE
ffffff80008ead10 T __ZN16IOKitDiagnostics11diagnosticsEv
ffffff80008ead90 T __ZN16IOKitDiagnostics12updateOffsetEP12OSDictionaryyPKc
ffffff80008eabc0 T __ZN16IOKitDiagnostics9MetaClassC1Ev
ffffff80008eac50 T __ZN16IOKitDiagnostics9MetaClassC2Ev
ffffff8000a23b48 S __ZN16IOKitDiagnostics9metaClassE
ffffff80008eac20 T __ZN16IOKitDiagnosticsC1EPK11OSMetaClass
ffffff80008eac90 T __ZN16IOKitDiagnosticsC1Ev
ffffff80008eac00 T __ZN16IOKitDiagnosticsC2EPK11OSMetaClass
ffffff80008eacd0 T __ZN16IOKitDiagnosticsC2Ev
ffffff80008e9f00 T __ZN16IOKitDiagnosticsD0Ev
ffffff80008e9ef0 T __ZN16IOKitDiagnosticsD1Ev
ffffff80008eac40 T __ZN16IOKitDiagnosticsD2Ev
ffffff8000abe400 S __ZN16IOPMRequestQueue10gMetaClassE
ffffff8000a14328 S __ZN16IOPMRequestQueue10superClassE
ffffff800089dda0 T __ZN16IOPMRequestQueue12checkForWorkEv
ffffff80008ae100 T __ZN16IOPMRequestQueue14queuePMRequestEP11IOPMRequest
ffffff80008ae160 T __ZN16IOPMRequestQueue19queuePMRequestChainEPP11IOPMRequestj
ffffff800089dd60 T __ZN16IOPMRequestQueue4freeEv
ffffff800089de80 T __ZN16IOPMRequestQueue4initEP9IOServicePFbS1_P11IOPMRequestPS_E
ffffff80008a9f80 T __ZN16IOPMRequestQueue6createEP9IOServicePFbS1_P11IOPMRequestPS_E
ffffff80008ae4b0 T __ZN16IOPMRequestQueue9MetaClassC1Ev
ffffff80008ae540 T __ZN16IOPMRequestQueue9MetaClassC2Ev
ffffff8000a14330 S __ZN16IOPMRequestQueue9metaClassE
ffffff80008ae510 T __ZN16IOPMRequestQueueC1EPK11OSMetaClass
ffffff80008ae580 T __ZN16IOPMRequestQueueC1Ev
ffffff80008ae4f0 T __ZN16IOPMRequestQueueC2EPK11OSMetaClass
ffffff80008ae5c0 T __ZN16IOPMRequestQueueC2Ev
ffffff800089dd10 T __ZN16IOPMRequestQueueD0Ev
ffffff800089dd00 T __ZN16IOPMRequestQueueD1Ev
ffffff80008ae530 T __ZN16IOPMRequestQueueD2Ev
ffffff8000abe450 S __ZN16IOPMinformeeList10gMetaClassE
ffffff80008af700 T __ZN16IOPMinformeeList10initializeEv
ffffff80008af8f0 T __ZN16IOPMinformeeList10nextInListEP12IOPMinformee
ffffff8000a151a0 S __ZN16IOPMinformeeList10superClassE
ffffff80008af9f0 T __ZN16IOPMinformeeList11firstInListEv
ffffff80008afa00 T __ZN16IOPMinformeeList13numberOfItemsEv
ffffff80008af910 T __ZN16IOPMinformeeList14removeFromListEP9IOService
ffffff80008af740 T __ZN16IOPMinformeeList17appendNewInformeeEP9IOService
ffffff80008af720 T __ZN16IOPMinformeeList22getSharedRecursiveLockEv
ffffff80008af130 T __ZN16IOPMinformeeList4freeEv
ffffff80008afa10 T __ZN16IOPMinformeeList8findItemEP9IOService
ffffff80008af5b0 T __ZN16IOPMinformeeList9MetaClassC1Ev
ffffff80008af640 T __ZN16IOPMinformeeList9MetaClassC2Ev
ffffff80008af820 T __ZN16IOPMinformeeList9addToListEP12IOPMinformee
ffffff8000a15198 S __ZN16IOPMinformeeList9metaClassE
ffffff80008af610 T __ZN16IOPMinformeeListC1EPK11OSMetaClass
ffffff80008af680 T __ZN16IOPMinformeeListC1Ev
ffffff80008af5f0 T __ZN16IOPMinformeeListC2EPK11OSMetaClass
ffffff80008af6c0 T __ZN16IOPMinformeeListC2Ev
ffffff80008af0e0 T __ZN16IOPMinformeeListD0Ev
ffffff80008af0d0 T __ZN16IOPMinformeeListD1Ev
ffffff80008af630 T __ZN16IOPMinformeeListD2Ev
ffffff8000abe990 S __ZN16IOPlatformDevice10gMetaClassE
ffffff8000a1be68 S __ZN16IOPlatformDevice10superClassE
ffffff80008d2080 T __ZN16IOPlatformDevice12getResourcesEv
ffffff80008d2070 T __ZN16IOPlatformDevice13matchLocationEP9IOService
ffffff80008d20b0 T __ZN16IOPlatformDevice26_RESERVEDIOPlatformDevice0Ev
ffffff80008d20e0 T __ZN16IOPlatformDevice26_RESERVEDIOPlatformDevice1Ev
ffffff80008d2110 T __ZN16IOPlatformDevice26_RESERVEDIOPlatformDevice2Ev
ffffff80008d2140 T __ZN16IOPlatformDevice26_RESERVEDIOPlatformDevice3Ev
ffffff80008d5680 T __ZN16IOPlatformDevice9MetaClassC1Ev
ffffff80008d5710 T __ZN16IOPlatformDevice9MetaClassC2Ev
ffffff8000a1be70 S __ZN16IOPlatformDevice9metaClassE
ffffff80008d56e0 T __ZN16IOPlatformDeviceC1EPK11OSMetaClass
ffffff80008d4510 T __ZN16IOPlatformDeviceC1Ev
ffffff80008d56c0 T __ZN16IOPlatformDeviceC2EPK11OSMetaClass
ffffff80008d5750 T __ZN16IOPlatformDeviceC2Ev
ffffff80008d1fe0 T __ZN16IOPlatformDeviceD0Ev
ffffff80008d1fd0 T __ZN16IOPlatformDeviceD1Ev
ffffff80008d5700 T __ZN16IOPlatformDeviceD2Ev
ffffff8000abe940 S __ZN16IOPlatformExpert10gMetaClassE
ffffff8000a1b480 S __ZN16IOPlatformExpert10superClassE
ffffff80008d16b0 T __ZN16IOPlatformExpert11haltRestartEj
ffffff80008d1700 T __ZN16IOPlatformExpert11sleepKernelEv
ffffff80008d0f60 T __ZN16IOPlatformExpert12CheckSubTreeEP7OSArrayP9IOServiceS3_P12OSDictionary
ffffff80008d1690 T __ZN16IOPlatformExpert12getModelNameEPci
ffffff80008d1d80 T __ZN16IOPlatformExpert12hasPMFeatureEm
ffffff80008d1dd0 T __ZN16IOPlatformExpert13savePanicInfoEPhy
ffffff80008d1660 T __ZN16IOPlatformExpert14getBootROMTypeEv
ffffff80008d1670 T __ZN16IOPlatformExpert14getChipSetTypeEv
ffffff80008d1730 T __ZN16IOPlatformExpert14getConsoleInfoEP8PE_Video
ffffff80008d16a0 T __ZN16IOPlatformExpert14getMachineNameEPci
ffffff80008d1680 T __ZN16IOPlatformExpert14getMachineTypeEv
ffffff80008d0f30 T __ZN16IOPlatformExpert14setBootROMTypeEl
ffffff80008d0f40 T __ZN16IOPlatformExpert14setChipSetTypeEl
ffffff80008d1750 T __ZN16IOPlatformExpert14setConsoleInfoEP8PE_Videoj
ffffff80008d0f50 T __ZN16IOPlatformExpert14setMachineTypeEl
ffffff80008d1710 T __ZN16IOPlatformExpert15getGMTTimeOfDayEv
ffffff80008d1650 T __ZN16IOPlatformExpert15getNubResourcesEP9IOService
ffffff80008d1e30 T __ZN16IOPlatformExpert15getUTCTimeOfDayEPmPj
ffffff80008d1720 T __ZN16IOPlatformExpert15setGMTTimeOfDayEl
ffffff80008d1e60 T __ZN16IOPlatformExpert15setUTCTimeOfDayEmj
ffffff80008d1c20 T __ZN16IOPlatformExpert16PMRegisterDeviceEP9IOServiceS1_
ffffff80008d1ba0 T __ZN16IOPlatformExpert16atInterruptLevelEv
ffffff80008d1da0 T __ZN16IOPlatformExpert16hasPrivPMFeatureEm
ffffff80008d0e30 T __ZN16IOPlatformExpert20callPlatformFunctionEPK8OSSymbolbPvS3_S3_S3_
ffffff80008d1210 T __ZN16IOPlatformExpert21RegisterServiceInTreeEP9IOServiceP12OSDictionaryS3_S1_
ffffff80008d1dc0 T __ZN16IOPlatformExpert21numBatteriesSupportedEv
ffffff80008d1c10 T __ZN16IOPlatformExpert21platformAdjustServiceEP9IOService
ffffff80008d1770 T __ZN16IOPlatformExpert23registerNVRAMControllerEP17IONVRAMController
ffffff80008d1380 T __ZN16IOPlatformExpert25PMInstantiatePowerDomainsEv
ffffff80008d1bc0 T __ZN16IOPlatformExpert25getPhysicalRangeAllocatorEv
ffffff80008d1a50 T __ZN16IOPlatformExpert25lookUpInterruptControllerEP8OSSymbol
ffffff80008d1b00 T __ZN16IOPlatformExpert25setCPUInterruptPropertiesEP9IOService
ffffff80008d1e80 T __ZN16IOPlatformExpert26_RESERVEDIOPlatformExpert5Ev
ffffff80008d1eb0 T __ZN16IOPlatformExpert26_RESERVEDIOPlatformExpert6Ev
ffffff80008d1ee0 T __ZN16IOPlatformExpert26_RESERVEDIOPlatformExpert7Ev
ffffff80008d1f10 T __ZN16IOPlatformExpert26_RESERVEDIOPlatformExpert8Ev
ffffff80008d1f40 T __ZN16IOPlatformExpert26_RESERVEDIOPlatformExpert9Ev
ffffff80008d1f70 T __ZN16IOPlatformExpert27_RESERVEDIOPlatformExpert10Ev
ffffff80008d1fa0 T __ZN16IOPlatformExpert27_RESERVEDIOPlatformExpert11Ev
ffffff80008d19f0 T __ZN16IOPlatformExpert27registerInterruptControllerEP8OSSymbolP21IOInterruptController
ffffff80008d1df0 T __ZN16IOPlatformExpert29deregisterInterruptControllerEP8OSSymbol
ffffff80008d1de0 T __ZN16IOPlatformExpert30createSystemSerialNumberStringEP6OSData
ffffff80008d1c40 T __ZN16IOPlatformExpert5PMLogEPKcmmm
ffffff80008d0c60 T __ZN16IOPlatformExpert5startEP9IOService
ffffff80008d0e20 T __ZN16IOPlatformExpert6attachEP9IOService
ffffff80008d43c0 T __ZN16IOPlatformExpert9MetaClassC1Ev
ffffff80008d4450 T __ZN16IOPlatformExpert9MetaClassC2Ev
ffffff80008d1410 T __ZN16IOPlatformExpert9configureEP9IOService
ffffff80008d1560 T __ZN16IOPlatformExpert9createNubEP12OSDictionary
ffffff8000a1b478 S __ZN16IOPlatformExpert9metaClassE
ffffff80008d4420 T __ZN16IOPlatformExpertC1EPK11OSMetaClass
ffffff80008d4490 T __ZN16IOPlatformExpertC1Ev
ffffff80008d4400 T __ZN16IOPlatformExpertC2EPK11OSMetaClass
ffffff80008d44d0 T __ZN16IOPlatformExpertC2Ev
ffffff80008d0c10 T __ZN16IOPlatformExpertD0Ev
ffffff80008d0c00 T __ZN16IOPlatformExpertD1Ev
ffffff80008d4440 T __ZN16IOPlatformExpertD2Ev
ffffff80008cfb80 T __ZN16IORangeAllocator10deallocateEyy
ffffff8000abe8e8 S __ZN16IORangeAllocator10gMetaClassE
ffffff8000a1aeb0 S __ZN16IORangeAllocator10superClassE
ffffff80008cf600 T __ZN16IORangeAllocator12allocElementEj
ffffff80008cf7e0 T __ZN16IORangeAllocator12getFreeCountEv
ffffff80008cf9e0 T __ZN16IORangeAllocator13allocateRangeEyy
ffffff80008cf6f0 T __ZN16IORangeAllocator14deallocElementEj
ffffff80008cf7b0 T __ZN16IORangeAllocator16getFragmentCountEv
ffffff80008cf7c0 T __ZN16IORangeAllocator19getFragmentCapacityEv
ffffff80008cf7d0 T __ZN16IORangeAllocator28setFragmentCapacityIncrementEj
ffffff80008cf5b0 T __ZN16IORangeAllocator4freeEv
ffffff80008cf720 T __ZN16IORangeAllocator4initEyyjj
ffffff80008cf860 T __ZN16IORangeAllocator8allocateEyPyy
ffffff80008d00f0 T __ZN16IORangeAllocator9MetaClassC1Ev
ffffff80008d0180 T __ZN16IORangeAllocator9MetaClassC2Ev
ffffff8000a1aea8 S __ZN16IORangeAllocator9metaClassE
ffffff80008d0240 T __ZN16IORangeAllocator9withRangeEyyjj
ffffff80008d0150 T __ZN16IORangeAllocatorC1EPK11OSMetaClass
ffffff80008d01c0 T __ZN16IORangeAllocatorC1Ev
ffffff80008d0130 T __ZN16IORangeAllocatorC2EPK11OSMetaClass
ffffff80008d0200 T __ZN16IORangeAllocatorC2Ev
ffffff80008cf440 T __ZN16IORangeAllocatorD0Ev
ffffff80008cf430 T __ZN16IORangeAllocatorD1Ev
ffffff80008d0170 T __ZN16IORangeAllocatorD2Ev
ffffff8000abed98 S __ZN16IOSimpleReporter10gMetaClassE
ffffff8000a24f80 S __ZN16IOSimpleReporter10superClassE
ffffff80008f4ba0 T __ZN16IOSimpleReporter14incrementValueEyx
ffffff80008f4a50 T __ZN16IOSimpleReporter4withEP9IOServicety
ffffff80008f4c60 T __ZN16IOSimpleReporter8getValueEy
ffffff80008f44b0 T __ZN16IOSimpleReporter8initWithEP9IOServicety
ffffff80008f4ae0 T __ZN16IOSimpleReporter8setValueEyx
ffffff80008f4900 T __ZN16IOSimpleReporter9MetaClassC1Ev
ffffff80008f4990 T __ZN16IOSimpleReporter9MetaClassC2Ev
ffffff8000a24f78 S __ZN16IOSimpleReporter9metaClassE
ffffff80008f4960 T __ZN16IOSimpleReporterC1EPK11OSMetaClass
ffffff80008f49d0 T __ZN16IOSimpleReporterC1Ev
ffffff80008f4940 T __ZN16IOSimpleReporterC2EPK11OSMetaClass
ffffff80008f4a10 T __ZN16IOSimpleReporterC2Ev
ffffff80008f4460 T __ZN16IOSimpleReporterD0Ev
ffffff80008f4450 T __ZN16IOSimpleReporterD1Ev
ffffff80008f4980 T __ZN16IOSimpleReporterD2Ev
ffffff8000abe7e8 S __ZN17IOBigMemoryCursor10gMetaClassE
ffffff8000a19a50 S __ZN17IOBigMemoryCursor10superClassE
ffffff80008c51b0 T __ZN17IOBigMemoryCursor13outputSegmentEN14IOMemoryCursor15PhysicalSegmentEPvj
ffffff80008c62f0 T __ZN17IOBigMemoryCursor17withSpecificationEyyy
ffffff80008c50f0 T __ZN17IOBigMemoryCursor21initWithSpecificationEyyy
ffffff80008c61a0 T __ZN17IOBigMemoryCursor9MetaClassC1Ev
ffffff80008c6230 T __ZN17IOBigMemoryCursor9MetaClassC2Ev
ffffff8000a19a58 S __ZN17IOBigMemoryCursor9metaClassE
ffffff80008c6200 T __ZN17IOBigMemoryCursorC1EPK11OSMetaClass
ffffff80008c6270 T __ZN17IOBigMemoryCursorC1Ev
ffffff80008c61e0 T __ZN17IOBigMemoryCursorC2EPK11OSMetaClass
ffffff80008c62b0 T __ZN17IOBigMemoryCursorC2Ev
ffffff80008c50a0 T __ZN17IOBigMemoryCursorD0Ev
ffffff80008c5090 T __ZN17IOBigMemoryCursorD1Ev
ffffff80008c6220 T __ZN17IOBigMemoryCursorD2Ev
ffffff8000abe540 S __ZN17IOPolledInterface10gMetaClassE
ffffff8000a16448 S __ZN17IOPolledInterface10superClassE
ffffff80008b44a0 T __ZN17IOPolledInterface27_RESERVEDIOPolledInterface0Ev
ffffff80008b44d0 T __ZN17IOPolledInterface27_RESERVEDIOPolledInterface1Ev
ffffff80008b4500 T __ZN17IOPolledInterface27_RESERVEDIOPolledInterface2Ev
ffffff80008b4530 T __ZN17IOPolledInterface27_RESERVEDIOPolledInterface3Ev
ffffff80008b4560 T __ZN17IOPolledInterface27_RESERVEDIOPolledInterface4Ev
ffffff80008b4590 T __ZN17IOPolledInterface27_RESERVEDIOPolledInterface5Ev
ffffff80008b45c0 T __ZN17IOPolledInterface27_RESERVEDIOPolledInterface6Ev
ffffff80008b45f0 T __ZN17IOPolledInterface27_RESERVEDIOPolledInterface7Ev
ffffff80008b4620 T __ZN17IOPolledInterface27_RESERVEDIOPolledInterface8Ev
ffffff80008b4650 T __ZN17IOPolledInterface27_RESERVEDIOPolledInterface9Ev
ffffff80008b4680 T __ZN17IOPolledInterface28_RESERVEDIOPolledInterface10Ev
ffffff80008b46b0 T __ZN17IOPolledInterface28_RESERVEDIOPolledInterface11Ev
ffffff80008b46e0 T __ZN17IOPolledInterface28_RESERVEDIOPolledInterface12Ev
ffffff80008b4710 T __ZN17IOPolledInterface28_RESERVEDIOPolledInterface13Ev
ffffff80008b4740 T __ZN17IOPolledInterface28_RESERVEDIOPolledInterface14Ev
ffffff80008b4770 T __ZN17IOPolledInterface28_RESERVEDIOPolledInterface15Ev
ffffff80008b4ff0 T __ZN17IOPolledInterface9MetaClassC1Ev
ffffff80008b5060 T __ZN17IOPolledInterface9MetaClassC2Ev
ffffff8000a16440 S __ZN17IOPolledInterface9metaClassE
ffffff80008b5030 T __ZN17IOPolledInterfaceC2EPK11OSMetaClass
ffffff80008b4450 T __ZN17IOPolledInterfaceD0Ev
ffffff80008b4440 T __ZN17IOPolledInterfaceD1Ev
ffffff80008b5050 T __ZN17IOPolledInterfaceD2Ev
ffffff8000abee70 S __ZN17IOPowerConnection10gMetaClassE
ffffff8000a26418 S __ZN17IOPowerConnection10superClassE
ffffff80008fbf50 T __ZN17IOPowerConnection12setReadyFlagEb
ffffff80008fbf40 T __ZN17IOPowerConnection14getAwaitingAckEv
ffffff80008fbf30 T __ZN17IOPowerConnection14setAwaitingAckEb
ffffff80008fbf10 T __ZN17IOPowerConnection16parentKnowsStateEv
ffffff80008fbef0 T __ZN17IOPowerConnection19setParentKnowsStateEb
ffffff80008fbe40 T __ZN17IOPowerConnection21getDesiredDomainStateEv
ffffff80008fbe30 T __ZN17IOPowerConnection21setDesiredDomainStateEm
ffffff80008fbe60 T __ZN17IOPowerConnection22childHasRequestedPowerEv
ffffff80008fbe90 T __ZN17IOPowerConnection23getPreventIdleSleepFlagEv
ffffff80008fbf20 T __ZN17IOPowerConnection23parentCurrentPowerFlagsEv
ffffff80008fbe70 T __ZN17IOPowerConnection23setPreventIdleSleepFlagEm
ffffff80008fbed0 T __ZN17IOPowerConnection25getPreventSystemSleepFlagEv
ffffff80008fbe50 T __ZN17IOPowerConnection25setChildHasRequestedPowerEv
ffffff80008fbeb0 T __ZN17IOPowerConnection25setPreventSystemSleepFlagEm
ffffff80008fbf00 T __ZN17IOPowerConnection26setParentCurrentPowerFlagsEm
ffffff80008fbce0 T __ZN17IOPowerConnection9MetaClassC1Ev
ffffff80008fbd70 T __ZN17IOPowerConnection9MetaClassC2Ev
ffffff8000a26410 S __ZN17IOPowerConnection9metaClassE
ffffff80008fbd40 T __ZN17IOPowerConnectionC1EPK11OSMetaClass
ffffff80008fbdb0 T __ZN17IOPowerConnectionC1Ev
ffffff80008fbd20 T __ZN17IOPowerConnectionC2EPK11OSMetaClass
ffffff80008fbdf0 T __ZN17IOPowerConnectionC2Ev
ffffff80008fb860 T __ZN17IOPowerConnectionD0Ev
ffffff80008fb850 T __ZN17IOPowerConnectionD1Ev
ffffff80008fbd60 T __ZN17IOPowerConnectionD2Ev
ffffff8000abecd0 S __ZN17IOSharedDataQueue10gMetaClassE
ffffff8000a24a40 S __ZN17IOSharedDataQueue10superClassE
ffffff80008ec650 T __ZN17IOSharedDataQueue11withEntriesEjj
ffffff80008ec700 T __ZN17IOSharedDataQueue12getQueueSizeEv
ffffff80008ec6e0 T __ZN17IOSharedDataQueue12setQueueSizeEj
ffffff80008ec5d0 T __ZN17IOSharedDataQueue12withCapacityEj
ffffff80008ebad0 T __ZN17IOSharedDataQueue16initWithCapacityEj
ffffff80008ebce0 T __ZN17IOSharedDataQueue19getMemoryDescriptorEv
ffffff80008ebed0 T __ZN17IOSharedDataQueue27_RESERVEDIOSharedDataQueue0Ev
ffffff80008ebf00 T __ZN17IOSharedDataQueue27_RESERVEDIOSharedDataQueue1Ev
ffffff80008ebf30 T __ZN17IOSharedDataQueue27_RESERVEDIOSharedDataQueue2Ev
ffffff80008ebf60 T __ZN17IOSharedDataQueue27_RESERVEDIOSharedDataQueue3Ev
ffffff80008ebf90 T __ZN17IOSharedDataQueue27_RESERVEDIOSharedDataQueue4Ev
ffffff80008ebfc0 T __ZN17IOSharedDataQueue27_RESERVEDIOSharedDataQueue5Ev
ffffff80008ebff0 T __ZN17IOSharedDataQueue27_RESERVEDIOSharedDataQueue6Ev
ffffff80008ec020 T __ZN17IOSharedDataQueue27_RESERVEDIOSharedDataQueue7Ev
ffffff80008eba40 T __ZN17IOSharedDataQueue4freeEv
ffffff80008ebd20 T __ZN17IOSharedDataQueue4peekEv
ffffff80008ebd90 T __ZN17IOSharedDataQueue7dequeueEPvPj
ffffff80008ebbc0 T __ZN17IOSharedDataQueue7enqueueEPvj
ffffff80008ec480 T __ZN17IOSharedDataQueue9MetaClassC1Ev
ffffff80008ec510 T __ZN17IOSharedDataQueue9MetaClassC2Ev
ffffff8000a24a38 S __ZN17IOSharedDataQueue9metaClassE
ffffff80008ec4e0 T __ZN17IOSharedDataQueueC1EPK11OSMetaClass
ffffff80008ec550 T __ZN17IOSharedDataQueueC1Ev
ffffff80008ec4c0 T __ZN17IOSharedDataQueueC2EPK11OSMetaClass
ffffff80008ec590 T __ZN17IOSharedDataQueueC2Ev
ffffff80008eb9f0 T __ZN17IOSharedDataQueueD0Ev
ffffff80008eb9e0 T __ZN17IOSharedDataQueueD1Ev
ffffff80008ec500 T __ZN17IOSharedDataQueueD2Ev
ffffff80008f0250 T __ZN17IOWorkLoopCounter14loadTagCompareEP20IOWorkLoopDependencyS1_
ffffff80008f1080 T __ZN17IOWorkLoopCounter22DependencyTree_RB_FINDEPNS_14DependencyTreeEP20IOWorkLoopDependency
ffffff80008f10c0 T __ZN17IOWorkLoopCounter22DependencyTree_RB_NEXTEP20IOWorkLoopDependency
ffffff80008f0fc0 T __ZN17IOWorkLoopCounter24DependencyTree_RB_INSERTEPNS_14DependencyTreeEP20IOWorkLoopDependency
ffffff80008f1140 T __ZN17IOWorkLoopCounter24DependencyTree_RB_MINMAXEPNS_14DependencyTreeEi
ffffff80008f0e20 T __ZN17IOWorkLoopCounter24DependencyTree_RB_REMOVEEPNS_14DependencyTreeEP20IOWorkLoopDependency
ffffff80008f0290 T __ZN17IOWorkLoopCounter26DependencyTree_RB_GETCOLOREP20IOWorkLoopDependency
ffffff80008f02a0 T __ZN17IOWorkLoopCounter26DependencyTree_RB_SETCOLOREP20IOWorkLoopDependencyi
ffffff80008f0270 T __ZN17IOWorkLoopCounter27DependencyTree_RB_GETPARENTEP20IOWorkLoopDependency
ffffff80008f02d0 T __ZN17IOWorkLoopCounter27DependencyTree_RB_SETPARENTEP20IOWorkLoopDependencyS1_
ffffff80008f0310 T __ZN17IOWorkLoopCounter30DependencyTree_RB_INSERT_COLOREPNS_14DependencyTreeEP20IOWorkLoopDependency
ffffff80008f0730 T __ZN17IOWorkLoopCounter30DependencyTree_RB_REMOVE_COLOREPNS_14DependencyTreeEP20IOWorkLoopDependencyS3_
ffffff80008d2b70 T __ZN18IODTPlatformExpert10createNubsEP9IOServiceP10OSIterator
ffffff8000abe9e0 S __ZN18IODTPlatformExpert10gMetaClassE
ffffff8000a1be88 S __ZN18IODTPlatformExpert10superClassE
ffffff80008d5480 T __ZN18IODTPlatformExpert10writeXPRAMEyPhy
ffffff80008d2740 T __ZN18IODTPlatformExpert11haltRestartEj
ffffff80008d25d0 T __ZN18IODTPlatformExpert12getModelNameEPci
ffffff80008d27d0 T __ZN18IODTPlatformExpert13savePanicInfoEPhy
ffffff80008d26a0 T __ZN18IODTPlatformExpert14getMachineNameEPci
ffffff80008d2590 T __ZN18IODTPlatformExpert15getNubResourcesEP9IOService
ffffff80008d2910 T __ZN18IODTPlatformExpert15processTopLevelEP15IORegistryEntry
ffffff80008d2bf0 T __ZN18IODTPlatformExpert17readNVRAMPropertyEP15IORegistryEntryPPK8OSSymbolPP6OSData
ffffff80008d54b0 T __ZN18IODTPlatformExpert18getNVRAMPartitionsEv
ffffff80008d54d0 T __ZN18IODTPlatformExpert18readNVRAMPartitionEPK8OSSymbolyPhy
ffffff80008d2c20 T __ZN18IODTPlatformExpert18writeNVRAMPropertyEP15IORegistryEntryPK8OSSymbolP6OSData
ffffff80008d5500 T __ZN18IODTPlatformExpert19writeNVRAMPartitionEPK8OSSymbolyPhy
ffffff80008d27a0 T __ZN18IODTPlatformExpert23registerNVRAMControllerEP17IONVRAMController
ffffff80008d2c50 T __ZN18IODTPlatformExpert28_RESERVEDIODTPlatformExpert0Ev
ffffff80008d2c80 T __ZN18IODTPlatformExpert28_RESERVEDIODTPlatformExpert1Ev
ffffff80008d2cb0 T __ZN18IODTPlatformExpert28_RESERVEDIODTPlatformExpert2Ev
ffffff80008d2ce0 T __ZN18IODTPlatformExpert28_RESERVEDIODTPlatformExpert3Ev
ffffff80008d2d10 T __ZN18IODTPlatformExpert28_RESERVEDIODTPlatformExpert4Ev
ffffff80008d2d40 T __ZN18IODTPlatformExpert28_RESERVEDIODTPlatformExpert5Ev
ffffff80008d2d70 T __ZN18IODTPlatformExpert28_RESERVEDIODTPlatformExpert6Ev
ffffff80008d2da0 T __ZN18IODTPlatformExpert28_RESERVEDIODTPlatformExpert7Ev
ffffff80008d2800 T __ZN18IODTPlatformExpert30createSystemSerialNumberStringEP6OSData
ffffff80008d2480 T __ZN18IODTPlatformExpert5probeEP9IOServicePi
ffffff80008d53a0 T __ZN18IODTPlatformExpert9MetaClassC1Ev
ffffff80008d5410 T __ZN18IODTPlatformExpert9MetaClassC2Ev
ffffff80008d24e0 T __ZN18IODTPlatformExpert9configureEP9IOService
ffffff80008d2af0 T __ZN18IODTPlatformExpert9createNubEP15IORegistryEntry
ffffff8000a1be90 S __ZN18IODTPlatformExpert9metaClassE
ffffff80008d5450 T __ZN18IODTPlatformExpert9readXPRAMEyPhy
ffffff80008d53e0 T __ZN18IODTPlatformExpertC2EPK11OSMetaClass
ffffff80008d2430 T __ZN18IODTPlatformExpertD0Ev
ffffff80008d2420 T __ZN18IODTPlatformExpertD1Ev
ffffff80008d5400 T __ZN18IODTPlatformExpertD2Ev
ffffff80008c77b0 T __ZN18IOMemoryDescriptor10addMappingEP11IOMemoryMap
ffffff8000abe840 S __ZN18IOMemoryDescriptor10gMetaClassE
ffffff80008ce610 T __ZN18IOMemoryDescriptor10initializeEv
ffffff80008c71a0 T __ZN18IOMemoryDescriptor10setMappingEP4taskyj
ffffff8000a1a208 S __ZN18IOMemoryDescriptor10superClassE
ffffff80008c6f80 T __ZN18IOMemoryDescriptor10writeBytesEyPKvy
ffffff80008cd710 T __ZN18IOMemoryDescriptor11handleFaultEPvyy
ffffff80008c7390 T __ZN18IOMemoryDescriptor11makeMappingEPS_P4taskyjyy
ffffff80008cdae0 T __ZN18IOMemoryDescriptor11withAddressEPvyj
ffffff80008cdde0 T __ZN18IOMemoryDescriptor11withOptionsEPvjjP4taskjP8IOMapper
ffffff80008c6630 T __ZN18IOMemoryDescriptor12setPurgeableEjPj
ffffff80008ce0f0 T __ZN18IOMemoryDescriptor13getPageCountsEPyS0_
ffffff80008c7800 T __ZN18IOMemoryDescriptor13removeMappingEP11IOMemoryMap
ffffff80008c6620 T __ZN18IOMemoryDescriptor15initWithOptionsEPvjjP4taskjP8IOMapper
ffffff80008c6b20 T __ZN18IOMemoryDescriptor16getPreparationIDEv
ffffff80008c6830 T __ZN18IOMemoryDescriptor16performOperationEjyy
ffffff80008ce030 T __ZN18IOMemoryDescriptor16setPreparationIDEv
ffffff80008cdbb0 T __ZN18IOMemoryDescriptor16withAddressRangeEyyjP4task
ffffff80008cd890 T __ZN18IOMemoryDescriptor17getKernelReservedEv
ffffff80008cdd20 T __ZN18IOMemoryDescriptor17withAddressRangesEP14IOVirtualRangejjP4task
ffffff80008ce640 T __ZN18IOMemoryDescriptor18getPhysicalAddressEv
ffffff80008cbd90 T __ZN18IOMemoryDescriptor19createMappingInTaskEP4taskyjyy
ffffff80008ca5e0 T __ZN18IOMemoryDescriptor19populateDevicePagerEPvP7_vm_mapyyyj
ffffff80008cdc70 T __ZN18IOMemoryDescriptor19withPhysicalAddressEyyj
ffffff80008c6b40 T __ZN18IOMemoryDescriptor28_RESERVEDIOMemoryDescriptor1Ev
ffffff80008c6b70 T __ZN18IOMemoryDescriptor28_RESERVEDIOMemoryDescriptor2Ev
ffffff80008c6ba0 T __ZN18IOMemoryDescriptor28_RESERVEDIOMemoryDescriptor3Ev
ffffff80008c6bd0 T __ZN18IOMemoryDescriptor28_RESERVEDIOMemoryDescriptor4Ev
ffffff80008c6c00 T __ZN18IOMemoryDescriptor28_RESERVEDIOMemoryDescriptor5Ev
ffffff80008c6c30 T __ZN18IOMemoryDescriptor28_RESERVEDIOMemoryDescriptor6Ev
ffffff80008c6c60 T __ZN18IOMemoryDescriptor28_RESERVEDIOMemoryDescriptor7Ev
ffffff80008c6c90 T __ZN18IOMemoryDescriptor28_RESERVEDIOMemoryDescriptor8Ev
ffffff80008c6cc0 T __ZN18IOMemoryDescriptor28_RESERVEDIOMemoryDescriptor9Ev
ffffff80008c6cf0 T __ZN18IOMemoryDescriptor29_RESERVEDIOMemoryDescriptor10Ev
ffffff80008c6d20 T __ZN18IOMemoryDescriptor29_RESERVEDIOMemoryDescriptor11Ev
ffffff80008c6d50 T __ZN18IOMemoryDescriptor29_RESERVEDIOMemoryDescriptor12Ev
ffffff80008c6d80 T __ZN18IOMemoryDescriptor29_RESERVEDIOMemoryDescriptor13Ev
ffffff80008c6db0 T __ZN18IOMemoryDescriptor29_RESERVEDIOMemoryDescriptor14Ev
ffffff80008c6de0 T __ZN18IOMemoryDescriptor29_RESERVEDIOMemoryDescriptor15Ev
ffffff80008cde90 T __ZN18IOMemoryDescriptor30withPersistentMemoryDescriptorEPS_
ffffff80008c7150 T __ZN18IOMemoryDescriptor3mapEj
ffffff80008c65c0 T __ZN18IOMemoryDescriptor4freeEv
ffffff80008c7820 T __ZN18IOMemoryDescriptor5doMapEP7_vm_mapPyjyy
ffffff80008ce090 T __ZN18IOMemoryDescriptor6dmaMapEP8IOMapperP12IODMACommandPK21IODMAMapSpecificationyyPyS7_
ffffff80008c6e40 T __ZN18IOMemoryDescriptor6getTagEv
ffffff80008c6e30 T __ZN18IOMemoryDescriptor6setTagEj
ffffff80008c7830 T __ZN18IOMemoryDescriptor7doUnmapEP7_vm_mapyy
ffffff80008c71f0 T __ZN18IOMemoryDescriptor8redirectEP4taskb
ffffff80008cd430 T __ZN18IOMemoryDescriptor9MetaClassC1Ev
ffffff80008cd4a0 T __ZN18IOMemoryDescriptor9MetaClassC2Ev
ffffff8000a1a200 S __ZN18IOMemoryDescriptor9metaClassE
ffffff80008c6e50 T __ZN18IOMemoryDescriptor9readBytesEyPvy
ffffff80008cd470 T __ZN18IOMemoryDescriptorC2EPK11OSMetaClass
ffffff80008c6570 T __ZN18IOMemoryDescriptorD0Ev
ffffff80008c6560 T __ZN18IOMemoryDescriptorD1Ev
ffffff80008cd490 T __ZN18IOMemoryDescriptorD2Ev
ffffff800088c480 T __ZN18IORegistryIterator10enterEntryEPK15IORegistryPlane
ffffff800088c460 T __ZN18IORegistryIterator10enterEntryEv
ffffff8000abdfe0 S __ZN18IORegistryIterator10gMetaClassE
ffffff800088c540 T __ZN18IORegistryIterator10iterateAllEv
ffffff8000a11850 S __ZN18IORegistryIterator10superClassE
ffffff800088c590 T __ZN18IORegistryIterator11iterateOverEP15IORegistryEntryPK15IORegistryPlanej
ffffff800088dd30 T __ZN18IORegistryIterator11iterateOverEPK15IORegistryPlanej
ffffff800088c280 T __ZN18IORegistryIterator13getNextObjectEv
ffffff800088c430 T __ZN18IORegistryIterator15getCurrentEntryEv
ffffff800088c2a0 T __ZN18IORegistryIterator17getNextObjectFlatEv
ffffff800088c3a0 T __ZN18IORegistryIterator22getNextObjectRecursiveEv
ffffff800088c150 T __ZN18IORegistryIterator4freeEv
ffffff800088c1a0 T __ZN18IORegistryIterator5resetEv
ffffff800088c1f0 T __ZN18IORegistryIterator7isValidEv
ffffff800088dbe0 T __ZN18IORegistryIterator9MetaClassC1Ev
ffffff800088dc70 T __ZN18IORegistryIterator9MetaClassC2Ev
ffffff800088c4d0 T __ZN18IORegistryIterator9exitEntryEv
ffffff8000a11858 S __ZN18IORegistryIterator9metaClassE
ffffff800088dc40 T __ZN18IORegistryIteratorC1EPK11OSMetaClass
ffffff800088dcb0 T __ZN18IORegistryIteratorC1Ev
ffffff800088dc20 T __ZN18IORegistryIteratorC2EPK11OSMetaClass
ffffff800088dcf0 T __ZN18IORegistryIteratorC2Ev
ffffff800088c100 T __ZN18IORegistryIteratorD0Ev
ffffff800088c0f0 T __ZN18IORegistryIteratorD1Ev
ffffff800088dc60 T __ZN18IORegistryIteratorD2Ev
ffffff8000abe6d0 S __ZN18IOTimerEventSource10gMetaClassE
ffffff80008bdcd0 T __ZN18IOTimerEventSource10setTimeoutEjj
ffffff80008bdd10 T __ZN18IOTimerEventSource10setTimeoutEy
ffffff8000a18118 S __ZN18IOTimerEventSource10superClassE
ffffff80008bdda0 T __ZN18IOTimerEventSource10wakeAtTimeEjj
ffffff80008bddc0 T __ZN18IOTimerEventSource10wakeAtTimeEy
ffffff80008bdac0 T __ZN18IOTimerEventSource11setWorkLoopEP10IOWorkLoop
ffffff80008bdc90 T __ZN18IOTimerEventSource12setTimeoutMSEj
ffffff80008bdcb0 T __ZN18IOTimerEventSource12setTimeoutUSEj
ffffff80008bdd60 T __ZN18IOTimerEventSource12wakeAtTimeMSEj
ffffff80008bdd80 T __ZN18IOTimerEventSource12wakeAtTimeUSEj
ffffff80008bdea0 T __ZN18IOTimerEventSource13cancelTimeoutEv
ffffff80008bdba0 T __ZN18IOTimerEventSource14setTimeoutFuncEv
ffffff80008bdc70 T __ZN18IOTimerEventSource15setTimeoutTicksEj
ffffff80008bdd40 T __ZN18IOTimerEventSource15wakeAtTimeTicksEj
ffffff80008beb20 T __ZN18IOTimerEventSource16timerEventSourceEP8OSObjectPFvS1_PS_E
ffffff80008be070 T __ZN18IOTimerEventSource17timeoutAndReleaseEPvS0_
ffffff80008bdef0 T __ZN18IOTimerEventSource28_RESERVEDIOTimerEventSource0Ev
ffffff80008bdf20 T __ZN18IOTimerEventSource28_RESERVEDIOTimerEventSource1Ev
ffffff80008bdf50 T __ZN18IOTimerEventSource28_RESERVEDIOTimerEventSource2Ev
ffffff80008bdf80 T __ZN18IOTimerEventSource28_RESERVEDIOTimerEventSource3Ev
ffffff80008bdfb0 T __ZN18IOTimerEventSource28_RESERVEDIOTimerEventSource4Ev
ffffff80008bdfe0 T __ZN18IOTimerEventSource28_RESERVEDIOTimerEventSource5Ev
ffffff80008be010 T __ZN18IOTimerEventSource28_RESERVEDIOTimerEventSource6Ev
ffffff80008be040 T __ZN18IOTimerEventSource28_RESERVEDIOTimerEventSource7Ev
ffffff80008bda70 T __ZN18IOTimerEventSource4freeEv
ffffff80008bdc20 T __ZN18IOTimerEventSource4initEP8OSObjectPFvS1_PS_E
ffffff80008bdb10 T __ZN18IOTimerEventSource6enableEv
ffffff80008bdb50 T __ZN18IOTimerEventSource7disableEv
ffffff80008be890 T __ZN18IOTimerEventSource7timeoutEPv
ffffff80008be740 T __ZN18IOTimerEventSource9MetaClassC1Ev
ffffff80008be7d0 T __ZN18IOTimerEventSource9MetaClassC2Ev
ffffff8000a18110 S __ZN18IOTimerEventSource9metaClassE
ffffff80008be7a0 T __ZN18IOTimerEventSourceC1EPK11OSMetaClass
ffffff80008be810 T __ZN18IOTimerEventSourceC1Ev
ffffff80008be780 T __ZN18IOTimerEventSourceC2EPK11OSMetaClass
ffffff80008be850 T __ZN18IOTimerEventSourceC2Ev
ffffff80008bda20 T __ZN18IOTimerEventSourceD0Ev
ffffff80008bda10 T __ZN18IOTimerEventSourceD1Ev
ffffff80008be7c0 T __ZN18IOTimerEventSourceD2Ev
ffffff8000abebe0 S __ZN18IOUserNotification10gMetaClassE
ffffff8000a22668 S __ZN18IOUserNotification10superClassE
ffffff80008de490 T __ZN18IOUserNotification15setNotificationEP10IONotifier
ffffff80008de410 T __ZN18IOUserNotification4freeEv
ffffff80008de470 T __ZN18IOUserNotification5resetEv
ffffff80008de480 T __ZN18IOUserNotification7isValidEv
ffffff80008e2bc0 T __ZN18IOUserNotification9MetaClassC1Ev
ffffff80008e2c50 T __ZN18IOUserNotification9MetaClassC2Ev
ffffff8000a22670 S __ZN18IOUserNotification9metaClassE
ffffff80008e2c20 T __ZN18IOUserNotificationC1EPK11OSMetaClass
ffffff80008e2c00 T __ZN18IOUserNotificationC2EPK11OSMetaClass
ffffff80008de3c0 T __ZN18IOUserNotificationD0Ev
ffffff80008de3b0 T __ZN18IOUserNotificationD1Ev
ffffff80008e2c40 T __ZN18IOUserNotificationD2Ev
ffffff8000abe308 S __ZN18_IOServiceNotifier10gMetaClassE
ffffff8000a12a50 S __ZN18_IOServiceNotifier10superClassE
ffffff8000897890 T __ZN18_IOServiceNotifier4freeEv
ffffff8000897aa0 T __ZN18_IOServiceNotifier4waitEv
ffffff8000897a00 T __ZN18_IOServiceNotifier6enableEb
ffffff80008978c0 T __ZN18_IOServiceNotifier6removeEv
ffffff8000897970 T __ZN18_IOServiceNotifier7disableEv
ffffff800089af60 T __ZN18_IOServiceNotifier9MetaClassC1Ev
ffffff800089b020 T __ZN18_IOServiceNotifier9MetaClassC2Ev
ffffff8000a12a58 S __ZN18_IOServiceNotifier9metaClassE
ffffff800089afe0 T __ZN18_IOServiceNotifierC1EPK11OSMetaClass
ffffff800089b060 T __ZN18_IOServiceNotifierC1Ev
ffffff800089afa0 T __ZN18_IOServiceNotifierC2EPK11OSMetaClass
ffffff800089b0a0 T __ZN18_IOServiceNotifierC2Ev
ffffff8000897840 T __ZN18_IOServiceNotifierD0Ev
ffffff8000897830 T __ZN18_IOServiceNotifierD1Ev
ffffff800089b000 T __ZN18_IOServiceNotifierD2Ev
ffffff8000abede8 S __ZN19IOHistogramReporter10gMetaClassE
ffffff8000a254e0 S __ZN19IOHistogramReporter10superClassE
ffffff80008f7720 T __ZN19IOHistogramReporter10tallyValueEx
ffffff80008f6910 T __ZN19IOHistogramReporter18handleCreateLegendEv
ffffff80008f6810 T __ZN19IOHistogramReporter4freeEv
ffffff80008f7660 T __ZN19IOHistogramReporter4withEP9IOServicetyPKcyiP24IOHistogramSegmentConfig
ffffff80008f6a20 T __ZN19IOHistogramReporter8initWithEP9IOServicetyPK8OSSymbolyiP24IOHistogramSegmentConfig
ffffff80008f7510 T __ZN19IOHistogramReporter9MetaClassC1Ev
ffffff80008f75a0 T __ZN19IOHistogramReporter9MetaClassC2Ev
ffffff8000a254d8 S __ZN19IOHistogramReporter9metaClassE
ffffff80008f7570 T __ZN19IOHistogramReporterC1EPK11OSMetaClass
ffffff80008f75e0 T __ZN19IOHistogramReporterC1Ev
ffffff80008f7550 T __ZN19IOHistogramReporterC2EPK11OSMetaClass
ffffff80008f7620 T __ZN19IOHistogramReporterC2Ev
ffffff80008f67c0 T __ZN19IOHistogramReporterD0Ev
ffffff80008f67b0 T __ZN19IOHistogramReporterD1Ev
ffffff80008f7590 T __ZN19IOHistogramReporterD2Ev
ffffff8000abe3b0 S __ZN19IOPMCompletionQueue10gMetaClassE
ffffff8000a14308 S __ZN19IOPMCompletionQueue10superClassE
ffffff800089e7c0 T __ZN19IOPMCompletionQueue12checkForWorkEv
ffffff80008ae260 T __ZN19IOPMCompletionQueue14queuePMRequestEP11IOPMRequest
ffffff800089e860 T __ZN19IOPMCompletionQueue4initEP9IOServicePFbS1_P11IOPMRequestPS_E
ffffff80008aa040 T __ZN19IOPMCompletionQueue6createEP9IOServicePFbS1_P11IOPMRequestPS_E
ffffff80008ae7b0 T __ZN19IOPMCompletionQueue9MetaClassC1Ev
ffffff80008ae840 T __ZN19IOPMCompletionQueue9MetaClassC2Ev
ffffff8000a14310 S __ZN19IOPMCompletionQueue9metaClassE
ffffff80008ae810 T __ZN19IOPMCompletionQueueC1EPK11OSMetaClass
ffffff80008ae880 T __ZN19IOPMCompletionQueueC1Ev
ffffff80008ae7f0 T __ZN19IOPMCompletionQueueC2EPK11OSMetaClass
ffffff80008ae8c0 T __ZN19IOPMCompletionQueueC2Ev
ffffff800089e770 T __ZN19IOPMCompletionQueueD0Ev
ffffff800089e760 T __ZN19IOPMCompletionQueueD1Ev
ffffff80008ae830 T __ZN19IOPMCompletionQueueD2Ev
ffffff8000abe518 S __ZN19IOPMPowerSourceList10gMetaClassE
ffffff80008b4340 T __ZN19IOPMPowerSourceList10initializeEv
ffffff80008b43a0 T __ZN19IOPMPowerSourceList10nextInListEP15IOPMPowerSource
ffffff8000a16220 S __ZN19IOPMPowerSourceList10superClassE
ffffff80008b43c0 T __ZN19IOPMPowerSourceList11firstInListEv
ffffff80008b43d0 T __ZN19IOPMPowerSourceList13numberOfItemsEv
ffffff80008b43e0 T __ZN19IOPMPowerSourceList14removeFromListEP15IOPMPowerSource
ffffff80008b3d60 T __ZN19IOPMPowerSourceList4freeEv
ffffff80008b41f0 T __ZN19IOPMPowerSourceList9MetaClassC1Ev
ffffff80008b4280 T __ZN19IOPMPowerSourceList9MetaClassC2Ev
ffffff80008b4360 T __ZN19IOPMPowerSourceList9addToListEP15IOPMPowerSource
ffffff8000a16218 S __ZN19IOPMPowerSourceList9metaClassE
ffffff80008b4250 T __ZN19IOPMPowerSourceListC1EPK11OSMetaClass
ffffff80008b42c0 T __ZN19IOPMPowerSourceListC1Ev
ffffff80008b4230 T __ZN19IOPMPowerSourceListC2EPK11OSMetaClass
ffffff80008b4300 T __ZN19IOPMPowerSourceListC2Ev
ffffff80008b3d10 T __ZN19IOPMPowerSourceListD0Ev
ffffff80008b3d00 T __ZN19IOPMPowerSourceListD1Ev
ffffff80008b4270 T __ZN19IOPMPowerSourceListD2Ev
ffffff8000abe478 S __ZN19IOPMPowerStateQueue10gMetaClassE
ffffff8000a153c8 S __ZN19IOPMPowerStateQueue10superClassE
ffffff80008afb00 T __ZN19IOPMPowerStateQueue12checkForWorkEv
ffffff80008b01c0 T __ZN19IOPMPowerStateQueue16submitPowerEventEjPvy
ffffff80008b0130 T __ZN19IOPMPowerStateQueue17PMPowerStateQueueEP8OSObjectPFvS1_zE
ffffff80008afab0 T __ZN19IOPMPowerStateQueue4initEP8OSObjectPFvS1_zE
ffffff80008affe0 T __ZN19IOPMPowerStateQueue9MetaClassC1Ev
ffffff80008b0070 T __ZN19IOPMPowerStateQueue9MetaClassC2Ev
ffffff8000a153c0 S __ZN19IOPMPowerStateQueue9metaClassE
ffffff80008b0040 T __ZN19IOPMPowerStateQueueC1EPK11OSMetaClass
ffffff80008b00b0 T __ZN19IOPMPowerStateQueueC1Ev
ffffff80008b0020 T __ZN19IOPMPowerStateQueueC2EPK11OSMetaClass
ffffff80008b00f0 T __ZN19IOPMPowerStateQueueC2Ev
ffffff80008afa60 T __ZN19IOPMPowerStateQueueD0Ev
ffffff80008afa50 T __ZN19IOPMPowerStateQueueD1Ev
ffffff80008b0060 T __ZN19IOPMPowerStateQueueD2Ev
ffffff8000abe568 S __ZN19IOPolledFilePollers10gMetaClassE
ffffff8000a16628 S __ZN19IOPolledFilePollers10superClassE
ffffff80008b51f0 T __ZN19IOPolledFilePollers11copyPollersEP9IOService
ffffff80008b50a0 T __ZN19IOPolledFilePollers9MetaClassC1Ev
ffffff80008b5130 T __ZN19IOPolledFilePollers9MetaClassC2Ev
ffffff8000a16630 S __ZN19IOPolledFilePollers9metaClassE
ffffff80008b5100 T __ZN19IOPolledFilePollersC1EPK11OSMetaClass
ffffff80008b5170 T __ZN19IOPolledFilePollersC1Ev
ffffff80008b50e0 T __ZN19IOPolledFilePollersC2EPK11OSMetaClass
ffffff80008b51b0 T __ZN19IOPolledFilePollersC2Ev
ffffff80008b4a20 T __ZN19IOPolledFilePollersD0Ev
ffffff80008b4a10 T __ZN19IOPolledFilePollersD1Ev
ffffff80008b5120 T __ZN19IOPolledFilePollersD2Ev
ffffff8000abef60 S __ZN19PMAssertionsTracker10gMetaClassE
ffffff8000a27950 S __ZN19PMAssertionsTracker10superClassE
ffffff8000910840 T __ZN19PMAssertionsTracker12detailsForIDEyPi
ffffff800090aa50 T __ZN19PMAssertionsTracker14__OSFinalClassEv
ffffff800090fe30 T __ZN19PMAssertionsTracker15createAssertionEyjP9IOServicePKcPy
ffffff800090ff70 T __ZN19PMAssertionsTracker16releaseAssertionEy
ffffff8000910940 T __ZN19PMAssertionsTracker17getAssertionLevelEy
ffffff80009080e0 T __ZN19PMAssertionsTracker17publishPropertiesEv
ffffff800090ffe0 T __ZN19PMAssertionsTracker17setAssertionLevelEyj
ffffff8000908180 T __ZN19PMAssertionsTracker19copyAssertionsArrayEv
ffffff8000903da0 T __ZN19PMAssertionsTracker19pmAssertionsTrackerEP14IOPMrootDomain
ffffff8000906160 T __ZN19PMAssertionsTracker21handleCreateAssertionEP6OSData
ffffff8000910010 T __ZN19PMAssertionsTracker22getActivatedAssertionsEv
ffffff80009061e0 T __ZN19PMAssertionsTracker22handleReleaseAssertionEy
ffffff80009100f0 T __ZN19PMAssertionsTracker22setUserAssertionLevelsEy
ffffff8000906330 T __ZN19PMAssertionsTracker23handleSetAssertionLevelEyj
ffffff8000910080 T __ZN19PMAssertionsTracker28handleSetUserAssertionLevelsEPv
ffffff8000906700 T __ZN19PMAssertionsTracker8tabulateEv
ffffff800090a900 T __ZN19PMAssertionsTracker9MetaClassC1Ev
ffffff800090a990 T __ZN19PMAssertionsTracker9MetaClassC2Ev
ffffff8000a27948 S __ZN19PMAssertionsTracker9metaClassE
ffffff800090a960 T __ZN19PMAssertionsTrackerC1EPK11OSMetaClass
ffffff800090a9d0 T __ZN19PMAssertionsTrackerC1Ev
ffffff800090a940 T __ZN19PMAssertionsTrackerC2EPK11OSMetaClass
ffffff800090aa10 T __ZN19PMAssertionsTrackerC2Ev
ffffff80008fd110 T __ZN19PMAssertionsTrackerD0Ev
ffffff80008fd100 T __ZN19PMAssertionsTrackerD1Ev
ffffff800090a980 T __ZN19PMAssertionsTrackerD2Ev
ffffff8000abe7c0 S __ZN20IOLittleMemoryCursor10gMetaClassE
ffffff8000a19a40 S __ZN20IOLittleMemoryCursor10superClassE
ffffff80008c55a0 T __ZN20IOLittleMemoryCursor13outputSegmentEN14IOMemoryCursor15PhysicalSegmentEPvj
ffffff80008c64d0 T __ZN20IOLittleMemoryCursor17withSpecificationEyyy
ffffff80008c54e0 T __ZN20IOLittleMemoryCursor21initWithSpecificationEyyy
ffffff80008c6380 T __ZN20IOLittleMemoryCursor9MetaClassC1Ev
ffffff80008c6410 T __ZN20IOLittleMemoryCursor9MetaClassC2Ev
ffffff8000a19a48 S __ZN20IOLittleMemoryCursor9metaClassE
ffffff80008c63e0 T __ZN20IOLittleMemoryCursorC1EPK11OSMetaClass
ffffff80008c6450 T __ZN20IOLittleMemoryCursorC1Ev
ffffff80008c63c0 T __ZN20IOLittleMemoryCursorC2EPK11OSMetaClass
ffffff80008c6490 T __ZN20IOLittleMemoryCursorC2Ev
ffffff80008c5490 T __ZN20IOLittleMemoryCursorD0Ev
ffffff80008c5480 T __ZN20IOLittleMemoryCursorD1Ev
ffffff80008c6400 T __ZN20IOLittleMemoryCursorD2Ev
ffffff8000abdc10 S __ZN20OSCollectionIterator10gMetaClassE
ffffff8000a0ec28 S __ZN20OSCollectionIterator10superClassE
ffffff800083dc10 T __ZN20OSCollectionIterator13getNextObjectEv
ffffff800083e220 T __ZN20OSCollectionIterator14withCollectionEPK12OSCollection
ffffff800083dc60 T __ZN20OSCollectionIterator18initWithCollectionEPK12OSCollection
ffffff800083da60 T __ZN20OSCollectionIterator4freeEv
ffffff800083daf0 T __ZN20OSCollectionIterator5resetEv
ffffff800083db70 T __ZN20OSCollectionIterator7isValidEv
ffffff800083e0d0 T __ZN20OSCollectionIterator9MetaClassC1Ev
ffffff800083e160 T __ZN20OSCollectionIterator9MetaClassC2Ev
ffffff8000a0ec20 S __ZN20OSCollectionIterator9metaClassE
ffffff800083e130 T __ZN20OSCollectionIteratorC1EPK11OSMetaClass
ffffff800083e1a0 T __ZN20OSCollectionIteratorC1Ev
ffffff800083e110 T __ZN20OSCollectionIteratorC2EPK11OSMetaClass
ffffff800083e1e0 T __ZN20OSCollectionIteratorC2Ev
ffffff800083da10 T __ZN20OSCollectionIteratorD0Ev
ffffff800083da00 T __ZN20OSCollectionIteratorD1Ev
ffffff800083e150 T __ZN20OSCollectionIteratorD2Ev
ffffff8000abee48 S __ZN20RootDomainUserClient10gMetaClassE
ffffff8000a259a8 S __ZN20RootDomainUserClient10superClassE
ffffff80008faed0 T __ZN20RootDomainUserClient11clientCloseEv
ffffff80008fae30 T __ZN20RootDomainUserClient12initWithTaskEP4taskPvjP12OSDictionary
ffffff80008fa9b0 T __ZN20RootDomainUserClient14externalMethodEjP25IOExternalMethodArgumentsP24IOExternalMethodDispatchP8OSObjectPv
ffffff80008fb840 T __ZN20RootDomainUserClient15setPreventativeEjj
ffffff80008fb660 T __ZN20RootDomainUserClient17secureSleepSystemEPj
ffffff80008fb680 T __ZN20RootDomainUserClient23secureSetAggressivenessEmmPi
ffffff80008fb7f0 T __ZN20RootDomainUserClient24secureGetSystemSleepTypeEPj
ffffff80008faf40 T __ZN20RootDomainUserClient24secureSleepSystemOptionsEPKvyPj
ffffff80008faf10 T __ZN20RootDomainUserClient26getTargetAndMethodForIndexEPP9IOServicej
ffffff80008fb770 T __ZN20RootDomainUserClient28secureSetUserAssertionLevelsEj
ffffff80008fb710 T __ZN20RootDomainUserClient32secureSetMaintenanceWakeCalendarEP18IOPMCalendarStructPj
ffffff80008fa9a0 T __ZN20RootDomainUserClient5startEP9IOService
ffffff80008fb510 T __ZN20RootDomainUserClient9MetaClassC1Ev
ffffff80008fb5a0 T __ZN20RootDomainUserClient9MetaClassC2Ev
ffffff8000a259a0 S __ZN20RootDomainUserClient9metaClassE
ffffff80008fb570 T __ZN20RootDomainUserClientC1EPK11OSMetaClass
ffffff80008fb5e0 T __ZN20RootDomainUserClientC1Ev
ffffff80008fb550 T __ZN20RootDomainUserClientC2EPK11OSMetaClass
ffffff80008fb620 T __ZN20RootDomainUserClientC2Ev
ffffff80008fa950 T __ZN20RootDomainUserClientD0Ev
ffffff80008fa940 T __ZN20RootDomainUserClientD1Ev
ffffff80008fb590 T __ZN20RootDomainUserClientD2Ev
ffffff8000abeae8 S __ZN21IOInterruptController10gMetaClassE
ffffff80008dc6c0 T __ZN21IOInterruptController10initVectorEiP17IOInterruptVector
ffffff8000a210d8 S __ZN21IOInterruptController10superClassE
ffffff80008dc700 T __ZN21IOInterruptController11causeVectorEiP17IOInterruptVector
ffffff80008dc6f0 T __ZN21IOInterruptController12enableVectorEiP17IOInterruptVector
ffffff80008dc6d0 T __ZN21IOInterruptController13getVectorTypeEiP17IOInterruptVector
ffffff80008dc640 T __ZN21IOInterruptController14causeInterruptEP9IOServicei
ffffff80008dc520 T __ZN21IOInterruptController15enableInterruptEP9IOServicei
ffffff80008dc6a0 T __ZN21IOInterruptController15handleInterruptEPvP9IOServicei
ffffff80008dc5d0 T __ZN21IOInterruptController16disableInterruptEP9IOServicei
ffffff80008dc4c0 T __ZN21IOInterruptController16getInterruptTypeEP9IOServiceiPi
ffffff80008dc6e0 T __ZN21IOInterruptController17disableVectorHardEiP17IOInterruptVector
ffffff80008dbf30 T __ZN21IOInterruptController17registerInterruptEP9IOServiceiPvPFvS2_S2_S2_iES2_
ffffff80008dc6b0 T __ZN21IOInterruptController17vectorCanBeSharedEiP17IOInterruptVector
ffffff80008dc3c0 T __ZN21IOInterruptController19unregisterInterruptEP9IOServicei
ffffff80008dc690 T __ZN21IOInterruptController26getInterruptHandlerAddressEv
ffffff80008dc710 T __ZN21IOInterruptController31_RESERVEDIOInterruptController0Ev
ffffff80008dc740 T __ZN21IOInterruptController31_RESERVEDIOInterruptController1Ev
ffffff80008dc770 T __ZN21IOInterruptController31_RESERVEDIOInterruptController2Ev
ffffff80008dc7a0 T __ZN21IOInterruptController31_RESERVEDIOInterruptController3Ev
ffffff80008dc7d0 T __ZN21IOInterruptController31_RESERVEDIOInterruptController4Ev
ffffff80008dc800 T __ZN21IOInterruptController31_RESERVEDIOInterruptController5Ev
ffffff80008dda00 T __ZN21IOInterruptController9MetaClassC1Ev
ffffff80008dda90 T __ZN21IOInterruptController9MetaClassC2Ev
ffffff8000a210d0 S __ZN21IOInterruptController9metaClassE
ffffff80008dda60 T __ZN21IOInterruptControllerC1EPK11OSMetaClass
ffffff80008dda40 T __ZN21IOInterruptControllerC2EPK11OSMetaClass
ffffff80008dbee0 T __ZN21IOInterruptControllerD0Ev
ffffff80008dbed0 T __ZN21IOInterruptControllerD1Ev
ffffff80008dda80 T __ZN21IOInterruptControllerD2Ev
ffffff8000abe810 S __ZN21IONaturalMemoryCursor10gMetaClassE
ffffff8000a19a60 S __ZN21IONaturalMemoryCursor10superClassE
ffffff80008c4dc0 T __ZN21IONaturalMemoryCursor13outputSegmentEN14IOMemoryCursor15PhysicalSegmentEPvj
ffffff80008c6110 T __ZN21IONaturalMemoryCursor17withSpecificationEyyy
ffffff80008c4d00 T __ZN21IONaturalMemoryCursor21initWithSpecificationEyyy
ffffff80008c5fc0 T __ZN21IONaturalMemoryCursor9MetaClassC1Ev
ffffff80008c6050 T __ZN21IONaturalMemoryCursor9MetaClassC2Ev
ffffff8000a19a68 S __ZN21IONaturalMemoryCursor9metaClassE
ffffff80008c6020 T __ZN21IONaturalMemoryCursorC1EPK11OSMetaClass
ffffff80008c6090 T __ZN21IONaturalMemoryCursorC1Ev
ffffff80008c6000 T __ZN21IONaturalMemoryCursorC2EPK11OSMetaClass
ffffff80008c60d0 T __ZN21IONaturalMemoryCursorC2Ev
ffffff80008c4cb0 T __ZN21IONaturalMemoryCursorD0Ev
ffffff80008c4ca0 T __ZN21IONaturalMemoryCursorD1Ev
ffffff80008c6040 T __ZN21IONaturalMemoryCursorD2Ev
ffffff8000abe918 S __ZN21IOSubMemoryDescriptor10gMetaClassE
ffffff8000a1b128 S __ZN21IOSubMemoryDescriptor10superClassE
ffffff80008d0510 T __ZN21IOSubMemoryDescriptor11makeMappingEP18IOMemoryDescriptorP4taskyjyy
ffffff80008d0530 T __ZN21IOSubMemoryDescriptor12initSubRangeEP18IOMemoryDescriptoryyj
ffffff80008d0370 T __ZN21IOSubMemoryDescriptor12setPurgeableEjPj
ffffff80008d0b50 T __ZN21IOSubMemoryDescriptor12withSubRangeEP18IOMemoryDescriptoryyj
ffffff80008d0bf0 T __ZN21IOSubMemoryDescriptor13getPageCountsEPyS0_
ffffff80008d0400 T __ZN21IOSubMemoryDescriptor16getPreparationIDEv
ffffff80008d0390 T __ZN21IOSubMemoryDescriptor18getPhysicalSegmentEyPyj
ffffff80008d0340 T __ZN21IOSubMemoryDescriptor4freeEv
ffffff80008d0490 T __ZN21IOSubMemoryDescriptor7prepareEj
ffffff80008d04b0 T __ZN21IOSubMemoryDescriptor8completeEj
ffffff80008d04d0 T __ZN21IOSubMemoryDescriptor8redirectEP4taskb
ffffff80008d0a00 T __ZN21IOSubMemoryDescriptor9MetaClassC1Ev
ffffff80008d0a90 T __ZN21IOSubMemoryDescriptor9MetaClassC2Ev
ffffff8000a1b120 S __ZN21IOSubMemoryDescriptor9metaClassE
ffffff80008d0a60 T __ZN21IOSubMemoryDescriptorC1EPK11OSMetaClass
ffffff80008d0ad0 T __ZN21IOSubMemoryDescriptorC1Ev
ffffff80008d0a40 T __ZN21IOSubMemoryDescriptorC2EPK11OSMetaClass
ffffff80008d0b10 T __ZN21IOSubMemoryDescriptorC2Ev
ffffff80008d02f0 T __ZN21IOSubMemoryDescriptorD0Ev
ffffff80008d02e0 T __ZN21IOSubMemoryDescriptorD1Ev
ffffff80008d0a80 T __ZN21IOSubMemoryDescriptorD2Ev
ffffff8000abe5e0 S __ZN22IOInterruptEventSource10gMetaClassE
ffffff8000a16f10 S __ZN22IOInterruptEventSource10superClassE
ffffff80008b9280 T __ZN22IOInterruptEventSource11setWorkLoopEP10IOWorkLoop
ffffff80008b8e70 T __ZN22IOInterruptEventSource12checkForWorkEv
ffffff80008b94d0 T __ZN22IOInterruptEventSource17interruptOccurredEPvP9IOServicei
ffffff80008b9f10 T __ZN22IOInterruptEventSource20interruptEventSourceEP8OSObjectPFvS1_PS_iEP9IOServicei
ffffff80008b9500 T __ZN22IOInterruptEventSource23normalInterruptOccurredEPvP9IOServicei
ffffff80008b95e0 T __ZN22IOInterruptEventSource24disableInterruptOccurredEPvP9IOServicei
ffffff80008b9850 T __ZN22IOInterruptEventSource24registerInterruptHandlerEP9IOServicei
ffffff80008b9eb0 T __ZN22IOInterruptEventSource26unregisterInterruptHandlerEP9IOServicei
ffffff80008b96d0 T __ZN22IOInterruptEventSource32_RESERVEDIOInterruptEventSource0Ev
ffffff80008b9700 T __ZN22IOInterruptEventSource32_RESERVEDIOInterruptEventSource1Ev
ffffff80008b9730 T __ZN22IOInterruptEventSource32_RESERVEDIOInterruptEventSource2Ev
ffffff80008b9760 T __ZN22IOInterruptEventSource32_RESERVEDIOInterruptEventSource3Ev
ffffff80008b9790 T __ZN22IOInterruptEventSource32_RESERVEDIOInterruptEventSource4Ev
ffffff80008b97c0 T __ZN22IOInterruptEventSource32_RESERVEDIOInterruptEventSource5Ev
ffffff80008b97f0 T __ZN22IOInterruptEventSource32_RESERVEDIOInterruptEventSource6Ev
ffffff80008b9820 T __ZN22IOInterruptEventSource32_RESERVEDIOInterruptEventSource7Ev
ffffff80008b8de0 T __ZN22IOInterruptEventSource4freeEv
ffffff80008b93b0 T __ZN22IOInterruptEventSource4initEP8OSObjectPFvS1_PS_iEP9IOServicei
ffffff80008b9330 T __ZN22IOInterruptEventSource6enableEv
ffffff80008b9370 T __ZN22IOInterruptEventSource7disableEv
ffffff80008b9fb0 T __ZN22IOInterruptEventSource7warmCPUEy
ffffff80008b9d60 T __ZN22IOInterruptEventSource9MetaClassC1Ev
ffffff80008b9df0 T __ZN22IOInterruptEventSource9MetaClassC2Ev
ffffff8000a16f08 S __ZN22IOInterruptEventSource9metaClassE
ffffff80008b9dc0 T __ZN22IOInterruptEventSourceC1EPK11OSMetaClass
ffffff80008b9e30 T __ZN22IOInterruptEventSourceC1Ev
ffffff80008b9da0 T __ZN22IOInterruptEventSourceC2EPK11OSMetaClass
ffffff80008b9e70 T __ZN22IOInterruptEventSourceC2Ev
ffffff80008b8d90 T __ZN22IOInterruptEventSourceD0Ev
ffffff80008b8d80 T __ZN22IOInterruptEventSourceD1Ev
ffffff80008b9de0 T __ZN22IOInterruptEventSourceD2Ev
ffffff8000abec80 S __ZN22IOKitDiagnosticsClient10gMetaClassE
ffffff8000a23c88 S __ZN22IOKitDiagnosticsClient10superClassE
ffffff80008ea3e0 T __ZN22IOKitDiagnosticsClient11clientCloseEv
ffffff80008ea3a0 T __ZN22IOKitDiagnosticsClient13setPropertiesEP8OSObject
ffffff80008ea3b0 T __ZN22IOKitDiagnosticsClient14externalMethodEjP25IOExternalMethodArgumentsP24IOExternalMethodDispatchP8OSObjectPv
ffffff80008eaf60 T __ZN22IOKitDiagnosticsClient8withTaskEP4task
ffffff80008eae10 T __ZN22IOKitDiagnosticsClient9MetaClassC1Ev
ffffff80008eaea0 T __ZN22IOKitDiagnosticsClient9MetaClassC2Ev
ffffff8000a23c90 S __ZN22IOKitDiagnosticsClient9metaClassE
ffffff80008eae70 T __ZN22IOKitDiagnosticsClientC1EPK11OSMetaClass
ffffff80008eaee0 T __ZN22IOKitDiagnosticsClientC1Ev
ffffff80008eae50 T __ZN22IOKitDiagnosticsClientC2EPK11OSMetaClass
ffffff80008eaf20 T __ZN22IOKitDiagnosticsClientC2Ev
ffffff80008ea350 T __ZN22IOKitDiagnosticsClientD0Ev
ffffff80008ea340 T __ZN22IOKitDiagnosticsClientD1Ev
ffffff80008eae90 T __ZN22IOKitDiagnosticsClientD2Ev
ffffff8000abe9b8 S __ZN22IOPlatformExpertDevice10gMetaClassE
ffffff8000a1be78 S __ZN22IOPlatformExpertDevice10superClassE
ffffff80008d3330 T __ZN22IOPlatformExpertDevice12initWithArgsEPvS0_S0_S0_
ffffff80008d32a0 T __ZN22IOPlatformExpertDevice13newUserClientEP4taskPvjP12OSDictionaryPP12IOUserClient
ffffff80008d30c0 T __ZN22IOPlatformExpertDevice13setPropertiesEP8OSObject
ffffff80008d33a0 T __ZN22IOPlatformExpertDevice32_RESERVEDIOPlatformExpertDevice0Ev
ffffff80008d33d0 T __ZN22IOPlatformExpertDevice32_RESERVEDIOPlatformExpertDevice1Ev
ffffff80008d3400 T __ZN22IOPlatformExpertDevice32_RESERVEDIOPlatformExpertDevice2Ev
ffffff80008d3430 T __ZN22IOPlatformExpertDevice32_RESERVEDIOPlatformExpertDevice3Ev
ffffff80008d30a0 T __ZN22IOPlatformExpertDevice4freeEv
ffffff80008d5530 T __ZN22IOPlatformExpertDevice9MetaClassC1Ev
ffffff80008d55c0 T __ZN22IOPlatformExpertDevice9MetaClassC2Ev
ffffff8000a1be80 S __ZN22IOPlatformExpertDevice9metaClassE
ffffff80008d5590 T __ZN22IOPlatformExpertDeviceC1EPK11OSMetaClass
ffffff80008d5600 T __ZN22IOPlatformExpertDeviceC1Ev
ffffff80008d5570 T __ZN22IOPlatformExpertDeviceC2EPK11OSMetaClass
ffffff80008d5640 T __ZN22IOPlatformExpertDeviceC2Ev
ffffff80008d3050 T __ZN22IOPlatformExpertDeviceD0Ev
ffffff80008d3040 T __ZN22IOPlatformExpertDeviceD1Ev
ffffff80008d55b0 T __ZN22IOPlatformExpertDeviceD2Ev
ffffff8000abe240 S __ZN22_IOOpenServiceIterator10gMetaClassE
ffffff8000a12a00 S __ZN22_IOOpenServiceIterator10superClassE
ffffff8000891f30 T __ZN22_IOOpenServiceIterator13getNextObjectEv
ffffff8000891e80 T __ZN22_IOOpenServiceIterator4freeEv
ffffff8000891ed0 T __ZN22_IOOpenServiceIterator5resetEv
ffffff8000891f10 T __ZN22_IOOpenServiceIterator7isValidEv
ffffff800089c160 T __ZN22_IOOpenServiceIterator8iteratorEP10OSIteratorPK9IOServiceS4_
ffffff800089b620 T __ZN22_IOOpenServiceIterator9MetaClassC1Ev
ffffff800089b6b0 T __ZN22_IOOpenServiceIterator9MetaClassC2Ev
ffffff8000a12a08 S __ZN22_IOOpenServiceIterator9metaClassE
ffffff800089b680 T __ZN22_IOOpenServiceIteratorC1EPK11OSMetaClass
ffffff800089b6f0 T __ZN22_IOOpenServiceIteratorC1Ev
ffffff800089b660 T __ZN22_IOOpenServiceIteratorC2EPK11OSMetaClass
ffffff800089b730 T __ZN22_IOOpenServiceIteratorC2Ev
ffffff8000891e30 T __ZN22_IOOpenServiceIteratorD0Ev
ffffff8000891e20 T __ZN22_IOOpenServiceIteratorD1Ev
ffffff800089b6a0 T __ZN22_IOOpenServiceIteratorD2Ev
ffffff8000abe8c0 S __ZN23IOMultiMemoryDescriptor10gMetaClassE
ffffff8000a1ab58 S __ZN23IOMultiMemoryDescriptor10superClassE
ffffff80008ce750 T __ZN23IOMultiMemoryDescriptor12setPurgeableEjPj
ffffff80008cf390 T __ZN23IOMultiMemoryDescriptor13getPageCountsEPyS0_
ffffff80008cf2f0 T __ZN23IOMultiMemoryDescriptor15withDescriptorsEPP18IOMemoryDescriptorjjb
ffffff80008ce800 T __ZN23IOMultiMemoryDescriptor18getPhysicalSegmentEyPyj
ffffff80008ceba0 T __ZN23IOMultiMemoryDescriptor19initWithDescriptorsEPP18IOMemoryDescriptorjjb
ffffff80008ce6c0 T __ZN23IOMultiMemoryDescriptor4freeEv
ffffff80008ce9e0 T __ZN23IOMultiMemoryDescriptor5doMapEP7_vm_mapPyjyy
ffffff80008ce8b0 T __ZN23IOMultiMemoryDescriptor7prepareEj
ffffff80008ce970 T __ZN23IOMultiMemoryDescriptor8completeEj
ffffff80008cf1a0 T __ZN23IOMultiMemoryDescriptor9MetaClassC1Ev
ffffff80008cf230 T __ZN23IOMultiMemoryDescriptor9MetaClassC2Ev
ffffff8000a1ab50 S __ZN23IOMultiMemoryDescriptor9metaClassE
ffffff80008cf200 T __ZN23IOMultiMemoryDescriptorC1EPK11OSMetaClass
ffffff80008cf270 T __ZN23IOMultiMemoryDescriptorC1Ev
ffffff80008cf1e0 T __ZN23IOMultiMemoryDescriptorC2EPK11OSMetaClass
ffffff80008cf2b0 T __ZN23IOMultiMemoryDescriptorC2Ev
ffffff80008ce670 T __ZN23IOMultiMemoryDescriptorD0Ev
ffffff80008ce660 T __ZN23IOMultiMemoryDescriptorD1Ev
ffffff80008cf220 T __ZN23IOMultiMemoryDescriptorD2Ev
ffffff8000abe6f8 S __ZN24IOBufferMemoryDescriptor10gMetaClassE
ffffff8000a18488 S __ZN24IOBufferMemoryDescriptor10superClassE
ffffff80008bf780 T __ZN24IOBufferMemoryDescriptor11appendBytesEPKvm
ffffff80008bff00 T __ZN24IOBufferMemoryDescriptor11withOptionsEjmm
ffffff80008bf6e0 T __ZN24IOBufferMemoryDescriptor12setDirectionEj
ffffff80008bffa0 T __ZN24IOBufferMemoryDescriptor12withCapacityEmjb
ffffff80008bf740 T __ZN24IOBufferMemoryDescriptor14getBytesNoCopyEmm
ffffff80008bf710 T __ZN24IOBufferMemoryDescriptor14getBytesNoCopyEv
ffffff80008bfdc0 T __ZN24IOBufferMemoryDescriptor17inTaskWithOptionsEP4taskjmm
ffffff80008bedc0 T __ZN24IOBufferMemoryDescriptor20initWithPhysicalMaskEP4taskjyyy
ffffff80008bfe60 T __ZN24IOBufferMemoryDescriptor22inTaskWithPhysicalMaskEP4taskjyy
ffffff80008bf3c0 T __ZN24IOBufferMemoryDescriptor34_RESERVEDIOBufferMemoryDescriptor0Ev
ffffff80008bf3f0 T __ZN24IOBufferMemoryDescriptor34_RESERVEDIOBufferMemoryDescriptor1Ev
ffffff80008bf420 T __ZN24IOBufferMemoryDescriptor34_RESERVEDIOBufferMemoryDescriptor2Ev
ffffff80008bf450 T __ZN24IOBufferMemoryDescriptor34_RESERVEDIOBufferMemoryDescriptor3Ev
ffffff80008bf480 T __ZN24IOBufferMemoryDescriptor34_RESERVEDIOBufferMemoryDescriptor4Ev
ffffff80008bf4b0 T __ZN24IOBufferMemoryDescriptor34_RESERVEDIOBufferMemoryDescriptor5Ev
ffffff80008bf4e0 T __ZN24IOBufferMemoryDescriptor34_RESERVEDIOBufferMemoryDescriptor6Ev
ffffff80008bf510 T __ZN24IOBufferMemoryDescriptor34_RESERVEDIOBufferMemoryDescriptor7Ev
ffffff80008bf540 T __ZN24IOBufferMemoryDescriptor34_RESERVEDIOBufferMemoryDescriptor8Ev
ffffff80008bf570 T __ZN24IOBufferMemoryDescriptor34_RESERVEDIOBufferMemoryDescriptor9Ev
ffffff80008bf5a0 T __ZN24IOBufferMemoryDescriptor35_RESERVEDIOBufferMemoryDescriptor10Ev
ffffff80008bf5d0 T __ZN24IOBufferMemoryDescriptor35_RESERVEDIOBufferMemoryDescriptor11Ev
ffffff80008bf600 T __ZN24IOBufferMemoryDescriptor35_RESERVEDIOBufferMemoryDescriptor12Ev
ffffff80008bf630 T __ZN24IOBufferMemoryDescriptor35_RESERVEDIOBufferMemoryDescriptor13Ev
ffffff80008bf660 T __ZN24IOBufferMemoryDescriptor35_RESERVEDIOBufferMemoryDescriptor14Ev
ffffff80008bf690 T __ZN24IOBufferMemoryDescriptor35_RESERVEDIOBufferMemoryDescriptor15Ev
ffffff80008bec10 T __ZN24IOBufferMemoryDescriptor4freeEv
ffffff80008bfc70 T __ZN24IOBufferMemoryDescriptor9MetaClassC1Ev
ffffff80008bfd00 T __ZN24IOBufferMemoryDescriptor9MetaClassC2Ev
ffffff8000a18480 S __ZN24IOBufferMemoryDescriptor9metaClassE
ffffff80008bf6c0 T __ZN24IOBufferMemoryDescriptor9setLengthEm
ffffff80008c0050 T __ZN24IOBufferMemoryDescriptor9withBytesEPKvmjb
ffffff80008bfcd0 T __ZN24IOBufferMemoryDescriptorC1EPK11OSMetaClass
ffffff80008bfd40 T __ZN24IOBufferMemoryDescriptorC1Ev
ffffff80008bfcb0 T __ZN24IOBufferMemoryDescriptorC2EPK11OSMetaClass
ffffff80008bfd80 T __ZN24IOBufferMemoryDescriptorC2Ev
ffffff80008bebc0 T __ZN24IOBufferMemoryDescriptorD0Ev
ffffff80008bebb0 T __ZN24IOBufferMemoryDescriptorD1Ev
ffffff80008bfcf0 T __ZN24IOBufferMemoryDescriptorD2Ev
ffffff8000abea70 S __ZN24IOCPUInterruptController10gMetaClassE
ffffff8000a1f188 S __ZN24IOCPUInterruptController10superClassE
ffffff80008d63f0 T __ZN24IOCPUInterruptController14causeInterruptEP9IOServicei
ffffff80008d63d0 T __ZN24IOCPUInterruptController15enableInterruptEP9IOServicei
ffffff80008d6410 T __ZN24IOCPUInterruptController15handleInterruptEPvP9IOServicei
ffffff80008d63e0 T __ZN24IOCPUInterruptController16disableInterruptEP9IOServicei
ffffff80008d63b0 T __ZN24IOCPUInterruptController16getInterruptTypeEP9IOServiceiPi
ffffff80008d6210 T __ZN24IOCPUInterruptController17registerInterruptEP9IOServiceiPvPFvS2_S2_S2_iES2_
ffffff80008d6710 T __ZN24IOCPUInterruptController18enableCPUInterruptEP5IOCPU
ffffff80008d65e0 T __ZN24IOCPUInterruptController25setCPUInterruptPropertiesEP9IOService
ffffff80008d6450 T __ZN24IOCPUInterruptController26initCPUInterruptControllerEi
ffffff80008d65a0 T __ZN24IOCPUInterruptController30registerCPUInterruptControllerEv
ffffff80008d6790 T __ZN24IOCPUInterruptController34_RESERVEDIOCPUInterruptController0Ev
ffffff80008d67c0 T __ZN24IOCPUInterruptController34_RESERVEDIOCPUInterruptController1Ev
ffffff80008d67f0 T __ZN24IOCPUInterruptController34_RESERVEDIOCPUInterruptController2Ev
ffffff80008d6820 T __ZN24IOCPUInterruptController34_RESERVEDIOCPUInterruptController3Ev
ffffff80008d6850 T __ZN24IOCPUInterruptController34_RESERVEDIOCPUInterruptController4Ev
ffffff80008d6880 T __ZN24IOCPUInterruptController34_RESERVEDIOCPUInterruptController5Ev
ffffff80008d7e40 T __ZN24IOCPUInterruptController9MetaClassC1Ev
ffffff80008d7ed0 T __ZN24IOCPUInterruptController9MetaClassC2Ev
ffffff8000a1f190 S __ZN24IOCPUInterruptController9metaClassE
ffffff80008d7ea0 T __ZN24IOCPUInterruptControllerC1EPK11OSMetaClass
ffffff80008d7f10 T __ZN24IOCPUInterruptControllerC1Ev
ffffff80008d7e80 T __ZN24IOCPUInterruptControllerC2EPK11OSMetaClass
ffffff80008d7f50 T __ZN24IOCPUInterruptControllerC2Ev
ffffff80008d61c0 T __ZN24IOCPUInterruptControllerD0Ev
ffffff80008d61b0 T __ZN24IOCPUInterruptControllerD1Ev
ffffff80008d7ec0 T __ZN24IOCPUInterruptControllerD2Ev
ffffff8000abe898 S __ZN25IOGeneralMemoryDescriptor10gMetaClassE
ffffff8000a1a478 S __ZN25IOGeneralMemoryDescriptor10superClassE
ffffff80008cb1b0 T __ZN25IOGeneralMemoryDescriptor11wireVirtualEj
ffffff80008c8720 T __ZN25IOGeneralMemoryDescriptor12setPurgeableEjPj
ffffff80008c8010 T __ZN25IOGeneralMemoryDescriptor15initWithOptionsEPvjjP4taskjP8IOMapper
ffffff80008c93f0 T __ZN25IOGeneralMemoryDescriptor16getPreparationIDEv
ffffff80008cb980 T __ZN25IOGeneralMemoryDescriptor17initMemoryEntriesEmP8IOMapper
ffffff80008c9100 T __ZN25IOGeneralMemoryDescriptor18getPhysicalSegmentEyPyj
ffffff80008ca7f0 T __ZN25IOGeneralMemoryDescriptor18memoryReferenceMapEP17IOMemoryReferenceP7_vm_mapyyjPy
ffffff80008cd7a0 T __ZN25IOGeneralMemoryDescriptor19memoryReferenceFreeEP17IOMemoryReference
ffffff80008cb0f0 T __ZN25IOGeneralMemoryDescriptor20memoryReferenceAllocEjP17IOMemoryReference
ffffff80008c9cc0 T __ZN25IOGeneralMemoryDescriptor21memoryReferenceCreateEjPP17IOMemoryReference
ffffff80008cd810 T __ZN25IOGeneralMemoryDescriptor22memoryReferenceReleaseEP17IOMemoryReference
ffffff80008cd980 T __ZN25IOGeneralMemoryDescriptor27memoryReferenceSetPurgeableEP17IOMemoryReferencejPj
ffffff80008cd8d0 T __ZN25IOGeneralMemoryDescriptor28memoryReferenceGetPageCountsEP17IOMemoryReferencePyS2_
ffffff80008cdee0 T __ZN25IOGeneralMemoryDescriptor30withPersistentMemoryDescriptorEPS_
ffffff80008c7dc0 T __ZN25IOGeneralMemoryDescriptor4freeEv
ffffff80008c97e0 T __ZN25IOGeneralMemoryDescriptor5doMapEP7_vm_mapPyjyy
ffffff80008cba50 T __ZN25IOGeneralMemoryDescriptor6dmaMapEP8IOMapperP12IODMACommandPK21IODMAMapSpecificationyyPyS7_
ffffff80008c9bd0 T __ZN25IOGeneralMemoryDescriptor7doUnmapEP7_vm_mapyy
ffffff80008c94c0 T __ZN25IOGeneralMemoryDescriptor7prepareEj
ffffff80008c9570 T __ZN25IOGeneralMemoryDescriptor8completeEj
ffffff80008cd4e0 T __ZN25IOGeneralMemoryDescriptor9MetaClassC1Ev
ffffff80008cd570 T __ZN25IOGeneralMemoryDescriptor9MetaClassC2Ev
ffffff8000a1a480 S __ZN25IOGeneralMemoryDescriptor9metaClassE
ffffff80008cd540 T __ZN25IOGeneralMemoryDescriptorC1EPK11OSMetaClass
ffffff80008cd5b0 T __ZN25IOGeneralMemoryDescriptorC1Ev
ffffff80008cd520 T __ZN25IOGeneralMemoryDescriptorC2EPK11OSMetaClass
ffffff80008cd5f0 T __ZN25IOGeneralMemoryDescriptorC2Ev
ffffff80008c7a20 T __ZN25IOGeneralMemoryDescriptorD0Ev
ffffff80008c7a10 T __ZN25IOGeneralMemoryDescriptorD1Ev
ffffff80008cd560 T __ZN25IOGeneralMemoryDescriptorD2Ev
ffffff8000abebb8 S __ZN25IOServiceUserNotification10gMetaClassE
ffffff8000a22658 S __ZN25IOServiceUserNotification10superClassE
ffffff80008de890 T __ZN25IOServiceUserNotification13getNextObjectEv
ffffff80008de7c0 T __ZN25IOServiceUserNotification4freeEv
ffffff80008de920 T __ZN25IOServiceUserNotification4initEP8ipc_portjPvmb
ffffff80008de9e0 T __ZN25IOServiceUserNotification7handlerEPvP9IOService
ffffff80008e2de0 T __ZN25IOServiceUserNotification8_handlerEPvS0_P9IOServiceP10IONotifier
ffffff80008e2c90 T __ZN25IOServiceUserNotification9MetaClassC1Ev
ffffff80008e2d20 T __ZN25IOServiceUserNotification9MetaClassC2Ev
ffffff8000a22660 S __ZN25IOServiceUserNotification9metaClassE
ffffff80008e2cf0 T __ZN25IOServiceUserNotificationC1EPK11OSMetaClass
ffffff80008e2d60 T __ZN25IOServiceUserNotificationC1Ev
ffffff80008e2cd0 T __ZN25IOServiceUserNotificationC2EPK11OSMetaClass
ffffff80008e2da0 T __ZN25IOServiceUserNotificationC2Ev
ffffff80008de770 T __ZN25IOServiceUserNotificationD0Ev
ffffff80008de760 T __ZN25IOServiceUserNotificationD1Ev
ffffff80008e2d10 T __ZN25IOServiceUserNotificationD2Ev
ffffff8000abe2e0 S __ZN26_IOServiceInterestNotifier10gMetaClassE
ffffff8000a12a40 S __ZN26_IOServiceInterestNotifier10superClassE
ffffff8000891720 T __ZN26_IOServiceInterestNotifier4freeEv
ffffff8000891700 T __ZN26_IOServiceInterestNotifier4initEv
ffffff80008919a0 T __ZN26_IOServiceInterestNotifier4waitEv
ffffff8000891900 T __ZN26_IOServiceInterestNotifier6enableEb
ffffff8000891750 T __ZN26_IOServiceInterestNotifier6removeEv
ffffff8000891870 T __ZN26_IOServiceInterestNotifier7disableEv
ffffff800089b0e0 T __ZN26_IOServiceInterestNotifier9MetaClassC1Ev
ffffff800089b170 T __ZN26_IOServiceInterestNotifier9MetaClassC2Ev
ffffff8000a12a48 S __ZN26_IOServiceInterestNotifier9metaClassE
ffffff800089b140 T __ZN26_IOServiceInterestNotifierC1EPK11OSMetaClass
ffffff800089b1b0 T __ZN26_IOServiceInterestNotifierC1Ev
ffffff800089b120 T __ZN26_IOServiceInterestNotifierC2EPK11OSMetaClass
ffffff800089b1f0 T __ZN26_IOServiceInterestNotifierC2Ev
ffffff80008916b0 T __ZN26_IOServiceInterestNotifierD0Ev
ffffff80008916a0 T __ZN26_IOServiceInterestNotifierD1Ev
ffffff800089b160 T __ZN26_IOServiceInterestNotifierD2Ev
ffffff8000abf028 S __ZN27IOPMServiceInterestNotifier10gMetaClassE
ffffff8000a27ac8 S __ZN27IOPMServiceInterestNotifier10superClassE
ffffff800090ed80 T __ZN27IOPMServiceInterestNotifier9MetaClassC1Ev
ffffff800090ee10 T __ZN27IOPMServiceInterestNotifier9MetaClassC2Ev
ffffff8000a27ad0 S __ZN27IOPMServiceInterestNotifier9metaClassE
ffffff800090ede0 T __ZN27IOPMServiceInterestNotifierC1EPK11OSMetaClass
ffffff800090ee50 T __ZN27IOPMServiceInterestNotifierC1Ev
ffffff800090edc0 T __ZN27IOPMServiceInterestNotifierC2EPK11OSMetaClass
ffffff800090ee90 T __ZN27IOPMServiceInterestNotifierC2Ev
ffffff8000903b70 T __ZN27IOPMServiceInterestNotifierD0Ev
ffffff8000903b60 T __ZN27IOPMServiceInterestNotifierD1Ev
ffffff800090ee00 T __ZN27IOPMServiceInterestNotifierD2Ev
ffffff8000abeb10 S __ZN27IOSharedInterruptController10gMetaClassE
ffffff8000a219e8 S __ZN27IOSharedInterruptController10superClassE
ffffff80008dcbc0 T __ZN27IOSharedInterruptController15enableInterruptEP9IOServicei
ffffff80008dcdd0 T __ZN27IOSharedInterruptController15handleInterruptEPvP9IOServicei
ffffff80008dccf0 T __ZN27IOSharedInterruptController16disableInterruptEP9IOServicei
ffffff80008dcba0 T __ZN27IOSharedInterruptController16getInterruptTypeEP9IOServiceiPi
ffffff80008dc890 T __ZN27IOSharedInterruptController17registerInterruptEP9IOServiceiPvPFvS2_S2_S2_iES2_
ffffff80008dca30 T __ZN27IOSharedInterruptController19unregisterInterruptEP9IOServicei
ffffff80008dcf50 T __ZN27IOSharedInterruptController23initInterruptControllerEP21IOInterruptControllerP6OSData
ffffff80008dcdc0 T __ZN27IOSharedInterruptController26getInterruptHandlerAddressEv
ffffff80008dd150 T __ZN27IOSharedInterruptController37_RESERVEDIOSharedInterruptController0Ev
ffffff80008dd180 T __ZN27IOSharedInterruptController37_RESERVEDIOSharedInterruptController1Ev
ffffff80008dd1b0 T __ZN27IOSharedInterruptController37_RESERVEDIOSharedInterruptController2Ev
ffffff80008dd1e0 T __ZN27IOSharedInterruptController37_RESERVEDIOSharedInterruptController3Ev
ffffff80008ddb10 T __ZN27IOSharedInterruptController9MetaClassC1Ev
ffffff80008ddba0 T __ZN27IOSharedInterruptController9MetaClassC2Ev
ffffff8000a219f0 S __ZN27IOSharedInterruptController9metaClassE
ffffff80008ddb70 T __ZN27IOSharedInterruptControllerC1EPK11OSMetaClass
ffffff80008ddad0 T __ZN27IOSharedInterruptControllerC1Ev
ffffff80008ddb50 T __ZN27IOSharedInterruptControllerC2EPK11OSMetaClass
ffffff80008ddbe0 T __ZN27IOSharedInterruptControllerC2Ev
ffffff80008dc840 T __ZN27IOSharedInterruptControllerD0Ev
ffffff80008dc830 T __ZN27IOSharedInterruptControllerD1Ev
ffffff80008ddb90 T __ZN27IOSharedInterruptControllerD2Ev
ffffff8000abe6a8 S __ZN28IOFilterInterruptEventSource10gMetaClassE
ffffff8000a17d80 S __ZN28IOFilterInterruptEventSource10superClassE
ffffff80008bd170 T __ZN28IOFilterInterruptEventSource15signalInterruptEv
ffffff80008bd950 T __ZN28IOFilterInterruptEventSource20interruptEventSourceEP8OSObjectPFvS1_P22IOInterruptEventSourceiEP9IOServicei
ffffff80008bcd00 T __ZN28IOFilterInterruptEventSource23normalInterruptOccurredEPvP9IOServicei
ffffff80008bcf00 T __ZN28IOFilterInterruptEventSource24disableInterruptOccurredEPvP9IOServicei
ffffff80008bd960 T __ZN28IOFilterInterruptEventSource26filterInterruptEventSourceEP8OSObjectPFvS1_P22IOInterruptEventSourceiEPFbS1_PS_EP9IOServicei
ffffff80008bd250 T __ZN28IOFilterInterruptEventSource38_RESERVEDIOFilterInterruptEventSource0Ev
ffffff80008bd280 T __ZN28IOFilterInterruptEventSource38_RESERVEDIOFilterInterruptEventSource1Ev
ffffff80008bd2b0 T __ZN28IOFilterInterruptEventSource38_RESERVEDIOFilterInterruptEventSource2Ev
ffffff80008bd2e0 T __ZN28IOFilterInterruptEventSource38_RESERVEDIOFilterInterruptEventSource3Ev
ffffff80008bd310 T __ZN28IOFilterInterruptEventSource38_RESERVEDIOFilterInterruptEventSource4Ev
ffffff80008bd340 T __ZN28IOFilterInterruptEventSource38_RESERVEDIOFilterInterruptEventSource5Ev
ffffff80008bd370 T __ZN28IOFilterInterruptEventSource38_RESERVEDIOFilterInterruptEventSource6Ev
ffffff80008bd3a0 T __ZN28IOFilterInterruptEventSource38_RESERVEDIOFilterInterruptEventSource7Ev
ffffff80008bccf0 T __ZN28IOFilterInterruptEventSource4initEP8OSObjectPFvS1_P22IOInterruptEventSourceiEP9IOServicei
ffffff80008bd120 T __ZN28IOFilterInterruptEventSource4initEP8OSObjectPFvS1_P22IOInterruptEventSourceiEPFbS1_PS_EP9IOServicei
ffffff80008bd800 T __ZN28IOFilterInterruptEventSource9MetaClassC1Ev
ffffff80008bd890 T __ZN28IOFilterInterruptEventSource9MetaClassC2Ev
ffffff8000a17d78 S __ZN28IOFilterInterruptEventSource9metaClassE
ffffff80008bd860 T __ZN28IOFilterInterruptEventSourceC1EPK11OSMetaClass
ffffff80008bd8d0 T __ZN28IOFilterInterruptEventSourceC1Ev
ffffff80008bd840 T __ZN28IOFilterInterruptEventSourceC2EPK11OSMetaClass
ffffff80008bd910 T __ZN28IOFilterInterruptEventSourceC2Ev
ffffff80008bcca0 T __ZN28IOFilterInterruptEventSourceD0Ev
ffffff80008bcc90 T __ZN28IOFilterInterruptEventSourceD1Ev
ffffff80008bd880 T __ZN28IOFilterInterruptEventSourceD2Ev
ffffff8000abe748 S __ZN29IOInterleavedMemoryDescriptor10gMetaClassE
ffffff8000a18b80 S __ZN29IOInterleavedMemoryDescriptor10superClassE
ffffff80008c3310 T __ZN29IOInterleavedMemoryDescriptor12withCapacityEyj
ffffff80008c2b30 T __ZN29IOInterleavedMemoryDescriptor16initWithCapacityEyj
ffffff80008c2960 T __ZN29IOInterleavedMemoryDescriptor18getPhysicalSegmentEyPyj
ffffff80008c2cf0 T __ZN29IOInterleavedMemoryDescriptor19setMemoryDescriptorEP18IOMemoryDescriptoryy
ffffff80008c2c10 T __ZN29IOInterleavedMemoryDescriptor22clearMemoryDescriptorsEj
ffffff80008c28d0 T __ZN29IOInterleavedMemoryDescriptor4freeEv
ffffff80008c2a00 T __ZN29IOInterleavedMemoryDescriptor7prepareEj
ffffff80008c2ab0 T __ZN29IOInterleavedMemoryDescriptor8completeEj
ffffff80008c31c0 T __ZN29IOInterleavedMemoryDescriptor9MetaClassC1Ev
ffffff80008c3250 T __ZN29IOInterleavedMemoryDescriptor9MetaClassC2Ev
ffffff8000a18b78 S __ZN29IOInterleavedMemoryDescriptor9metaClassE
ffffff80008c3220 T __ZN29IOInterleavedMemoryDescriptorC1EPK11OSMetaClass
ffffff80008c3290 T __ZN29IOInterleavedMemoryDescriptorC1Ev
ffffff80008c3200 T __ZN29IOInterleavedMemoryDescriptorC2EPK11OSMetaClass
ffffff80008c32d0 T __ZN29IOInterleavedMemoryDescriptorC2Ev
ffffff80008c2880 T __ZN29IOInterleavedMemoryDescriptorD0Ev
ffffff80008c2870 T __ZN29IOInterleavedMemoryDescriptorD1Ev
ffffff80008c3240 T __ZN29IOInterleavedMemoryDescriptorD2Ev
ffffff8000abeb90 S __ZN32IOServiceMessageUserNotification10gMetaClassE
ffffff8000a22648 S __ZN32IOServiceMessageUserNotification10superClassE
ffffff80008df060 T __ZN32IOServiceMessageUserNotification13getNextObjectEv
ffffff80008defc0 T __ZN32IOServiceMessageUserNotification4freeEv
ffffff80008df070 T __ZN32IOServiceMessageUserNotification4initEP8ipc_portjPvmmb
ffffff80008df160 T __ZN32IOServiceMessageUserNotification7handlerEPvjP9IOServiceS0_m
ffffff80008e2f50 T __ZN32IOServiceMessageUserNotification8_handlerEPvS0_jP9IOServiceS0_m
ffffff80008e2e00 T __ZN32IOServiceMessageUserNotification9MetaClassC1Ev
ffffff80008e2e90 T __ZN32IOServiceMessageUserNotification9MetaClassC2Ev
ffffff8000a22650 S __ZN32IOServiceMessageUserNotification9metaClassE
ffffff80008e2e60 T __ZN32IOServiceMessageUserNotificationC1EPK11OSMetaClass
ffffff80008e2ed0 T __ZN32IOServiceMessageUserNotificationC1Ev
ffffff80008e2e40 T __ZN32IOServiceMessageUserNotificationC2EPK11OSMetaClass
ffffff80008e2f10 T __ZN32IOServiceMessageUserNotificationC2Ev
ffffff80008def70 T __ZN32IOServiceMessageUserNotificationD0Ev
ffffff80008def60 T __ZN32IOServiceMessageUserNotificationD1Ev
ffffff80008e2e80 T __ZN32IOServiceMessageUserNotificationD2Ev
ffffff8000abea48 S __ZN5IOCPU10gMetaClassE
ffffff8000a1e858 S __ZN5IOCPU10superClassE
ffffff80008d5d00 T __ZN5IOCPU11getCPUGroupEv
ffffff80008d5cf0 T __ZN5IOCPU11getCPUStateEv
ffffff80008d5c70 T __ZN5IOCPU11setCPUStateEj
ffffff80008d5940 T __ZN5IOCPU11setPropertyEPK8OSSymbolP8OSObject
ffffff80008d5ce0 T __ZN5IOCPU12getCPUNumberEv
ffffff80008d5c50 T __ZN5IOCPU12setCPUNumberEj
ffffff80008d5a10 T __ZN5IOCPU13setPropertiesEP8OSObject
ffffff80008d5d40 T __ZN5IOCPU15_RESERVEDIOCPU0Ev
ffffff80008d5d70 T __ZN5IOCPU15_RESERVEDIOCPU1Ev
ffffff80008d5da0 T __ZN5IOCPU15_RESERVEDIOCPU2Ev
ffffff80008d5dd0 T __ZN5IOCPU15_RESERVEDIOCPU3Ev
ffffff80008d5e00 T __ZN5IOCPU15_RESERVEDIOCPU4Ev
ffffff80008d5e30 T __ZN5IOCPU15_RESERVEDIOCPU5Ev
ffffff80008d5e60 T __ZN5IOCPU15_RESERVEDIOCPU6Ev
ffffff80008d5e90 T __ZN5IOCPU15_RESERVEDIOCPU7Ev
ffffff80008d5d10 T __ZN5IOCPU15getCPUGroupSizeEv
ffffff80008d5cc0 T __ZN5IOCPU15signalCPUCancelEPS_
ffffff80008d5d30 T __ZN5IOCPU16getMachProcessorEv
ffffff80008d5cd0 T __ZN5IOCPU17enableCPUTimeBaseEb
ffffff80008d5ca0 T __ZN5IOCPU17signalCPUDeferredEPS_
ffffff80008d5b00 T __ZN5IOCPU5startEP9IOService
ffffff80008d5ec0 T __ZN5IOCPU8initCPUsEv
ffffff80008d7960 T __ZN5IOCPU9MetaClassC1Ev
ffffff80008d79d0 T __ZN5IOCPU9MetaClassC2Ev
ffffff8000a1e850 S __ZN5IOCPU9metaClassE
ffffff80008d5c90 T __ZN5IOCPU9signalCPUEPS_
ffffff80008d79a0 T __ZN5IOCPUC2EPK11OSMetaClass
ffffff80008d58f0 T __ZN5IOCPUD0Ev
ffffff80008d58e0 T __ZN5IOCPUD1Ev
ffffff80008d79c0 T __ZN5IOCPUD2Ev
ffffff8000abdde8 S __ZN5OSSet10gMetaClassE
ffffff8000859a10 T __ZN5OSSet10setOptionsEjjPv
ffffff8000a106d0 S __ZN5OSSet10superClassE
ffffff8000859d50 T __ZN5OSSet11initWithSetEPKS_j
ffffff800085a820 T __ZN5OSSet11withObjectsEPPK8OSObjectjj
ffffff8000859ea0 T __ZN5OSSet12removeObjectEPK15OSMetaClassBase
ffffff800085a7a0 T __ZN5OSSet12withCapacityEj
ffffff8000859d20 T __ZN5OSSet13initWithArrayEPK7OSArrayj
ffffff8000859a50 T __ZN5OSSet14copyCollectionEP12OSDictionary
ffffff80008599a0 T __ZN5OSSet14ensureCapacityEj
ffffff800085a0a0 T __ZN5OSSet15_RESERVEDOSSet0Ev
ffffff800085a0d0 T __ZN5OSSet15_RESERVEDOSSet1Ev
ffffff800085a100 T __ZN5OSSet15_RESERVEDOSSet2Ev
ffffff800085a130 T __ZN5OSSet15_RESERVEDOSSet3Ev
ffffff800085a160 T __ZN5OSSet15_RESERVEDOSSet4Ev
ffffff800085a190 T __ZN5OSSet15_RESERVEDOSSet5Ev
ffffff800085a1c0 T __ZN5OSSet15_RESERVEDOSSet6Ev
ffffff800085a1f0 T __ZN5OSSet15_RESERVEDOSSet7Ev
ffffff80008599c0 T __ZN5OSSet15flushCollectionEv
ffffff8000859c80 T __ZN5OSSet15initWithObjectsEPPK8OSObjectjj
ffffff8000859c50 T __ZN5OSSet16initWithCapacityEj
ffffff8000859980 T __ZN5OSSet20setCapacityIncrementEj
ffffff80008598a0 T __ZN5OSSet4freeEv
ffffff8000859de0 T __ZN5OSSet5mergeEPK7OSArray
ffffff8000859e80 T __ZN5OSSet5mergeEPKS_
ffffff800085a940 T __ZN5OSSet7withSetEPKS_j
ffffff800085a650 T __ZN5OSSet9MetaClassC1Ev
ffffff800085a6e0 T __ZN5OSSet9MetaClassC2Ev
ffffff8000a106c8 S __ZN5OSSet9metaClassE
ffffff8000859d70 T __ZN5OSSet9setObjectEPK15OSMetaClassBase
ffffff800085a8b0 T __ZN5OSSet9withArrayEPK7OSArrayj
ffffff800085a6b0 T __ZN5OSSetC1EPK11OSMetaClass
ffffff800085a720 T __ZN5OSSetC1Ev
ffffff800085a690 T __ZN5OSSetC2EPK11OSMetaClass
ffffff800085a760 T __ZN5OSSetC2Ev
ffffff8000859740 T __ZN5OSSetD0Ev
ffffff8000859730 T __ZN5OSSetD1Ev
ffffff800085a6d0 T __ZN5OSSetD2Ev
ffffff800083eae0 T __ZN6OSData10appendByteEhj
ffffff8000abdc38 S __ZN6OSData10gMetaClassE
ffffff8000a0ee90 S __ZN6OSData10superClassE
ffffff800083e980 T __ZN6OSData11appendBytesEPKS_
ffffff800083e8f0 T __ZN6OSData11appendBytesEPKvj
ffffff800083e7b0 T __ZN6OSData12initWithDataEPKS_
ffffff800083e7d0 T __ZN6OSData12initWithDataEPKS_jj
ffffff800083f290 T __ZN6OSData12withCapacityEj
ffffff800083e730 T __ZN6OSData13initWithBytesEPKvj
ffffff800083e850 T __ZN6OSData14ensureCapacityEj
ffffff800083f540 T __ZN6OSData15setSerializableEb
ffffff800083f3a0 T __ZN6OSData15withBytesNoCopyEPvj
ffffff800083ebc0 T __ZN6OSData16_RESERVEDOSData1Ev
ffffff800083ebf0 T __ZN6OSData16_RESERVEDOSData2Ev
ffffff800083ec20 T __ZN6OSData16_RESERVEDOSData3Ev
ffffff800083ec50 T __ZN6OSData16_RESERVEDOSData4Ev
ffffff800083ec80 T __ZN6OSData16_RESERVEDOSData5Ev
ffffff800083ecb0 T __ZN6OSData16_RESERVEDOSData6Ev
ffffff800083ece0 T __ZN6OSData16_RESERVEDOSData7Ev
ffffff800083e690 T __ZN6OSData16initWithCapacityEj
ffffff800083eb60 T __ZN6OSData18setDeallocFunctionEPFvPvjE
ffffff800083e790 T __ZN6OSData19initWithBytesNoCopyEPvj
ffffff800083e840 T __ZN6OSData20setCapacityIncrementEj
ffffff800083e5f0 T __ZN6OSData4freeEv
ffffff800083f430 T __ZN6OSData8withDataEPKS_
ffffff800083f4b0 T __ZN6OSData8withDataEPKS_jj
ffffff800083f140 T __ZN6OSData9MetaClassC1Ev
ffffff800083f1d0 T __ZN6OSData9MetaClassC2Ev
ffffff8000a0ee88 S __ZN6OSData9metaClassE
ffffff800083f310 T __ZN6OSData9withBytesEPKvj
ffffff800083f1a0 T __ZN6OSDataC1EPK11OSMetaClass
ffffff800083f210 T __ZN6OSDataC1Ev
ffffff800083f180 T __ZN6OSDataC2EPK11OSMetaClass
ffffff800083f250 T __ZN6OSDataC2Ev
ffffff800083e2b0 T __ZN6OSDataD0Ev
ffffff800083e2a0 T __ZN6OSDataD1Ev
ffffff800083f1c0 T __ZN6OSDataD2Ev
ffffff8000abdd20 S __ZN6OSKext10gMetaClassE
ffffff800084ac60 T __ZN6OSKext10getLoadTagEv
ffffff800084aa20 T __ZN6OSKext10getVersionEv
ffffff800084ea60 T __ZN6OSKext10initializeEv
ffffff800084d7f0 T __ZN6OSKext10removeKextEPS_b
ffffff8000a0f758 S __ZN6OSKext10superClassE
ffffff800084ac70 T __ZN6OSKext11getSizeInfoEPjS0_
ffffff800084b090 T __ZN6OSKext11isInterfaceEv
ffffff800084b200 T __ZN6OSKext11isPrelinkedEv
ffffff800084a3d0 T __ZN6OSKext11removeClassEP11OSMetaClass
ffffff800084b0c0 T __ZN6OSKext12isExecutableEv
ffffff80008551c0 T __ZN6OSKext12printSummaryEP20_loaded_kext_summaryPFiPKczEb
ffffff800084f930 T __ZN6OSKext12willShutdownEv
ffffff8000854b10 T __ZN6OSKext13cancelRequestEjPPv
ffffff8000846d90 T __ZN6OSKext13getExecutableEv
ffffff800084a9f0 T __ZN6OSKext13getIdentifierEv
ffffff8000853270 T __ZN6OSKext13handleRequestEP4hostjPcjPS2_PjS3_S4_
ffffff80008507a0 T __ZN6OSKext13loadFromMkextEjPcjPS0_Pj
ffffff800084d1b0 T __ZN6OSKext13lookupSectionEPKcS1_
ffffff8000842900 T __ZN6OSKext13setExecutableEP6OSDataS1_b
ffffff80008527a0 T __ZN6OSKext14autounloadKextEPS_
ffffff800084ff90 T __ZN6OSKext14getLoadEnabledEv
ffffff800084a530 T __ZN6OSKext14getMetaClassesEv
ffffff8000845cd0 T __ZN6OSKext14loadExecutableEv
ffffff800084f820 T __ZN6OSKext14setKextdActiveEb
ffffff800084fc60 T __ZN6OSKext14setLoadEnabledEb
ffffff8000850210 T __ZN6OSKext14withBooterDataEP8OSStringP6OSData
ffffff8000850710 T __ZN6OSKext14withMkext2InfoEP12OSDictionaryP6OSData
ffffff8000852e70 T __ZN6OSKext15considerUnloadsEb
ffffff80008446a0 T __ZN6OSKext15getDependenciesEv
ffffff8000842e50 T __ZN6OSKext15isInExcludeListEv
ffffff8000854330 T __ZN6OSKext15requestResourceEPKcS1_PFvjiPKvjPvES4_Pj
ffffff80008524a0 T __ZN6OSKext15savePanicStringEb
ffffff80008476a0 T __ZN6OSKext15setVMAttributesEbb
ffffff800084b7d0 T __ZN6OSKext16dispatchResourceEP12OSDictionary
ffffff8000850010 T __ZN6OSKext16getUnloadEnabledEv
ffffff800084b230 T __ZN6OSKext16isCPPInitializedEv
ffffff80008502a0 T __ZN6OSKext16readMkextArchiveEP6OSDataPj
ffffff8000851290 T __ZN6OSKext16serializeLogInfoEP7OSArrayPPcPj
ffffff800084fd20 T __ZN6OSKext16setUnloadEnabledEb
ffffff80008445f0 T __ZN6OSKext17flushDependenciesEb
ffffff800084b0b0 T __ZN6OSKext17isKernelComponentEv
ffffff8000850360 T __ZN6OSKext17readMkext2ArchiveEP6OSDataPP12OSDictionaryPj
ffffff800084a950 T __ZN6OSKext17setCPPInitializedEb
ffffff8000853e00 T __ZN6OSKext18copyLoadedKextInfoEP7OSArrayS1_
ffffff800084b070 T __ZN6OSKext18declaresExecutableEv
ffffff8000844680 T __ZN6OSKext18getNumDependenciesEv
ffffff8000841a10 T __ZN6OSKext18initWithBooterDataEP8OSStringP6OSData
ffffff8000842230 T __ZN6OSKext18initWithMkext2InfoEP12OSDictionaryP6OSData
ffffff80008517d0 T __ZN6OSKext18lookupKextWithUUIDEPh
ffffff8000842a10 T __ZN6OSKext18registerIdentifierEv
ffffff8000846f80 T __ZN6OSKext18registerWithDTraceEv
ffffff800084f1d0 T __ZN6OSKext19flushNonloadedKextsEb
ffffff8000855490 T __ZN6OSKext19printKextPanicListsEPFiPKczE
ffffff800084ee90 T __ZN6OSKext19removeKextBootstrapEv
ffffff8000843540 T __ZN6OSKext19resolveDependenciesEP7OSArray
ffffff8000846f30 T __ZN6OSKext19setLinkedExecutableEP6OSData
ffffff80008555a0 T __ZN6OSKext19updateActiveAccountEP19OSKextActiveAccount
ffffff8000847a10 T __ZN6OSKext19validateKextMappingEb
ffffff8000850090 T __ZN6OSKext20getAutounloadEnabledEv
ffffff800084aa30 T __ZN6OSKext20getCompatibleVersionEv
ffffff800084aa00 T __ZN6OSKext20getIdentifierCStringEv
ffffff800084b110 T __ZN6OSKext20isLoadableInSafeBootEv
ffffff8000847990 T __ZN6OSKext20segmentShouldBeWiredEP18segment_command_64
ffffff800084a970 T __ZN6OSKext20setAutounloadEnabledEb
ffffff8000855440 T __ZN6OSKext20summaryIsInBacktraceEP20_loaded_kext_summaryPmj
ffffff8000846ff0 T __ZN6OSKext20unregisterWithDTraceEv
ffffff8000847ea0 T __ZN6OSKext20verifySegmentMappingEP18segment_command_64
ffffff800084a7d0 T __ZN6OSKext21countRequestCallbacksEv
ffffff8000843030 T __ZN6OSKext21createMkext2FileEntryEP6OSDataP8OSNumberPKc
ffffff80008430f0 T __ZN6OSKext21extractMkext2FileDataEPhPKcjj
ffffff8000854fd0 T __ZN6OSKext21getUserSpaceLogFilterEv
ffffff800084b690 T __ZN6OSKext21invokeRequestCallbackEP12OSDictionaryi
ffffff800084be00 T __ZN6OSKext21lookupKextWithAddressEm
ffffff80008516b0 T __ZN6OSKext21lookupKextWithLoadTagEj
ffffff8000855000 T __ZN6OSKext21printKextsInBacktraceEPmjPFiPKczEbb
ffffff8000845640 T __ZN6OSKext21queueKextNotificationEPKcP8OSString
ffffff8000851bf0 T __ZN6OSKext21removeKextWithLoadTagEjb
ffffff800084fdf0 T __ZN6OSKext21setAutounloadsEnabledEb
ffffff8000850cd0 T __ZN6OSKext21setUserSpaceLogFilterEjb
ffffff8000850190 T __ZN6OSKext21withPrelinkedInfoDictEP12OSDictionary
ffffff800084ada0 T __ZN6OSKext22copyPersonalitiesArrayEv
ffffff800084aa90 T __ZN6OSKext22getPropertyForHostArchEPKc
ffffff8000850de0 T __ZN6OSKext22loadKextWithIdentifierEP8OSStringbbhhP7OSArray
ffffff8000852430 T __ZN6OSKext22loadKextWithIdentifierEPKcbbhhP7OSArray
ffffff80008511c0 T __ZN6OSKext23clearUserSpaceLogFilterEv
ffffff800084a4d0 T __ZN6OSKext23hasOSMetaClassInstancesEv
ffffff800084aa60 T __ZN6OSKext23isCompatibleWithVersionEx
ffffff8000846b70 T __ZN6OSKext23jettisonLinkeditSegmentEv
ffffff8000851430 T __ZN6OSKext23recordIdentifierRequestEP8OSString
ffffff8000852570 T __ZN6OSKext23registerKextsWithDTraceEv
ffffff800084c7d0 T __ZN6OSKext23saveLoadedKextPanicListEv
ffffff800084cdd0 T __ZN6OSKext23updateLoadedKextSummaryEP20_loaded_kext_summary
ffffff8000854ca0 T __ZN6OSKext24copyAllKextPersonalitiesEb
ffffff8000850110 T __ZN6OSKext24getKernelRequestsEnabledEv
ffffff80008515e0 T __ZN6OSKext24lookupKextWithIdentifierEP8OSString
ffffff8000851510 T __ZN6OSKext24lookupKextWithIdentifierEPKc
ffffff8000851b00 T __ZN6OSKext24removeKextWithIdentifierEPKcb
ffffff800084f8b0 T __ZN6OSKext24setDeferredLoadSucceededEb
ffffff8000842420 T __ZN6OSKext24setInfoDictionaryAndPathEP12OSDictionaryP8OSString
ffffff800084fed0 T __ZN6OSKext24setKernelRequestsEnabledEb
ffffff8000845770 T __ZN6OSKext24slidePrelinkedExecutableEv
ffffff8000841d40 T __ZN6OSKext25initWithPrelinkedInfoDictEP12OSDictionary
ffffff800084c8c0 T __ZN6OSKext25updateLoadedKextSummariesEv
ffffff8000851a40 T __ZN6OSKext26isKextWithIdentifierLoadedEPKc
ffffff8000846cb0 T __ZN6OSKext26jettisonDATASegmentPaddingEv
ffffff8000853160 T __ZN6OSKext26reportOSMetaClassInstancesEPKcj
ffffff800084a540 T __ZN6OSKext26reportOSMetaClassInstancesEj
ffffff8000847f50 T __ZN6OSKext26sendPersonalitiesToCatalogEbP7OSArray
ffffff8000844500 T __ZN6OSKext27addBleedthroughDependenciesEP7OSArray
ffffff8000852690 T __ZN6OSKext27canUnloadKextWithIdentifierEP8OSStringb
ffffff800084db70 T __ZN6OSKext27uniquePersonalityPropertiesEP12OSDictionary
ffffff800084bc50 T __ZN6OSKext28dequeueCallbackForRequestTagEP8OSNumberPP12OSDictionary
ffffff8000854ac0 T __ZN6OSKext28dequeueCallbackForRequestTagEjPP12OSDictionary
ffffff800084ced0 T __ZN6OSKext28saveLoadedKextPanicListTypedEPKciiPcj
ffffff800084f5f0 T __ZN6OSKext29considerDestroyingLinkContextEv
ffffff800084a620 T __ZN6OSKext30invokeOrCancelRequestCallbacksEib
ffffff800084afd0 T __ZN6OSKext30removePersonalitiesFromCatalogEv
ffffff8000851dd0 T __ZN6OSKext31createExcludeListFromBooterDataEP12OSDictionaryP20OSCollectionIterator
ffffff8000852af0 T __ZN6OSKext32considerRebuildOfPrelinkedKernelEv
ffffff8000852200 T __ZN6OSKext32createExcludeListFromPrelinkInfoEP7OSArray
ffffff8000854f00 T __ZN6OSKext33sendAllKextPersonalitiesToCatalogEb
ffffff8000841900 T __ZN6OSKext4freeEv
ffffff80008446b0 T __ZN6OSKext4loadEhhP7OSArray
ffffff80008474c0 T __ZN6OSKext4stopEv
ffffff8000847020 T __ZN6OSKext5startEb
ffffff8000844e70 T __ZN6OSKext6unloadEv
ffffff800084a210 T __ZN6OSKext8addClassEP11OSMetaClassj
ffffff8000848240 T __ZN6OSKext8copyInfoEP7OSArray
ffffff800084acd0 T __ZN6OSKext8copyUUIDEv
ffffff800084b0a0 T __ZN6OSKext8isKernelEv
ffffff800084b210 T __ZN6OSKext8isLoadedEv
ffffff800084e910 T __ZN6OSKext9MetaClassC1Ev
ffffff800084e9a0 T __ZN6OSKext9MetaClassC2Ev
ffffff8000851d20 T __ZN6OSKext9copyKextsEv
ffffff800084aa40 T __ZN6OSKext9isLibraryEv
ffffff800084b220 T __ZN6OSKext9isStartedEv
ffffff8000a0f750 S __ZN6OSKext9metaClassE
ffffff800084c030 T __ZN6OSKext9pingKextdEv
ffffff800084e970 T __ZN6OSKextC1EPK11OSMetaClass
ffffff800084e9e0 T __ZN6OSKextC1Ev
ffffff800084e950 T __ZN6OSKextC2EPK11OSMetaClass
ffffff800084ea20 T __ZN6OSKextC2Ev
ffffff80008418b0 T __ZN6OSKextD0Ev
ffffff80008418a0 T __ZN6OSKextD1Ev
ffffff800084e990 T __ZN6OSKextD2Ev
ffffff8000abdb98 S __ZN7OSArray10gMetaClassE
ffffff800083b6f0 T __ZN7OSArray10setOptionsEjjPv
ffffff8000a0e390 S __ZN7OSArray10superClassE
ffffff800083c7c0 T __ZN7OSArray11withObjectsEPPK8OSObjectjj
ffffff800083bde0 T __ZN7OSArray12removeObjectEj
ffffff800083c740 T __ZN7OSArray12withCapacityEj
ffffff800083ba80 T __ZN7OSArray13initWithArrayEPKS_j
ffffff800083bd40 T __ZN7OSArray13replaceObjectEjPK15OSMetaClassBase
ffffff800083b7a0 T __ZN7OSArray14copyCollectionEP12OSDictionary
ffffff800083b5b0 T __ZN7OSArray14ensureCapacityEj
ffffff800083b670 T __ZN7OSArray15flushCollectionEv
ffffff800083b9e0 T __ZN7OSArray15initWithObjectsEPPK8OSObjectjj
ffffff800083b950 T __ZN7OSArray16initWithCapacityEj
ffffff800083c040 T __ZN7OSArray17_RESERVEDOSArray0Ev
ffffff800083c070 T __ZN7OSArray17_RESERVEDOSArray1Ev
ffffff800083c0a0 T __ZN7OSArray17_RESERVEDOSArray2Ev
ffffff800083c0d0 T __ZN7OSArray17_RESERVEDOSArray3Ev
ffffff800083c100 T __ZN7OSArray17_RESERVEDOSArray4Ev
ffffff800083c130 T __ZN7OSArray17_RESERVEDOSArray5Ev
ffffff800083c160 T __ZN7OSArray17_RESERVEDOSArray6Ev
ffffff800083c190 T __ZN7OSArray17_RESERVEDOSArray7Ev
ffffff800083b590 T __ZN7OSArray20setCapacityIncrementEj
ffffff800083b4b0 T __ZN7OSArray4freeEv
ffffff800083bc60 T __ZN7OSArray5mergeEPKS_
ffffff800083c5f0 T __ZN7OSArray9MetaClassC1Ev
ffffff800083c680 T __ZN7OSArray9MetaClassC2Ev
ffffff8000a0e388 S __ZN7OSArray9metaClassE
ffffff800083bab0 T __ZN7OSArray9setObjectEPK15OSMetaClassBase
ffffff800083bad0 T __ZN7OSArray9setObjectEjPK15OSMetaClassBase
ffffff800083c850 T __ZN7OSArray9withArrayEPKS_j
ffffff800083c650 T __ZN7OSArrayC1EPK11OSMetaClass
ffffff800083c6c0 T __ZN7OSArrayC1Ev
ffffff800083c630 T __ZN7OSArrayC2EPK11OSMetaClass
ffffff800083c700 T __ZN7OSArrayC2Ev
ffffff800083b360 T __ZN7OSArrayD0Ev
ffffff800083b350 T __ZN7OSArrayD1Ev
ffffff800083c670 T __ZN7OSArrayD2Ev
ffffff8000abe770 S __ZN8IOMapper10gMetaClassE
ffffff8000a18ee8 S __ZN8IOMapper10superClassE
ffffff80008c3cb0 T __ZN8IOMapper17setMapperRequiredEb
ffffff80008c3500 T __ZN8IOMapper18_RESERVEDIOMapper0Ev
ffffff80008c3530 T __ZN8IOMapper18_RESERVEDIOMapper1Ev
ffffff80008c3560 T __ZN8IOMapper18_RESERVEDIOMapper2Ev
ffffff80008c3590 T __ZN8IOMapper18_RESERVEDIOMapper3Ev
ffffff80008c35c0 T __ZN8IOMapper18_RESERVEDIOMapper4Ev
ffffff80008c35f0 T __ZN8IOMapper18_RESERVEDIOMapper5Ev
ffffff80008c3620 T __ZN8IOMapper18_RESERVEDIOMapper6Ev
ffffff80008c3650 T __ZN8IOMapper18_RESERVEDIOMapper7Ev
ffffff80008c3680 T __ZN8IOMapper18_RESERVEDIOMapper8Ev
ffffff80008c36b0 T __ZN8IOMapper18_RESERVEDIOMapper9Ev
ffffff80008c36e0 T __ZN8IOMapper19_RESERVEDIOMapper10Ev
ffffff80008c3710 T __ZN8IOMapper19_RESERVEDIOMapper11Ev
ffffff80008c3740 T __ZN8IOMapper19_RESERVEDIOMapper12Ev
ffffff80008c3770 T __ZN8IOMapper19_RESERVEDIOMapper13Ev
ffffff80008c37a0 T __ZN8IOMapper19_RESERVEDIOMapper14Ev
ffffff80008c37d0 T __ZN8IOMapper19_RESERVEDIOMapper15Ev
ffffff80008c3d90 T __ZN8IOMapper19copyMapperForDeviceEP9IOService
ffffff80008c3d20 T __ZN8IOMapper19waitForSystemMapperEv
ffffff80008c3da0 T __ZN8IOMapper28copyMapperForDeviceWithIndexEP9IOServicej
ffffff80008c3400 T __ZN8IOMapper4freeEv
ffffff80008c3410 T __ZN8IOMapper5startEP9IOService
ffffff8000a80060 D __ZN8IOMapper7gSystemE
ffffff80008c3c00 T __ZN8IOMapper9MetaClassC1Ev
ffffff80008c3c70 T __ZN8IOMapper9MetaClassC2Ev
ffffff8000a18ee0 S __ZN8IOMapper9metaClassE
ffffff80008c3c40 T __ZN8IOMapperC2EPK11OSMetaClass
ffffff80008c33b0 T __ZN8IOMapperD0Ev
ffffff80008c33a0 T __ZN8IOMapperD1Ev
ffffff80008c3c60 T __ZN8IOMapperD2Ev
ffffff8000abeec0 S __ZN8IOSyncer10gMetaClassE
ffffff8000a27700 S __ZN8IOSyncer10superClassE
ffffff80008fc7d0 T __ZN8IOSyncer13privateSignalEv
ffffff80008fc780 T __ZN8IOSyncer4freeEv
ffffff80008fc860 T __ZN8IOSyncer4initEb
ffffff80008fc950 T __ZN8IOSyncer4waitEb
ffffff80008fd080 T __ZN8IOSyncer6createEb
ffffff80008fc8f0 T __ZN8IOSyncer6reinitEv
ffffff80008fcad0 T __ZN8IOSyncer6signalEib
ffffff80008fcf30 T __ZN8IOSyncer9MetaClassC1Ev
ffffff80008fcfc0 T __ZN8IOSyncer9MetaClassC2Ev
ffffff8000a276f8 S __ZN8IOSyncer9metaClassE
ffffff80008fcf90 T __ZN8IOSyncerC1EPK11OSMetaClass
ffffff80008fd000 T __ZN8IOSyncerC1Ev
ffffff80008fcf70 T __ZN8IOSyncerC2EPK11OSMetaClass
ffffff80008fd040 T __ZN8IOSyncerC2Ev
ffffff80008fc730 T __ZN8IOSyncerD0Ev
ffffff80008fc720 T __ZN8IOSyncerD1Ev
ffffff80008fcfb0 T __ZN8IOSyncerD2Ev
ffffff8000abdd48 S __ZN8OSNumber10gMetaClassE
ffffff8000a0fbb8 S __ZN8OSNumber10superClassE
ffffff8000856180 T __ZN8OSNumber10withNumberEPKcj
ffffff80008560f0 T __ZN8OSNumber10withNumberEyj
ffffff80008559f0 T __ZN8OSNumber18_RESERVEDOSNumber0Ev
ffffff8000855a20 T __ZN8OSNumber18_RESERVEDOSNumber1Ev
ffffff8000855a50 T __ZN8OSNumber18_RESERVEDOSNumber2Ev
ffffff8000855a80 T __ZN8OSNumber18_RESERVEDOSNumber3Ev
ffffff8000855ab0 T __ZN8OSNumber18_RESERVEDOSNumber4Ev
ffffff8000855ae0 T __ZN8OSNumber18_RESERVEDOSNumber5Ev
ffffff8000855b10 T __ZN8OSNumber18_RESERVEDOSNumber6Ev
ffffff8000855b40 T __ZN8OSNumber18_RESERVEDOSNumber7Ev
ffffff8000855870 T __ZN8OSNumber4freeEv
ffffff80008558d0 T __ZN8OSNumber4initEPKcj
ffffff80008558a0 T __ZN8OSNumber4initEyj
ffffff8000855980 T __ZN8OSNumber8addValueEx
ffffff80008559b0 T __ZN8OSNumber8setValueEy
ffffff8000855fa0 T __ZN8OSNumber9MetaClassC1Ev
ffffff8000856030 T __ZN8OSNumber9MetaClassC2Ev
ffffff8000a0fbb0 S __ZN8OSNumber9metaClassE
ffffff8000856000 T __ZN8OSNumberC1EPK11OSMetaClass
ffffff8000856070 T __ZN8OSNumberC1Ev
ffffff8000855fe0 T __ZN8OSNumberC2EPK11OSMetaClass
ffffff80008560b0 T __ZN8OSNumberC2Ev
ffffff80008556b0 T __ZN8OSNumberD0Ev
ffffff80008556a0 T __ZN8OSNumberD1Ev
ffffff8000856020 T __ZN8OSNumberD2Ev
ffffff8000abdb70 S __ZN8OSObject10gMetaClassE
ffffff8000949c98 S __ZN8OSObject10superClassE
ffffff800083aaf0 T __ZN8OSObject18_RESERVEDOSObject0Ev
ffffff800083ab20 T __ZN8OSObject18_RESERVEDOSObject1Ev
ffffff800083ab50 T __ZN8OSObject18_RESERVEDOSObject2Ev
ffffff800083ab80 T __ZN8OSObject18_RESERVEDOSObject3Ev
ffffff800083abb0 T __ZN8OSObject18_RESERVEDOSObject4Ev
ffffff800083abe0 T __ZN8OSObject18_RESERVEDOSObject5Ev
ffffff800083ac10 T __ZN8OSObject18_RESERVEDOSObject6Ev
ffffff800083ac40 T __ZN8OSObject18_RESERVEDOSObject7Ev
ffffff800083ac70 T __ZN8OSObject18_RESERVEDOSObject8Ev
ffffff800083aca0 T __ZN8OSObject18_RESERVEDOSObject9Ev
ffffff800083acd0 T __ZN8OSObject19_RESERVEDOSObject10Ev
ffffff800083ad00 T __ZN8OSObject19_RESERVEDOSObject11Ev
ffffff800083ad30 T __ZN8OSObject19_RESERVEDOSObject12Ev
ffffff800083ad60 T __ZN8OSObject19_RESERVEDOSObject13Ev
ffffff800083ad90 T __ZN8OSObject19_RESERVEDOSObject14Ev
ffffff800083adc0 T __ZN8OSObject19_RESERVEDOSObject15Ev
ffffff800083aac0 T __ZN8OSObject4freeEv
ffffff800083aab0 T __ZN8OSObject4initEv
ffffff800083b1d0 T __ZN8OSObject9MetaClassC1Ev
ffffff800083b240 T __ZN8OSObject9MetaClassC2Ev
ffffff8000a0e168 S __ZN8OSObject9metaClassE
ffffff800083b330 T __ZN8OSObjectC1EPK11OSMetaClass
ffffff800083b2f0 T __ZN8OSObjectC1Ev
ffffff800083b310 T __ZN8OSObjectC2EPK11OSMetaClass
ffffff800083b2d0 T __ZN8OSObjectC2Ev
ffffff800083a7e0 T __ZN8OSObjectD0Ev
ffffff800083a7d0 T __ZN8OSObjectD1Ev
ffffff800083b200 T __ZN8OSObjectD2Ev
ffffff800083b210 T __ZN8OSObjectdlEPvm
ffffff800083b270 T __ZN8OSObjectnwEm
ffffff8000abde10 S __ZN8OSString10gMetaClassE
ffffff8000a10a20 S __ZN8OSString10superClassE
ffffff800085b810 T __ZN8OSString10withStringEPKS_
ffffff800085b890 T __ZN8OSString11withCStringEPKc
ffffff800085ac50 T __ZN8OSString14initWithStringEPKS_
ffffff800085ac70 T __ZN8OSString15initWithCStringEPKc
ffffff800085b910 T __ZN8OSString17withCStringNoCopyEPKc
ffffff800085aee0 T __ZN8OSString18_RESERVEDOSString0Ev
ffffff800085af10 T __ZN8OSString18_RESERVEDOSString1Ev
ffffff800085af40 T __ZN8OSString18_RESERVEDOSString2Ev
ffffff800085af70 T __ZN8OSString18_RESERVEDOSString3Ev
ffffff800085afa0 T __ZN8OSString18_RESERVEDOSString4Ev
ffffff800085afd0 T __ZN8OSString18_RESERVEDOSString5Ev
ffffff800085b000 T __ZN8OSString18_RESERVEDOSString6Ev
ffffff800085b030 T __ZN8OSString18_RESERVEDOSString7Ev
ffffff800085b060 T __ZN8OSString18_RESERVEDOSString8Ev
ffffff800085b090 T __ZN8OSString18_RESERVEDOSString9Ev
ffffff800085b990 T __ZN8OSString18withStringOfLengthEPKcm
ffffff800085b0c0 T __ZN8OSString19_RESERVEDOSString10Ev
ffffff800085b0f0 T __ZN8OSString19_RESERVEDOSString11Ev
ffffff800085b120 T __ZN8OSString19_RESERVEDOSString12Ev
ffffff800085b150 T __ZN8OSString19_RESERVEDOSString13Ev
ffffff800085b180 T __ZN8OSString19_RESERVEDOSString14Ev
ffffff800085b1b0 T __ZN8OSString19_RESERVEDOSString15Ev
ffffff800085ad40 T __ZN8OSString21initWithCStringNoCopyEPKc
ffffff800085b760 T __ZN8OSString22initWithStringOfLengthEPKcm
ffffff800085abf0 T __ZN8OSString4freeEv
ffffff800085adb0 T __ZN8OSString7setCharEcj
ffffff800085b610 T __ZN8OSString9MetaClassC1Ev
ffffff800085b6a0 T __ZN8OSString9MetaClassC2Ev
ffffff8000a10a18 S __ZN8OSString9metaClassE
ffffff800085b670 T __ZN8OSStringC1EPK11OSMetaClass
ffffff800085b6e0 T __ZN8OSStringC1Ev
ffffff800085b650 T __ZN8OSStringC2EPK11OSMetaClass
ffffff800085b720 T __ZN8OSStringC2Ev
ffffff800085a9e0 T __ZN8OSStringD0Ev
ffffff800085a9d0 T __ZN8OSStringD1Ev
ffffff800085b690 T __ZN8OSStringD2Ev
ffffff8000abde38 S __ZN8OSSymbol10gMetaClassE
ffffff800085c8d0 T __ZN8OSSymbol10initializeEv
ffffff8000a10d38 S __ZN8OSSymbol10superClassE
ffffff800085d0c0 T __ZN8OSSymbol10withStringEPK8OSString
ffffff800085d250 T __ZN8OSSymbol11withCStringEPKc
ffffff800085bcb0 T __ZN8OSSymbol14initWithStringEPK8OSString
ffffff800085bcc0 T __ZN8OSSymbol15initWithCStringEPKc
ffffff800085d140 T __ZN8OSSymbol17withCStringNoCopyEPKc
ffffff800085bd30 T __ZN8OSSymbol18_RESERVEDOSSymbol0Ev
ffffff800085bd60 T __ZN8OSSymbol18_RESERVEDOSSymbol1Ev
ffffff800085bd90 T __ZN8OSSymbol18_RESERVEDOSSymbol2Ev
ffffff800085bdc0 T __ZN8OSSymbol18_RESERVEDOSSymbol3Ev
ffffff800085bdf0 T __ZN8OSSymbol18_RESERVEDOSSymbol4Ev
ffffff800085be20 T __ZN8OSSymbol18_RESERVEDOSSymbol5Ev
ffffff800085be50 T __ZN8OSSymbol18_RESERVEDOSSymbol6Ev
ffffff800085be80 T __ZN8OSSymbol18_RESERVEDOSSymbol7Ev
ffffff800085d340 T __ZN8OSSymbol18checkForPageUnloadEPvS0_
ffffff800085bcd0 T __ZN8OSSymbol21initWithCStringNoCopyEPKc
ffffff800085bc80 T __ZN8OSSymbol4freeEv
ffffff800085d410 T __ZN8OSSymbol7bsearchEPKvS1_jm
ffffff800085cf70 T __ZN8OSSymbol9MetaClassC1Ev
ffffff800085d000 T __ZN8OSSymbol9MetaClassC2Ev
ffffff8000a10d40 S __ZN8OSSymbol9metaClassE
ffffff800085cfd0 T __ZN8OSSymbolC1EPK11OSMetaClass
ffffff800085d040 T __ZN8OSSymbolC1Ev
ffffff800085cfb0 T __ZN8OSSymbolC2EPK11OSMetaClass
ffffff800085d080 T __ZN8OSSymbolC2Ev
ffffff800085bb20 T __ZN8OSSymbolD0Ev
ffffff800085bb10 T __ZN8OSSymbolD1Ev
ffffff800085cff0 T __ZN8OSSymbolD2Ev
ffffff8000abe630 S __ZN9IOCommand10gMetaClassE
ffffff8000a17598 S __ZN9IOCommand10superClassE
ffffff80008bb0c0 T __ZN9IOCommand4initEv
ffffff80008bb510 T __ZN9IOCommand9MetaClassC1Ev
ffffff80008bb5a0 T __ZN9IOCommand9MetaClassC2Ev
ffffff8000a17590 S __ZN9IOCommand9metaClassE
ffffff80008bb570 T __ZN9IOCommandC1EPK11OSMetaClass
ffffff80008bb5e0 T __ZN9IOCommandC1Ev
ffffff80008bb550 T __ZN9IOCommandC2EPK11OSMetaClass
ffffff80008bb620 T __ZN9IOCommandC2Ev
ffffff80008bb070 T __ZN9IOCommandD0Ev
ffffff80008bb060 T __ZN9IOCommandD1Ev
ffffff80008bb590 T __ZN9IOCommandD2Ev
ffffff8000abea98 S __ZN9IODTNVRAM10gMetaClassE
ffffff80008da8e0 T __ZN9IODTNVRAM10safeToSyncEv
ffffff8000a1fcc8 S __ZN9IODTNVRAM10superClassE
ffffff80008da630 T __ZN9IODTNVRAM10writeXPRAMEyPhy
ffffff80008d7ff0 T __ZN9IODTNVRAM11setPropertyEPK8OSSymbolP8OSObject
ffffff80008db630 T __ZN9IODTNVRAM12syncInternalEb
ffffff80008dafb0 T __ZN9IODTNVRAM13initProxyDataEv
ffffff80008da840 T __ZN9IODTNVRAM13savePanicInfoEPhy
ffffff80008d87f0 T __ZN9IODTNVRAM13setPropertiesEP8OSObject
ffffff80008da940 T __ZN9IODTNVRAM14initNVRAMImageEv
ffffff80008d82b0 T __ZN9IODTNVRAM14removePropertyEPK8OSSymbol
ffffff80008d8be0 T __ZN9IODTNVRAM15initOFVariablesEv
ffffff80008d8e90 T __ZN9IODTNVRAM15syncOFVariablesEv
ffffff80008d9d40 T __ZN9IODTNVRAM16escapeDataToDataEP6OSData
ffffff80008d9910 T __ZN9IODTNVRAM16updateOWBootArgsEPK8OSSymbolP8OSObject
ffffff80008d9120 T __ZN9IODTNVRAM17getOWVariableInfoEjPPK8OSSymbolPjS4_
ffffff80008da640 T __ZN9IODTNVRAM17readNVRAMPropertyEP15IORegistryEntryPPK8OSSymbolPP6OSData
ffffff80008d9860 T __ZN9IODTNVRAM18generateOWChecksumEPh
ffffff80008da680 T __ZN9IODTNVRAM18getNVRAMPartitionsEv
ffffff80008da690 T __ZN9IODTNVRAM18readNVRAMPartitionEPK8OSSymbolyPhy
ffffff80008d98b0 T __ZN9IODTNVRAM18validateOWChecksumEPh
ffffff80008da660 T __ZN9IODTNVRAM18writeNVRAMPropertyEP15IORegistryEntryPK8OSSymbolP6OSData
ffffff80008d9320 T __ZN9IODTNVRAM19convertObjectToPropEPhPjPK8OSSymbolP8OSObject
ffffff80008d91c0 T __ZN9IODTNVRAM19convertPropToObjectEPhjS0_jPPK8OSSymbolPP8OSObject
ffffff80008d9c30 T __ZN9IODTNVRAM19searchNVRAMPropertyEP17IONVRAMDescriptorPj
ffffff80008d9c60 T __ZN9IODTNVRAM19unescapeBytesToDataEPKhj
ffffff80008da750 T __ZN9IODTNVRAM19writeNVRAMPartitionEPK8OSSymbolyPhy
ffffff80008d9c40 T __ZN9IODTNVRAM22readNVRAMPropertyType0EP15IORegistryEntryPPK8OSSymbolPP6OSData
ffffff80008d9eb0 T __ZN9IODTNVRAM22readNVRAMPropertyType1EP15IORegistryEntryPPK8OSSymbolPP6OSData
ffffff80008da590 T __ZN9IODTNVRAM23registerNVRAMControllerEP17IONVRAMController
ffffff80008d9c50 T __ZN9IODTNVRAM23writeNVRAMPropertyType0EP15IORegistryEntryPK8OSSymbolP6OSData
ffffff80008da0c0 T __ZN9IODTNVRAM23writeNVRAMPropertyType1EP15IORegistryEntryPK8OSSymbolP6OSData
ffffff80008d8b80 T __ZN9IODTNVRAM26calculatePartitionChecksumEPh
ffffff80008d8ac0 T __ZN9IODTNVRAM4initEP15IORegistryEntryPK15IORegistryPlane
ffffff80008da600 T __ZN9IODTNVRAM4syncEv
ffffff80008db4e0 T __ZN9IODTNVRAM9MetaClassC1Ev
ffffff80008db570 T __ZN9IODTNVRAM9MetaClassC2Ev
ffffff8000a1fcc0 S __ZN9IODTNVRAM9metaClassE
ffffff80008da620 T __ZN9IODTNVRAM9readXPRAMEyPhy
ffffff80008db540 T __ZN9IODTNVRAMC1EPK11OSMetaClass
ffffff80008db5b0 T __ZN9IODTNVRAMC1Ev
ffffff80008db520 T __ZN9IODTNVRAMC2EPK11OSMetaClass
ffffff80008db5f0 T __ZN9IODTNVRAMC2Ev
ffffff80008d7fa0 T __ZN9IODTNVRAMD0Ev
ffffff80008d7f90 T __ZN9IODTNVRAMD1Ev
ffffff80008db560 T __ZN9IODTNVRAMD2Ev
ffffff8000893c10 T __ZN9IOService10actionStopEPS_S0_PvS1_S1_
ffffff800088fb60 T __ZN9IOService10adjustBusyEi
ffffff8000abe070 S __ZN9IOService10gMetaClassE
ffffff800088f290 T __ZN9IOService10handleOpenEPS_jPv
ffffff800089b810 T __ZN9IOService10initializeEv
ffffff80008aa430 T __ZN9IOService10joinPMtreeEPS_
ffffff80008abe70 T __ZN9IOService10makeUsableEv
ffffff8000a11e00 S __ZN9IOService10superClassE
ffffff8000891ff0 T __ZN9IOService11_adjustBusyEi
ffffff800089d330 T __ZN9IOService11addLocationEP12OSDictionary
ffffff800089cc00 T __ZN9IOService11cpusRunningEv
ffffff800089c200 T __ZN9IOService11getPlatformEv
ffffff800088f300 T __ZN9IOService11handleCloseEPS_j
ffffff80008a3370 T __ZN9IOService11isPMBlockedEP11IOPMRequesti
ffffff80008a5000 T __ZN9IOService11notifyChildEP17IOPowerConnection
ffffff800089c230 T __ZN9IOService11setPlatformEP16IOPlatformExpert
ffffff80008acfd0 T __ZN9IOService11tellClientsEi
ffffff80008a8c50 T __ZN9IOService12OurSyncStartEv
ffffff80008a2ad0 T __ZN9IOService12ackTimerTickEv
ffffff80008acf40 T __ZN9IOService12checkForDoneEv
ffffff800088e080 T __ZN9IOService12didTerminateEPS_jPb
ffffff800088fb50 T __ZN9IOService12getBusyStateEv
ffffff8000890550 T __ZN9IOService12getResourcesEv
ffffff80008a72e0 T __ZN9IOService12handlePMstopEP11IOPMRequest
ffffff8000894b60 T __ZN9IOService12matchPassiveEP12OSDictionaryj
ffffff800089d0c0 T __ZN9IOService12nameMatchingEPK8OSStringP12OSDictionary
ffffff800089d110 T __ZN9IOService12nameMatchingEPKcP12OSDictionary
ffffff800089d380 T __ZN9IOService12passiveMatchEP12OSDictionaryb
ffffff8000890a00 T __ZN9IOService12requestProbeEj
ffffff8000893dc0 T __ZN9IOService12scheduleStopEPS_
ffffff80008ad4b0 T __ZN9IOService12tellChangeUpEm
ffffff800088e400 T __ZN9IOService12updateReportEP19IOReportChannelListjPvS2_
ffffff800089c6b0 T __ZN9IOService12waitForStateEjjP13mach_timespec
ffffff800089c6d0 T __ZN9IOService12waitForStateEjjy
ffffff8000893900 T __ZN9IOService13actionDidStopEPS_jPvS1_S1_
ffffff80008aa720 T __ZN9IOService13addPowerChildEPS_
ffffff80008acec0 T __ZN9IOService13askChangeDownEm
ffffff8000897240 T __ZN9IOService13checkResourceEP8OSObject
ffffff80008ac3d0 T __ZN9IOService13getPMworkloopEv
ffffff80008ac780 T __ZN9IOService13getPowerStateEv
ffffff8000895d70 T __ZN9IOService13instanceMatchEPK8OSObjectPv
ffffff8000895060 T __ZN9IOService13invokeNotiferEP18_IOServiceNotifier
ffffff8000895200 T __ZN9IOService13matchInternalEP12OSDictionaryjPj
ffffff800088fbd0 T __ZN9IOService13matchLocationEPS_
ffffff8000890a20 T __ZN9IOService13messageClientEjP8OSObjectPvm
ffffff8000890e00 T __ZN9IOService13newUserClientEP4taskPvjP12OSDictionaryPP12IOUserClient
ffffff8000890fe0 T __ZN9IOService13newUserClientEP4taskPvjPP12IOUserClient
ffffff80008a9610 T __ZN9IOService13responseValidEji
ffffff80008a8b50 T __ZN9IOService13setParentInfoEmP17IOPowerConnectionb
ffffff80008add50 T __ZN9IOService13setPowerStateEmPS_
ffffff8000895e80 T __ZN9IOService13startMatchingEj
ffffff800089cb20 T __ZN9IOService13waitMatchIdleEj
ffffff800088e070 T __ZN9IOService13willTerminateEPS_j
ffffff80008a8d60 T __ZN9IOService14OurChangeStartEv
ffffff8000893b30 T __ZN9IOService14actionFinalizeEPS_jPvS1_S1_
ffffff8000893330 T __ZN9IOService14actionWillStopEPS_jPvS1_S1_
ffffff80008ac3f0 T __ZN9IOService14activityTickleEmm
ffffff80008a7630 T __ZN9IOService14addPowerChild1EP11IOPMRequest
ffffff80008a77b0 T __ZN9IOService14addPowerChild2EP11IOPMRequest
ffffff80008a79c0 T __ZN9IOService14addPowerChild3EP11IOPMRequest
ffffff8000890d80 T __ZN9IOService14applyToClientsEPFvPS_PvES1_
ffffff8000890990 T __ZN9IOService14causeInterruptEi
ffffff8000897170 T __ZN9IOService14checkResourcesEv
ffffff8000896220 T __ZN9IOService14doServiceMatchEj
ffffff800089bf50 T __ZN9IOService14getServiceRootEv
ffffff8000890c50 T __ZN9IOService14messageClientsEjPvm
ffffff80008a4d30 T __ZN9IOService14notifyChildrenEv
ffffff8000897070 T __ZN9IOService14startCandidateEPS_
ffffff80008ab120 T __ZN9IOService14stop_ack_timerEv
ffffff80008aced0 T __ZN9IOService14tellChangeDownEm
ffffff800089c5f0 T __ZN9IOService14waitForServiceEP12OSDictionaryP13mach_timespec
ffffff80008aca60 T __ZN9IOService15OurChangeFinishEv
ffffff800089ced0 T __ZN9IOService15addNotificationEPK8OSSymbolP12OSDictionaryPFbPvS5_PS_ES5_S5_i
ffffff800088fd70 T __ZN9IOService15comparePropertyEP12OSDictionaryPK8OSString
ffffff800088fd10 T __ZN9IOService15comparePropertyEP12OSDictionaryPKc
ffffff800088e200 T __ZN9IOService15configureReportEP19IOReportChannelListjPvS2_
ffffff80008908b0 T __ZN9IOService15enableInterruptEi
ffffff8000891080 T __ZN9IOService15errnoFromReturnEi
ffffff8000890670 T __ZN9IOService15getDeviceMemoryEv
ffffff800089c210 T __ZN9IOService15getPMRootDomainEv
ffffff800089d3d0 T __ZN9IOService15lookupInterruptEibPP21IOInterruptController
ffffff80008ac700 T __ZN9IOService15nextIdleTimeoutEyyj
ffffff80008a1650 T __ZN9IOService15pmDriverCalloutEPS_
ffffff80008adf60 T __ZN9IOService15powerChangeDoneEm
ffffff80008964f0 T __ZN9IOService15probeCandidatesEP12OSOrderedSet
ffffff800089c500 T __ZN9IOService15publishResourceEPK8OSSymbolP8OSObject
ffffff800089c3b0 T __ZN9IOService15publishResourceEPKcP8OSObject
ffffff800088ee90 T __ZN9IOService15registerServiceEj
ffffff800089cfd0 T __ZN9IOService15serviceMatchingEPK8OSStringP12OSDictionary
ffffff800089d040 T __ZN9IOService15serviceMatchingEPKcP12OSDictionary
ffffff80008906c0 T __ZN9IOService15setDeviceMemoryEP7OSArray
ffffff8000897680 T __ZN9IOService15setNotificationEPK8OSSymbolP12OSDictionaryPFbPvS5_PS_P10IONotifierES5_S5_i
ffffff800089c330 T __ZN9IOService15setPMRootDomainEP14IOPMrootDomain
ffffff80008a66a0 T __ZN9IOService15start_ack_timerEjj
ffffff80008ac7a0 T __ZN9IOService15start_ack_timerEv
ffffff80008a2780 T __ZN9IOService15submitPMRequestEP11IOPMRequest
ffffff80008acb60 T __ZN9IOService15tellChangeDown1Em
ffffff80008acbe0 T __ZN9IOService15tellChangeDown2Em
ffffff800088fb00 T __ZN9IOService15terminateClientEPS_j
ffffff8000893f60 T __ZN9IOService15terminatePhase1Ej
ffffff80008926e0 T __ZN9IOService15terminateThreadEPvi
ffffff8000892770 T __ZN9IOService15terminateWorkerEj
ffffff80008a2650 T __ZN9IOService16acquirePMRequestEPS_jP11IOPMRequest
ffffff80008aaf30 T __ZN9IOService16adjustPowerStateEj
ffffff80008ad4c0 T __ZN9IOService16allowPowerChangeEm
ffffff8000890d60 T __ZN9IOService16applyToProvidersEPFvPS_PvES1_
ffffff800089bdf0 T __ZN9IOService16consoleLockTimerEPvS0_
ffffff8000890920 T __ZN9IOService16disableInterruptEi
ffffff80008a34b0 T __ZN9IOService16executePMRequestEP11IOPMRequest
ffffff800089d3a0 T __ZN9IOService16getCPUSnoopDelayEv
ffffff8000890810 T __ZN9IOService16getInterruptTypeEiPi
ffffff80008a24e0 T __ZN9IOService16idleTimerExpiredEv
ffffff80008ac800 T __ZN9IOService16notifyRootDomainEv
ffffff800089d230 T __ZN9IOService16propertyMatchingEPK8OSSymbolPK8OSObjectP12OSDictionary
ffffff80008ac190 T __ZN9IOService16quiescePowerTreeEPvPFvS0_S0_ES0_
ffffff8000890ca0 T __ZN9IOService16registerInterestEPK8OSSymbolPFiPvS3_jPS_S3_mES3_S3_
ffffff80008aae80 T __ZN9IOService16releasePMRequestEP11IOPMRequest
ffffff80008aafc0 T __ZN9IOService16removePowerChildEP17IOPowerConnection
ffffff800088e010 T __ZN9IOService16requestTerminateEPS_j
ffffff8000891a80 T __ZN9IOService16resolveInterruptEPS_i
ffffff800089c560 T __ZN9IOService16resourceMatchingEPK8OSStringP12OSDictionary
ffffff800089d180 T __ZN9IOService16resourceMatchingEPKcP12OSDictionary
ffffff80008ac370 T __ZN9IOService16restartIdleTimerEv
ffffff8000892560 T __ZN9IOService16scheduleFinalizeEb
ffffff800089d390 T __ZN9IOService16setCPUSnoopDelayEj
ffffff80008a7e80 T __ZN9IOService16startPowerChangeEjmmP17IOPowerConnectionm
ffffff80008acc70 T __ZN9IOService16startSettleTimerEv
ffffff8000890ff0 T __ZN9IOService16stringFromReturnEi
ffffff80008aac30 T __ZN9IOService16submitPMRequestsEPP11IOPMRequestj
ffffff80008acfc0 T __ZN9IOService16tellNoChangeDownEm
ffffff80008a9010 T __ZN9IOService17ParentChangeStartEv
ffffff80008a1550 T __ZN9IOService17ack_timer_expiredEPvS0_
ffffff800088fc10 T __ZN9IOService17addNeededResourceEPKc
ffffff8000890da0 T __ZN9IOService17applyToInterestedEPK8OSSymbolPFvP8OSObjectPvES5_
ffffff80008ad520 T __ZN9IOService17cancelPowerChangeEm
ffffff800089bf60 T __ZN9IOService17catalogNewDriversEP12OSOrderedSet
ffffff800088fdd0 T __ZN9IOService17comparePropertiesEP12OSDictionaryP12OSCollection
ffffff80008abee0 T __ZN9IOService17currentCapabilityEv
ffffff80008ac750 T __ZN9IOService17getAggressivenessEmPm
ffffff80008906e0 T __ZN9IOService17registerInterruptEiP8OSObjectPFvS1_PvPS_iES2_
ffffff80008ac260 T __ZN9IOService17removePowerClientEPK8OSSymbol
ffffff80008abd80 T __ZN9IOService17requestPowerStateEPK8OSSymbolj
ffffff80008ac740 T __ZN9IOService17setAggressivenessEmm
ffffff800089c430 T __ZN9IOService17setTerminateDeferEPS_b
ffffff80008a6c90 T __ZN9IOService17updatePowerClientEPK8OSSymbolj
ffffff80008936b0 T __ZN9IOService18actionDidTerminateEPS_jPvS1_S1_
ffffff80008a03b0 T __ZN9IOService18actionPMReplyQueueEP11IOPMRequestP16IOPMRequestQueue
ffffff80008a1ee0 T __ZN9IOService18assertPMDriverCallEP19IOPMDriverCallEntryjP12IOPMinformee
ffffff80008abf00 T __ZN9IOService18changePowerStateToEm
ffffff800089c4c0 T __ZN9IOService18doServiceTerminateEj
ffffff800089d970 T __ZN9IOService18getAuthorizationIDEv
ffffff80008acee0 T __ZN9IOService18getIOMessageStringEj
ffffff800089c220 T __ZN9IOService18getResourceServiceEv
ffffff800088f560 T __ZN9IOService18lockForArbitrationEb
ffffff800088fbc0 T __ZN9IOService18matchPropertyTableEP12OSDictionary
ffffff800088fba0 T __ZN9IOService18matchPropertyTableEP12OSDictionaryPi
ffffff80008a94b0 T __ZN9IOService18requestDomainPowerEmj
ffffff800089be90 T __ZN9IOService18requireMaxBusStallEj
ffffff800089d980 T __ZN9IOService18setAuthorizationIDEy
ffffff80008ac5c0 T __ZN9IOService18setIdleTimerPeriodEm
ffffff80008ac660 T __ZN9IOService18setIgnoreIdleTimerEb
ffffff80008a2a50 T __ZN9IOService18settleTimerExpiredEv
ffffff80008adf70 T __ZN9IOService18systemWillShutdownEj
ffffff8000899720 T __ZN9IOService18updateConsoleUsersEP7OSArrayj
ffffff800088e5e0 T __ZN9IOService19_RESERVEDIOService2Ev
ffffff800088e610 T __ZN9IOService19_RESERVEDIOService3Ev
ffffff800088e640 T __ZN9IOService19_RESERVEDIOService4Ev
ffffff800088e670 T __ZN9IOService19_RESERVEDIOService5Ev
ffffff800088e6a0 T __ZN9IOService19_RESERVEDIOService6Ev
ffffff800088e6d0 T __ZN9IOService19_RESERVEDIOService7Ev
ffffff800088e700 T __ZN9IOService19_RESERVEDIOService8Ev
ffffff800088e730 T __ZN9IOService19_RESERVEDIOService9Ev
ffffff80008934e0 T __ZN9IOService19actionWillTerminateEPS_jP7OSArrayPvS3_
ffffff80008a6db0 T __ZN9IOService19computeDesiredStateEmb
ffffff800089cc90 T __ZN9IOService19copyMatchingServiceEP12OSDictionary
ffffff8000894960 T __ZN9IOService19deliverNotificationEPK8OSSymboljj
ffffff80008a1750 T __ZN9IOService19driverSetPowerStateEv
ffffff800089cc10 T __ZN9IOService19getMatchingServicesEP12OSDictionary
ffffff800089cdb0 T __ZN9IOService19installNotificationEPK8OSSymbolP12OSDictionaryPFbPvS5_PS_P10IONotifierES5_S5_iPP10OSIterator
ffffff80008ac290 T __ZN9IOService19powerOverrideOnPrivEv
ffffff80008ab170 T __ZN9IOService19registerPowerDriverEPS_P14IOPMPowerStatem
ffffff80008a2920 T __ZN9IOService19start_PM_idle_timerEv
ffffff80008ac990 T __ZN9IOService19stop_spindump_timerEv
ffffff80008ace20 T __ZN9IOService19stop_watchdog_timerEv
ffffff80008907a0 T __ZN9IOService19unregisterInterruptEi
ffffff80008aa570 T __ZN9IOService19waitForPMDriverCallEPS_
ffffff800088e760 T __ZN9IOService20_RESERVEDIOService10Ev
ffffff800088e790 T __ZN9IOService20_RESERVEDIOService11Ev
ffffff800088e7c0 T __ZN9IOService20_RESERVEDIOService12Ev
ffffff800088e7f0 T __ZN9IOService20_RESERVEDIOService13Ev
ffffff800088e820 T __ZN9IOService20_RESERVEDIOService14Ev
ffffff800088e850 T __ZN9IOService20_RESERVEDIOService15Ev
ffffff800088e880 T __ZN9IOService20_RESERVEDIOService16Ev
ffffff800088e8b0 T __ZN9IOService20_RESERVEDIOService17Ev
ffffff800088e8e0 T __ZN9IOService20_RESERVEDIOService18Ev
ffffff800088e910 T __ZN9IOService20_RESERVEDIOService19Ev
ffffff800088e940 T __ZN9IOService20_RESERVEDIOService20Ev
ffffff800088e970 T __ZN9IOService20_RESERVEDIOService21Ev
ffffff800088e9a0 T __ZN9IOService20_RESERVEDIOService22Ev
ffffff800088e9d0 T __ZN9IOService20_RESERVEDIOService23Ev
ffffff800088ea00 T __ZN9IOService20_RESERVEDIOService24Ev
ffffff800088ea30 T __ZN9IOService20_RESERVEDIOService25Ev
ffffff800088ea60 T __ZN9IOService20_RESERVEDIOService26Ev
ffffff800088ea90 T __ZN9IOService20_RESERVEDIOService27Ev
ffffff800088eac0 T __ZN9IOService20_RESERVEDIOService28Ev
ffffff800088eaf0 T __ZN9IOService20_RESERVEDIOService29Ev
ffffff800088eb20 T __ZN9IOService20_RESERVEDIOService30Ev
ffffff800088eb50 T __ZN9IOService20_RESERVEDIOService31Ev
ffffff800088eb80 T __ZN9IOService20_RESERVEDIOService32Ev
ffffff800088ebb0 T __ZN9IOService20_RESERVEDIOService33Ev
ffffff800088ebe0 T __ZN9IOService20_RESERVEDIOService34Ev
ffffff800088ec10 T __ZN9IOService20_RESERVEDIOService35Ev
ffffff800088ec40 T __ZN9IOService20_RESERVEDIOService36Ev
ffffff800088ec70 T __ZN9IOService20_RESERVEDIOService37Ev
ffffff800088eca0 T __ZN9IOService20_RESERVEDIOService38Ev
ffffff800088ecd0 T __ZN9IOService20_RESERVEDIOService39Ev
ffffff800088ed00 T __ZN9IOService20_RESERVEDIOService40Ev
ffffff800088ed30 T __ZN9IOService20_RESERVEDIOService41Ev
ffffff800088ed60 T __ZN9IOService20_RESERVEDIOService42Ev
ffffff800088ed90 T __ZN9IOService20_RESERVEDIOService43Ev
ffffff800088edc0 T __ZN9IOService20_RESERVEDIOService44Ev
ffffff800088edf0 T __ZN9IOService20_RESERVEDIOService45Ev
ffffff800088ee20 T __ZN9IOService20_RESERVEDIOService46Ev
ffffff800088ee50 T __ZN9IOService20_RESERVEDIOService47Ev
ffffff80008a0270 T __ZN9IOService20actionPMRequestQueueEP11IOPMRequestP16IOPMRequestQueue
ffffff8000890410 T __ZN9IOService20callPlatformFunctionEPK8OSSymbolbPvS3_S3_S3_
ffffff80008904d0 T __ZN9IOService20callPlatformFunctionEPKcbPvS2_S2_S2_
ffffff80008a3090 T __ZN9IOService20cleanClientResponsesEb
ffffff8000895ab0 T __ZN9IOService20copyExistingServicesEP12OSDictionaryjj
ffffff80008ac9d0 T __ZN9IOService20deassertPMDriverCallEP19IOPMDriverCallEntry
ffffff8000890560 T __ZN9IOService20getDeviceMemoryCountEv
ffffff80008a8920 T __ZN9IOService20handleActivityTickleEP11IOPMRequest
ffffff80008ac850 T __ZN9IOService20notifyRootDomainDoneEv
ffffff80008ac300 T __ZN9IOService20powerOverrideOffPrivEv
ffffff80008ace70 T __ZN9IOService20reset_watchdog_timerEv
ffffff80008a21c0 T __ZN9IOService20start_spindump_timerEPKc
ffffff80008a2fc0 T __ZN9IOService20start_watchdog_timerEv
ffffff80008ab840 T __ZN9IOService20synchronizePowerTreeEjPS_
ffffff800088f990 T __ZN9IOService20unlockForArbitrationEv
ffffff80008a2a80 T __ZN9IOService21actionAckTimerExpiredEP8OSObjectPvS2_S2_S2_
ffffff800089cd10 T __ZN9IOService21doInstallNotificationEPK8OSSymbolP12OSDictionaryPFbPvS5_PS_P10IONotifierES5_S5_iPP10OSIterator
ffffff800089c4d0 T __ZN9IOService21getClientWithCategoryEPK8OSSymbol
ffffff80008a9c70 T __ZN9IOService21handleInterestChangedEP11IOPMRequest
ffffff80008a51a0 T __ZN9IOService21notifyChildrenDelayedEv
ffffff80008ac880 T __ZN9IOService21notifyChildrenOrderedEv
ffffff80008a5260 T __ZN9IOService21pmTellAppWithResponseEP8OSObjectPv
ffffff80008adf50 T __ZN9IOService21powerStateDidChangeToEmmPS_
ffffff80008abd60 T __ZN9IOService21temporaryPowerClampOnEv
ffffff800089beb0 T __ZN9IOService21unregisterAllInterestEv
ffffff80008acc00 T __ZN9IOService22OurChangeSetPowerStateEv
ffffff80008ab780 T __ZN9IOService22acknowledgePowerChangeEPS_
ffffff800089d470 T __ZN9IOService22addInterruptStatisticsEP25IOInterruptAccountingDatai
ffffff80008abf70 T __ZN9IOService22changePowerStateToPrivEm
ffffff800088e110 T __ZN9IOService22copyClientWithCategoryEPK8OSSymbol
ffffff800089c650 T __ZN9IOService22getAccumulatedBusyTimeEv
ffffff80008ab4b0 T __ZN9IOService22getPowerStateForClientEPK8OSSymbol
ffffff80008adf40 T __ZN9IOService22powerStateWillChangeToEmmPS_
ffffff80008a16e0 T __ZN9IOService22spindump_timer_expiredEPvS0_
ffffff8000897460 T __ZN9IOService22waitForMatchingServiceEP12OSDictionaryy
ffffff80008a14f0 T __ZN9IOService22watchdog_timer_expiredEPvS0_
ffffff8000890df0 T __ZN9IOService23acknowledgeNotificationEPvj
ffffff80008a1eb0 T __ZN9IOService23actionDriverCalloutDoneEP8OSObjectPvS2_S2_S2_
ffffff80008a1420 T __ZN9IOService23actionPMCompletionQueueEP11IOPMRequestP19IOPMCompletionQueue
ffffff80008a0a00 T __ZN9IOService23actionPMWorkQueueInvokeEP11IOPMRequestP13IOPMWorkQueue
ffffff80008a12a0 T __ZN9IOService23actionPMWorkQueueRetireEP11IOPMRequestP13IOPMWorkQueue
ffffff800089cf20 T __ZN9IOService23addMatchingNotificationEPK8OSSymbolP12OSDictionaryPFbPvS5_PS_P10IONotifierES5_S5_i
ffffff80008ab7e0 T __ZN9IOService23currentPowerConsumptionEv
ffffff80008a1ab0 T __ZN9IOService23driverInformPowerChangeEv
ffffff80008a8680 T __ZN9IOService23handleRequestPowerStateEP11IOPMRequest
ffffff80008a45b0 T __ZN9IOService23notifyControllingDriverEv
ffffff80008a4950 T __ZN9IOService23notifyInterestedDriversEv
ffffff800089d2c0 T __ZN9IOService23registryEntryIDMatchingEyP12OSDictionary
ffffff80008aba10 T __ZN9IOService23requestPowerDomainStateEmP17IOPowerConnectionm
ffffff8000892270 T __ZN9IOService23scheduleTerminatePhase2Ej
ffffff80008ac3e0 T __ZN9IOService23setAdvisoryTickleEnableEb
ffffff80008975f0 T __ZN9IOService23syncNotificationHandlerEPvS0_PS_P10IONotifier
ffffff80008a4070 T __ZN9IOService23tellClientsWithResponseEi
ffffff80008ad990 T __ZN9IOService23updatePowerStatesReportEjPvS0_
ffffff80008adb50 T __ZN9IOService23updateSimplePowerReportEjPvS0_
ffffff80008ab800 T __ZN9IOService24acknowledgeSetPowerStateEv
ffffff80008905c0 T __ZN9IOService24getDeviceMemoryWithIndexEj
ffffff8000890630 T __ZN9IOService24mapDeviceMemoryWithIndexEjj
ffffff80008a5820 T __ZN9IOService24pmTellClientWithResponseEP8OSObjectPv
ffffff80008aded0 T __ZN9IOService24powerStateForDomainStateEm
ffffff80008ab4f0 T __ZN9IOService24registerInterestedDriverEPS_
ffffff800089bea0 T __ZN9IOService24requireMaxInterruptDelayEj
ffffff80008acd00 T __ZN9IOService25ParentChangeSetPowerStateEv
ffffff80008a7ab0 T __ZN9IOService25handleRegisterPowerDriverEP11IOPMRequest
ffffff800089d840 T __ZN9IOService25removeInterruptStatisticsEi
ffffff80008a6a10 T __ZN9IOService26ParentChangeRootChangeDownEv
ffffff80008a1730 T __ZN9IOService26actionSpinDumpTimerExpiredEP8OSObjectPvS2_S2_S2_
ffffff80008ad620 T __ZN9IOService26configurePowerStatesReportEjPv
ffffff80008adb20 T __ZN9IOService26configureSimplePowerReportEjPv
ffffff80008ab640 T __ZN9IOService26deRegisterInterestedDriverEPS_
ffffff80008a87e0 T __ZN9IOService26handlePowerOverrideChangedEP11IOPMRequest
ffffff80008ab990 T __ZN9IOService26handleSynchronizePowerTreeEP11IOPMRequest
ffffff80008913f0 T __ZN9IOService26registerInterestForNotiferEP10IONotifierPK8OSSymbolPFiPvS5_jPS_S5_mES5_S5_
ffffff80008acad0 T __ZN9IOService26tellSystemCapabilityChangeEj
ffffff80008a68a0 T __ZN9IOService26trackSystemSleepPreventersEmmj
ffffff80008acc50 T __ZN9IOService27OurChangeWaitForPowerSettleEv
ffffff80008add60 T __ZN9IOService27getPowerStateForDomainFlagsEm
ffffff80008addd0 T __ZN9IOService27maxCapabilityForDomainStateEm
ffffff80008a4660 T __ZN9IOService27notifyControllingDriverDoneEv
ffffff80008a4aa0 T __ZN9IOService27notifyInterestedDriversDoneEv
ffffff80008a98a0 T __ZN9IOService28handleAcknowledgePowerChangeEP11IOPMRequest
ffffff80008a82c0 T __ZN9IOService28handlePowerDomainDidChangeToEP11IOPMRequest
ffffff80008acb20 T __ZN9IOService29OurChangeTellClientsPowerDownEv
ffffff80008ac120 T __ZN9IOService29changePowerStateForRootDomainEm
ffffff80008a8040 T __ZN9IOService29handlePowerDomainWillChangeToEP11IOPMRequest
ffffff80008acd50 T __ZN9IOService30ParentChangeWaitForPowerSettleEv
ffffff80008abfe0 T __ZN9IOService30changePowerStateWithOverrideToEmj
ffffff80008ade40 T __ZN9IOService31initialPowerStateForDomainStateEm
ffffff80008a5500 T __ZN9IOService31pmTellCapabilityAppWithResponseEP8OSObjectPv
ffffff80008a4880 T __ZN9IOService32OurChangeTellCapabilityDidChangeEv
ffffff80008aca70 T __ZN9IOService33OurChangeTellCapabilityWillChangeEv
ffffff80008acb80 T __ZN9IOService34OurChangeTellUserPMPolicyPowerDownEv
ffffff80008a4c90 T __ZN9IOService34ParentChangeAcknowledgePowerChangeEv
ffffff80008a5f50 T __ZN9IOService34pmTellCapabilityClientWithResponseEP8OSObjectPv
ffffff80008acdc0 T __ZN9IOService35ParentChangeTellCapabilityDidChangeEv
ffffff80008a9400 T __ZN9IOService36ParentChangeTellCapabilityWillChangeEv
ffffff80008acbb0 T __ZN9IOService37OurChangeTellPriorityClientsPowerDownEv
ffffff80008acc80 T __ZN9IOService40ParentChangeTellPriorityClientsPowerDownEv
ffffff80008a47c0 T __ZN9IOService41OurChangeNotifyInterestedDriversDidChangeEv
ffffff80008a44f0 T __ZN9IOService42OurChangeNotifyInterestedDriversWillChangeEv
ffffff80008acd70 T __ZN9IOService44ParentChangeNotifyInterestedDriversDidChangeEv
ffffff80008accb0 T __ZN9IOService45ParentChangeNotifyInterestedDriversWillChangeEv
ffffff800088ddb0 T __ZN9IOService4freeEv
ffffff800088df40 T __ZN9IOService4initEP12OSDictionary
ffffff800088dfb0 T __ZN9IOService4initEP15IORegistryEntryPK15IORegistryPlane
ffffff800088f0b0 T __ZN9IOService4openEPS_jPv
ffffff800088f0a0 T __ZN9IOService4stopEPS_
ffffff800088f160 T __ZN9IOService5closeEPS_j
ffffff800088f080 T __ZN9IOService5probeEPS_Pi
ffffff800088f090 T __ZN9IOService5startEPS_
ffffff80008aa0e0 T __ZN9IOService6PMfreeEv
ffffff800089fa50 T __ZN9IOService6PMinitEv
ffffff80008aa460 T __ZN9IOService6PMstopEv
ffffff800088feb0 T __ZN9IOService6attachEPS_
ffffff800088ffa0 T __ZN9IOService6detachEPS_
ffffff80008aa370 T __ZN9IOService7PMDebugEjmm
ffffff8000890a10 T __ZN9IOService7messageEjPS_Pv
ffffff80008a37b0 T __ZN9IOService8all_doneEv
ffffff800088f350 T __ZN9IOService8finalizeEj
ffffff800089ae10 T __ZN9IOService9MetaClassC1Ev
ffffff800089aea0 T __ZN9IOService9MetaClassC2Ev
ffffff8000a11df8 S __ZN9IOService9metaClassE
ffffff80008ac920 T __ZN9IOService9notifyAllEj
ffffff800088f340 T __ZN9IOService9terminateEj
ffffff800089caf0 T __ZN9IOService9waitQuietEP13mach_timespec
ffffff800089c880 T __ZN9IOService9waitQuietEy
ffffff800089ae70 T __ZN9IOServiceC1EPK11OSMetaClass
ffffff800089aee0 T __ZN9IOServiceC1Ev
ffffff800089ae50 T __ZN9IOServiceC2EPK11OSMetaClass
ffffff800089af20 T __ZN9IOServiceC2Ev
ffffff800088dd60 T __ZN9IOServiceD0Ev
ffffff800088dd50 T __ZN9IOServiceD1Ev
ffffff800089ae90 T __ZN9IOServiceD2Ev
ffffff8000abdbc0 S __ZN9OSBoolean10gMetaClassE
ffffff800083cee0 T __ZN9OSBoolean10initializeEv
ffffff8000a0e6e0 S __ZN9OSBoolean10superClassE
ffffff800083d310 T __ZN9OSBoolean11withBooleanEb
ffffff800083ca70 T __ZN9OSBoolean19_RESERVEDOSBoolean0Ev
ffffff800083caa0 T __ZN9OSBoolean19_RESERVEDOSBoolean1Ev
ffffff800083cad0 T __ZN9OSBoolean19_RESERVEDOSBoolean2Ev
ffffff800083cb00 T __ZN9OSBoolean19_RESERVEDOSBoolean3Ev
ffffff800083cb30 T __ZN9OSBoolean19_RESERVEDOSBoolean4Ev
ffffff800083cb60 T __ZN9OSBoolean19_RESERVEDOSBoolean5Ev
ffffff800083cb90 T __ZN9OSBoolean19_RESERVEDOSBoolean6Ev
ffffff800083cbc0 T __ZN9OSBoolean19_RESERVEDOSBoolean7Ev
ffffff800083ca10 T __ZN9OSBoolean4freeEv
ffffff800083d1c0 T __ZN9OSBoolean9MetaClassC1Ev
ffffff800083d250 T __ZN9OSBoolean9MetaClassC2Ev
ffffff8000a0e6d8 S __ZN9OSBoolean9metaClassE
ffffff800083d220 T __ZN9OSBooleanC1EPK11OSMetaClass
ffffff800083d290 T __ZN9OSBooleanC1Ev
ffffff800083d200 T __ZN9OSBooleanC2EPK11OSMetaClass
ffffff800083d2d0 T __ZN9OSBooleanC2Ev
ffffff800083c8f0 T __ZN9OSBooleanD0Ev
ffffff800083c8e0 T __ZN9OSBooleanD1Ev
ffffff800083d240 T __ZN9OSBooleanD2Ev
ffffff80008ddc70 T __ZNK10IOMachPort12getMetaClassEv
ffffff80008ddf20 T __ZNK10IOMachPort9MetaClass5allocEv
ffffff800089a0e0 T __ZNK10IONotifier12getMetaClassEv
ffffff800089a350 T __ZNK10IONotifier9MetaClass5allocEv
ffffff80008f2720 T __ZNK10IOReporter12getMetaClassEv
ffffff80008f3aa0 T __ZNK10IOReporter9MetaClass5allocEv
ffffff80008b6a70 T __ZNK10IOWorkLoop12getMetaClassEv
ffffff80008b73f0 T __ZNK10IOWorkLoop19enableAllInterruptsEv
ffffff80008b7460 T __ZNK10IOWorkLoop20disableAllInterruptsEv
ffffff80008b7310 T __ZNK10IOWorkLoop21enableAllEventSourcesEv
ffffff80008b7380 T __ZNK10IOWorkLoop22disableAllEventSourcesEv
ffffff80008b72a0 T __ZNK10IOWorkLoop6inGateEv
ffffff80008b7280 T __ZNK10IOWorkLoop8onThreadEv
ffffff80008b7e90 T __ZNK10IOWorkLoop9MetaClass5allocEv
ffffff80008b7270 T __ZNK10IOWorkLoop9getThreadEv
ffffff8000841330 T __ZNK10OSIterator12getMetaClassEv
ffffff8000841660 T __ZNK10OSIterator9MetaClass5allocEv
ffffff80008b02c0 T __ZNK11IOCatalogue12getMetaClassEv
ffffff80008b1710 T __ZNK11IOCatalogue12unloadModuleEP8OSString
ffffff80008b1f20 T __ZNK11IOCatalogue13serializeDataEjP11OSSerialize
ffffff80008b13b0 T __ZNK11IOCatalogue14isModuleLoadedEP12OSDictionary
ffffff80008b1300 T __ZNK11IOCatalogue14isModuleLoadedEP8OSString
ffffff80008b1360 T __ZNK11IOCatalogue14isModuleLoadedEPKc
ffffff80008b0d60 T __ZNK11IOCatalogue18getGenerationCountEv
ffffff80008b0550 T __ZNK11IOCatalogue9MetaClass5allocEv
ffffff80008b02a0 T __ZNK11IOCatalogue9serializeEP11OSSerialize
ffffff80008eb030 T __ZNK11IODataQueue12getMetaClassEv
ffffff80008eb5b0 T __ZNK11IODataQueue9MetaClass5allocEv
ffffff80008cbf10 T __ZNK11IOMemoryMap12getMetaClassEv
ffffff80008cbf20 T __ZNK11IOMemoryMap13taggedReleaseEPKv
ffffff80008ccfc0 T __ZNK11IOMemoryMap9MetaClass5allocEv
ffffff800089da40 T __ZNK11IOPMRequest12getMetaClassEv
ffffff800089dcb0 T __ZNK11IOPMRequest9MetaClass5allocEv
ffffff80008996d0 T __ZNK11IOResources11getWorkLoopEv
ffffff80008992f0 T __ZNK11IOResources12getMetaClassEv
ffffff8000899d90 T __ZNK11IOResources9MetaClass5allocEv
ffffff800089ec10 T __ZNK11IOServicePM12getMetaClassEv
ffffff800089ec20 T __ZNK11IOServicePM14gatedSerializeEP11OSSerialize
ffffff80008aa3f0 T __ZNK11IOServicePM7pmPrintEjmm
ffffff80008a1fd0 T __ZNK11IOServicePM7pmTraceEjmm
ffffff800089f350 T __ZNK11IOServicePM9MetaClass5allocEv
ffffff800089eba0 T __ZNK11IOServicePM9serializeEP11OSSerialize
ffffff8000839d60 T __ZNK11OSMetaClass11addInstanceEPK8OSObjectb
ffffff800083a5a0 T __ZNK11OSMetaClass11getKmodNameEv
ffffff80008396b0 T __ZNK11OSMetaClass12getClassNameEv
ffffff80008396e0 T __ZNK11OSMetaClass12getClassSizeEv
ffffff8000838c50 T __ZNK11OSMetaClass12getMetaClassEv
ffffff8000838c60 T __ZNK11OSMetaClass12taggedRetainEPKv
ffffff80008391b0 T __ZNK11OSMetaClass13checkMetaCastEPK15OSMetaClassBase
ffffff800083a590 T __ZNK11OSMetaClass13getSuperClassEv
ffffff8000838c70 T __ZNK11OSMetaClass13taggedReleaseEPKv
ffffff8000838c80 T __ZNK11OSMetaClass13taggedReleaseEPKvi
ffffff8000838c00 T __ZNK11OSMetaClass14getRetainCountEv
ffffff8000839e00 T __ZNK11OSMetaClass14removeInstanceEPK8OSObjectb
ffffff800083a550 T __ZNK11OSMetaClass14reservedCalledEi
ffffff800083a100 T __ZNK11OSMetaClass16applyToInstancesEPFbPK8OSObjectPvES3_
ffffff800083a5d0 T __ZNK11OSMetaClass16getInstanceCountEv
ffffff80008396d0 T __ZNK11OSMetaClass18getClassNameSymbolEv
ffffff8000839c80 T __ZNK11OSMetaClass18instanceDestructedEv
ffffff8000839c50 T __ZNK11OSMetaClass19instanceConstructedEv
ffffff8000838c10 T __ZNK11OSMetaClass6retainEv
ffffff8000838bf0 T __ZNK11OSMetaClass7releaseEi
ffffff8000838c20 T __ZNK11OSMetaClass7releaseEv
ffffff8000838c30 T __ZNK11OSMetaClass9serializeEP11OSSerialize
ffffff8000858860 T __ZNK11OSSerialize11getCapacityEv
ffffff8000858310 T __ZNK11OSSerialize12getMetaClassEv
ffffff8000858870 T __ZNK11OSSerialize20getCapacityIncrementEv
ffffff8000858390 T __ZNK11OSSerialize4textEv
ffffff8000858d20 T __ZNK11OSSerialize9MetaClass5allocEv
ffffff8000858850 T __ZNK11OSSerialize9getLengthEv
ffffff80008c0170 T __ZNK12IODMACommand12getMetaClassEv
ffffff80008c0520 T __ZNK12IODMACommand19getMemoryDescriptorEv
ffffff80008c2650 T __ZNK12IODMACommand21getIOMemoryDescriptorEv
ffffff80008c2130 T __ZNK12IODMACommand9MetaClass5allocEv
ffffff80008aea60 T __ZNK12IOPMinformee12getMetaClassEv
ffffff80008aed10 T __ZNK12IOPMinformee9MetaClass5allocEv
ffffff8000904f90 T __ZNK12IORootParent12copyPropertyEPKc
ffffff8000904f80 T __ZNK12IORootParent12getMetaClassEv
ffffff8000909e20 T __ZNK12IORootParent9MetaClass5allocEv
ffffff80008df610 T __ZNK12IOUserClient12getMetaClassEv
ffffff80008e1800 T __ZNK12IOUserClient9MetaClass5allocEv
ffffff800083d380 T __ZNK12OSCollection12getMetaClassEv
ffffff800083d780 T __ZNK12OSCollection9MetaClass5allocEv
ffffff800083f920 T __ZNK12OSDictionary11getCapacityEv
ffffff800083f7f0 T __ZNK12OSDictionary12getMetaClassEv
ffffff800083f8d0 T __ZNK12OSDictionary12initIteratorEPv
ffffff800083f8c0 T __ZNK12OSDictionary12iteratorSizeEv
ffffff800083f930 T __ZNK12OSDictionary20getCapacityIncrementEv
ffffff800083f8e0 T __ZNK12OSDictionary24getNextObjectForIteratorEPvPP8OSObject
ffffff800083f910 T __ZNK12OSDictionary8getCountEv
ffffff8000840d70 T __ZNK12OSDictionary9MetaClass5allocEv
ffffff8000840510 T __ZNK12OSDictionary9getObjectEPK8OSString
ffffff8000840450 T __ZNK12OSDictionary9getObjectEPK8OSSymbol
ffffff8000840550 T __ZNK12OSDictionary9getObjectEPKc
ffffff800083f800 T __ZNK12OSDictionary9isEqualToEPK15OSMetaClassBase
ffffff80008406b0 T __ZNK12OSDictionary9isEqualToEPKS_
ffffff8000840590 T __ZNK12OSDictionary9isEqualToEPKS_PK12OSCollection
ffffff800083f5f0 T __ZNK12OSDictionary9serializeEP11OSSerialize
ffffff8000856390 T __ZNK12OSOrderedSet11getCapacityEv
ffffff8000856260 T __ZNK12OSOrderedSet12getMetaClassEv
ffffff8000856340 T __ZNK12OSOrderedSet12initIteratorEPv
ffffff8000856330 T __ZNK12OSOrderedSet12iteratorSizeEv
ffffff8000856a60 T __ZNK12OSOrderedSet13getLastObjectEv
ffffff80008569e0 T __ZNK12OSOrderedSet14containsObjectEPK15OSMetaClassBase
ffffff8000856a40 T __ZNK12OSOrderedSet14getFirstObjectEv
ffffff80008563a0 T __ZNK12OSOrderedSet20getCapacityIncrementEv
ffffff8000856350 T __ZNK12OSOrderedSet24getNextObjectForIteratorEPvPP8OSObject
ffffff8000856a00 T __ZNK12OSOrderedSet6memberEPK15OSMetaClassBase
ffffff8000856380 T __ZNK12OSOrderedSet8getCountEv
ffffff80008570e0 T __ZNK12OSOrderedSet9MetaClass5allocEv
ffffff8000856c40 T __ZNK12OSOrderedSet9getObjectEj
ffffff8000856270 T __ZNK12OSOrderedSet9isEqualToEPK15OSMetaClassBase
ffffff8000856c70 T __ZNK12OSOrderedSet9isEqualToEPKS_
ffffff8000858de0 T __ZNK12OSSerializer12getMetaClassEv
ffffff8000859050 T __ZNK12OSSerializer9MetaClass5allocEv
ffffff8000858dc0 T __ZNK12OSSerializer9serializeEP11OSSerialize
ffffff800085ce10 T __ZNK12OSSymbolPool10findSymbolEPKc
ffffff80008fd910 T __ZNK12PMHaltWorker12getMetaClassEv
ffffff80008fdc10 T __ZNK12PMHaltWorker9MetaClass5allocEv
ffffff80008ba010 T __ZNK13IOCommandGate12getMetaClassEv
ffffff80008bacb0 T __ZNK13IOCommandGate9MetaClass5allocEv
ffffff80008bb6b0 T __ZNK13IOCommandPool12getMetaClassEv
ffffff80008bbd00 T __ZNK13IOCommandPool9MetaClass5allocEv
ffffff80008b84f0 T __ZNK13IOEventSource11getWorkLoopEv
ffffff80008b8350 T __ZNK13IOEventSource12getMetaClassEv
ffffff80008b8480 T __ZNK13IOEventSource7getNextEv
ffffff80008b8500 T __ZNK13IOEventSource8onThreadEv
ffffff80008b8900 T __ZNK13IOEventSource9MetaClass5allocEv
ffffff80008b84a0 T __ZNK13IOEventSource9getActionEv
ffffff80008b84e0 T __ZNK13IOEventSource9isEnabledEv
ffffff800089e1d0 T __ZNK13IOPMWorkQueue12getMetaClassEv
ffffff800089e710 T __ZNK13IOPMWorkQueue9MetaClass5allocEv
ffffff8000908c60 T __ZNK13PMTraceWorker12getMetaClassEv
ffffff8000908ed0 T __ZNK13PMTraceWorker9MetaClass5allocEv
ffffff8000908c10 T __ZNK13PMTraceWorker9serializeEP11OSSerialize
ffffff8000898010 T __ZNK13_IOServiceJob12getMetaClassEv
ffffff8000899250 T __ZNK13_IOServiceJob9MetaClass5allocEv
ffffff80008c4740 T __ZNK14IOMemoryCursor12getMetaClassEv
ffffff80008c4c50 T __ZNK14IOMemoryCursor9MetaClass5allocEv
ffffff80008fdcc0 T __ZNK14IOPMrootDomain12copyPropertyEPKc
ffffff80008fdcb0 T __ZNK14IOPMrootDomain12getMetaClassEv
ffffff80008fe150 T __ZNK14IOPMrootDomain19serializePropertiesEP11OSSerialize
ffffff80009088c0 T __ZNK14IOPMrootDomain9MetaClass5allocEv
ffffff80008f7870 T __ZNK14IOReportLegend12getMetaClassEv
ffffff80008f7b20 T __ZNK14IOReportLegend9MetaClass5allocEv
ffffff80008ddfc0 T __ZNK14IOUserIterator12getMetaClassEv
ffffff80008de360 T __ZNK14IOUserIterator9MetaClass5allocEv
ffffff8000884770 T __ZNK15IOConditionLock12getConditionEv
ffffff80008845a0 T __ZNK15IOConditionLock12getMetaClassEv
ffffff8000884760 T __ZNK15IOConditionLock16getInterruptibleEv
ffffff8000884bb0 T __ZNK15IOConditionLock9MetaClass5allocEv
ffffff80008db6d0 T __ZNK15IODMAController12getMetaClassEv
ffffff80008dba80 T __ZNK15IODMAController9MetaClass5allocEv
ffffff80008b1f80 T __ZNK15IOPMPowerSource12getMetaClassEv
ffffff80008b2630 T __ZNK15IOPMPowerSource9MetaClass5allocEv
ffffff80008d3a10 T __ZNK15IOPanicPlatform12getMetaClassEv
ffffff80008d3cc0 T __ZNK15IOPanicPlatform9MetaClass5allocEv
ffffff800088ac50 T __ZNK15IORegistryEntry11compareNameEP8OSStringPS1_
ffffff800088ad70 T __ZNK15IORegistryEntry11getLocationEPK15IORegistryPlane
ffffff8000889410 T __ZNK15IORegistryEntry11getPropertyEPK8OSString
ffffff8000889530 T __ZNK15IORegistryEntry11getPropertyEPK8OSStringPK15IORegistryPlanej
ffffff8000889380 T __ZNK15IORegistryEntry11getPropertyEPK8OSSymbol
ffffff8000889490 T __ZNK15IORegistryEntry11getPropertyEPK8OSSymbolPK15IORegistryPlanej
ffffff8000889450 T __ZNK15IORegistryEntry11getPropertyEPKc
ffffff80008895d0 T __ZNK15IORegistryEntry11getPropertyEPKcPK15IORegistryPlanej
ffffff800088ab30 T __ZNK15IORegistryEntry12compareNamesEP8OSObjectPP8OSString
ffffff800088adb0 T __ZNK15IORegistryEntry12copyLocationEPK15IORegistryPlane
ffffff8000889710 T __ZNK15IORegistryEntry12copyPropertyEPK8OSString
ffffff8000888440 T __ZNK15IORegistryEntry12copyPropertyEPK8OSStringPK15IORegistryPlanej
ffffff8000889670 T __ZNK15IORegistryEntry12copyPropertyEPK8OSSymbol
ffffff80008884e0 T __ZNK15IORegistryEntry12copyPropertyEPK8OSSymbolPK15IORegistryPlanej
ffffff80008897b0 T __ZNK15IORegistryEntry12copyPropertyEPKc
ffffff80008883a0 T __ZNK15IORegistryEntry12copyPropertyEPKcPK15IORegistryPlanej
ffffff80008882c0 T __ZNK15IORegistryEntry12getMetaClassEv
ffffff8000889ca0 T __ZNK15IORegistryEntry13getChildEntryEPK15IORegistryPlane
ffffff8000889a30 T __ZNK15IORegistryEntry14applyToParentsEPFvPS_PvES1_PK15IORegistryPlane
ffffff80008885f0 T __ZNK15IORegistryEntry14copyChildEntryEPK15IORegistryPlane
ffffff8000889b00 T __ZNK15IORegistryEntry14getParentEntryEPK15IORegistryPlane
ffffff8000889bd0 T __ZNK15IORegistryEntry15applyToChildrenEPFvPS_PvES1_PK15IORegistryPlane
ffffff8000888580 T __ZNK15IORegistryEntry15copyParentEntryEPK15IORegistryPlane
ffffff8000889b30 T __ZNK15IORegistryEntry16getChildIteratorEPK15IORegistryPlane
ffffff800088b2f0 T __ZNK15IORegistryEntry16getPathComponentEPcPiPK15IORegistryPlane
ffffff800088daa0 T __ZNK15IORegistryEntry16getPropertyTableEv
ffffff8000889990 T __ZNK15IORegistryEntry17getParentIteratorEPK15IORegistryPlane
ffffff80008898e0 T __ZNK15IORegistryEntry19serializePropertiesEP11OSSerialize
ffffff800088dba0 T __ZNK15IORegistryEntry20getChildSetReferenceEPK15IORegistryPlane
ffffff800088dab0 T __ZNK15IORegistryEntry21getParentSetReferenceEPK15IORegistryPlane
ffffff8000889850 T __ZNK15IORegistryEntry24dictionaryWithPropertiesEv
ffffff800088a9e0 T __ZNK15IORegistryEntry7getNameEPK15IORegistryPlane
ffffff800088aef0 T __ZNK15IORegistryEntry7getPathEPcPiPK15IORegistryPlane
ffffff8000889f50 T __ZNK15IORegistryEntry7inPlaneEPK15IORegistryPlane
ffffff8000889cd0 T __ZNK15IORegistryEntry7isChildEPS_PK15IORegistryPlaneb
ffffff800088aa80 T __ZNK15IORegistryEntry8copyNameEPK15IORegistryPlane
ffffff800088a110 T __ZNK15IORegistryEntry8getDepthEPK15IORegistryPlane
ffffff800088bfb0 T __ZNK15IORegistryEntry8hasAliasEPK15IORegistryPlanePcPi
ffffff8000889e10 T __ZNK15IORegistryEntry8isParentEPS_PK15IORegistryPlaneb
ffffff800088b720 T __ZNK15IORegistryEntry8makeLinkEPS_jPK15IORegistryPlane
ffffff800088c8c0 T __ZNK15IORegistryEntry9MetaClass5allocEv
ffffff800088dad0 T __ZNK15IORegistryEntry9breakLinkEPS_jPK15IORegistryPlane
ffffff800088c980 T __ZNK15IORegistryPlane12getMetaClassEv
ffffff800088cbf0 T __ZNK15IORegistryPlane9MetaClass5allocEv
ffffff800088c960 T __ZNK15IORegistryPlane9serializeEP11OSSerialize
ffffff80008f4d50 T __ZNK15IOStateReporter12getMetaClassEv
ffffff80008f5b50 T __ZNK15IOStateReporter9MetaClass5allocEv
ffffff80008fbfc0 T __ZNK15IOWatchDogTimer12getMetaClassEv
ffffff80008fc4e0 T __ZNK15IOWatchDogTimer9MetaClass5allocEv
ffffff80008390b0 T __ZNK15OSMetaClassBase8metaCastEPK11OSMetaClass
ffffff8000839310 T __ZNK15OSMetaClassBase8metaCastEPK8OSString
ffffff80008391f0 T __ZNK15OSMetaClassBase8metaCastEPK8OSSymbol
ffffff80008393c0 T __ZNK15OSMetaClassBase8metaCastEPKc
ffffff8000838a00 T __ZNK15OSMetaClassBase9isEqualToEPKS_
ffffff8000838c90 T __ZNK15OSMetaClassMeta5allocEv
ffffff8000908f70 T __ZNK15PMSettingHandle12getMetaClassEv
ffffff80009093c0 T __ZNK15PMSettingHandle9MetaClass5allocEv
ffffff8000909460 T __ZNK15PMSettingObject12getMetaClassEv
ffffff8000909b70 T __ZNK15PMSettingObject9MetaClass5allocEv
ffffff8000897f70 T __ZNK15_IOConfigThread12getMetaClassEv
ffffff8000898fa0 T __ZNK15_IOConfigThread9MetaClass5allocEv
ffffff80008bc180 T __ZNK16IODMAEventSource12getMetaClassEv
ffffff80008bc8c0 T __ZNK16IODMAEventSource9MetaClass5allocEv
ffffff80008ea080 T __ZNK16IOKitDiagnostics12getMetaClassEv
ffffff80008ea2f0 T __ZNK16IOKitDiagnostics9MetaClass5allocEv
ffffff80008e9f40 T __ZNK16IOKitDiagnostics9serializeEP11OSSerialize
ffffff800089dd50 T __ZNK16IOPMRequestQueue12getMetaClassEv
ffffff800089e130 T __ZNK16IOPMRequestQueue9MetaClass5allocEv
ffffff80008af120 T __ZNK16IOPMinformeeList12getMetaClassEv
ffffff80008af3e0 T __ZNK16IOPMinformeeList9MetaClass5allocEv
ffffff80008d2030 T __ZNK16IOPlatformDevice11compareNameEP8OSStringPS1_
ffffff80008d2020 T __ZNK16IOPlatformDevice12getMetaClassEv
ffffff80008d3970 T __ZNK16IOPlatformDevice9MetaClass5allocEv
ffffff80008d0c50 T __ZNK16IOPlatformExpert12getMetaClassEv
ffffff80008d15e0 T __ZNK16IOPlatformExpert14compareNubNameEPK9IOServiceP8OSStringPS4_
ffffff80008d23d0 T __ZNK16IOPlatformExpert9MetaClass5allocEv
ffffff80008cf5a0 T __ZNK16IORangeAllocator12getMetaClassEv
ffffff80008cff20 T __ZNK16IORangeAllocator9MetaClass5allocEv
ffffff80008cf480 T __ZNK16IORangeAllocator9serializeEP11OSSerialize
ffffff80008f44a0 T __ZNK16IOSimpleReporter12getMetaClassEv
ffffff80008f4730 T __ZNK16IOSimpleReporter9MetaClass5allocEv
ffffff80008c50e0 T __ZNK17IOBigMemoryCursor12getMetaClassEv
ffffff80008c5430 T __ZNK17IOBigMemoryCursor9MetaClass5allocEv
ffffff80008b4490 T __ZNK17IOPolledInterface12getMetaClassEv
ffffff80008b4a00 T __ZNK17IOPolledInterface9MetaClass5allocEv
ffffff80008fb8a0 T __ZNK17IOPowerConnection12getMetaClassEv
ffffff80008fbf60 T __ZNK17IOPowerConnection12getReadyFlagEv
ffffff80008fbb10 T __ZNK17IOPowerConnection9MetaClass5allocEv
ffffff80008eba30 T __ZNK17IOSharedDataQueue12getMetaClassEv
ffffff80008ec2b0 T __ZNK17IOSharedDataQueue9MetaClass5allocEv
ffffff80008d2470 T __ZNK18IODTPlatformExpert12getMetaClassEv
ffffff80008d2510 T __ZNK18IODTPlatformExpert14compareNubNameEPK9IOServiceP8OSStringPS4_
ffffff80008d3030 T __ZNK18IODTPlatformExpert9MetaClass5allocEv
ffffff80008c6e10 T __ZNK18IOMemoryDescriptor12getDirectionEv
ffffff80008c65b0 T __ZNK18IOMemoryDescriptor12getMetaClassEv
ffffff80008c6990 T __ZNK18IOMemoryDescriptor19dmaCommandOperationEjPvj
ffffff80008ccaa0 T __ZNK18IOMemoryDescriptor9MetaClass5allocEv
ffffff80008c6e20 T __ZNK18IOMemoryDescriptor9getLengthEv
ffffff800088c140 T __ZNK18IORegistryIterator12getMetaClassEv
ffffff800088cea0 T __ZNK18IORegistryIterator9MetaClass5allocEv
ffffff80008bda60 T __ZNK18IOTimerEventSource12getMetaClassEv
ffffff80008be570 T __ZNK18IOTimerEventSource9MetaClass5allocEv
ffffff80008de400 T __ZNK18IOUserNotification12getMetaClassEv
ffffff80008de750 T __ZNK18IOUserNotification9MetaClass5allocEv
ffffff8000897880 T __ZNK18_IOServiceNotifier12getMetaClassEv
ffffff8000898a40 T __ZNK18_IOServiceNotifier9MetaClass5allocEv
ffffff80008f6800 T __ZNK19IOHistogramReporter12getMetaClassEv
ffffff80008f7340 T __ZNK19IOHistogramReporter9MetaClass5allocEv
ffffff800089e7b0 T __ZNK19IOPMCompletionQueue12getMetaClassEv
ffffff800089eb00 T __ZNK19IOPMCompletionQueue9MetaClass5allocEv
ffffff80008b3d50 T __ZNK19IOPMPowerSourceList12getMetaClassEv
ffffff80008b4020 T __ZNK19IOPMPowerSourceList9MetaClass5allocEv
ffffff80008afaa0 T __ZNK19IOPMPowerStateQueue12getMetaClassEv
ffffff80008afe10 T __ZNK19IOPMPowerStateQueue9MetaClass5allocEv
ffffff80008b4a60 T __ZNK19IOPolledFilePollers12getMetaClassEv
ffffff80008b4cd0 T __ZNK19IOPolledFilePollers9MetaClass5allocEv
ffffff80008fd150 T __ZNK19PMAssertionsTracker12getMetaClassEv
ffffff80008fd870 T __ZNK19PMAssertionsTracker9MetaClass5allocEv
ffffff80008c54d0 T __ZNK20IOLittleMemoryCursor12getMetaClassEv
ffffff80008c5820 T __ZNK20IOLittleMemoryCursor9MetaClass5allocEv
ffffff800083da50 T __ZNK20OSCollectionIterator12getMetaClassEv
ffffff800083df00 T __ZNK20OSCollectionIterator9MetaClass5allocEv
ffffff80008fa990 T __ZNK20RootDomainUserClient12getMetaClassEv
ffffff80008fb340 T __ZNK20RootDomainUserClient9MetaClass5allocEv
ffffff80008dbf20 T __ZNK21IOInterruptController12getMetaClassEv
ffffff80008dd470 T __ZNK21IOInterruptController9MetaClass5allocEv
ffffff80008c4cf0 T __ZNK21IONaturalMemoryCursor12getMetaClassEv
ffffff80008c5040 T __ZNK21IONaturalMemoryCursor9MetaClass5allocEv
ffffff80008d0330 T __ZNK21IOSubMemoryDescriptor12getMetaClassEv
ffffff80008d0830 T __ZNK21IOSubMemoryDescriptor9MetaClass5allocEv
ffffff80008b94b0 T __ZNK22IOInterruptEventSource11getIntIndexEv
ffffff80008b94a0 T __ZNK22IOInterruptEventSource11getProviderEv
ffffff80008b8dd0 T __ZNK22IOInterruptEventSource12getMetaClassEv
ffffff80008b94c0 T __ZNK22IOInterruptEventSource14getAutoDisableEv
ffffff80008b9b90 T __ZNK22IOInterruptEventSource9MetaClass5allocEv
ffffff80008ea390 T __ZNK22IOKitDiagnosticsClient12getMetaClassEv
ffffff80008ea660 T __ZNK22IOKitDiagnosticsClient9MetaClass5allocEv
ffffff80008d3280 T __ZNK22IOPlatformExpertDevice11compareNameEP8OSStringPS1_
ffffff80008d3290 T __ZNK22IOPlatformExpertDevice11getWorkLoopEv
ffffff80008d3090 T __ZNK22IOPlatformExpertDevice12getMetaClassEv
ffffff80008d36c0 T __ZNK22IOPlatformExpertDevice9MetaClass5allocEv
ffffff8000891e70 T __ZNK22_IOOpenServiceIterator12getMetaClassEv
ffffff800089a040 T __ZNK22_IOOpenServiceIterator9MetaClass5allocEv
ffffff80008ce6b0 T __ZNK23IOMultiMemoryDescriptor12getMetaClassEv
ffffff80008cefd0 T __ZNK23IOMultiMemoryDescriptor9MetaClass5allocEv
ffffff80008bf700 T __ZNK24IOBufferMemoryDescriptor11getCapacityEv
ffffff80008bec00 T __ZNK24IOBufferMemoryDescriptor12getMetaClassEv
ffffff80008bfaa0 T __ZNK24IOBufferMemoryDescriptor9MetaClass5allocEv
ffffff80008d6200 T __ZNK24IOCPUInterruptController12getMetaClassEv
ffffff80008d6b10 T __ZNK24IOCPUInterruptController9MetaClass5allocEv
ffffff80008c7db0 T __ZNK25IOGeneralMemoryDescriptor12getMetaClassEv
ffffff80008c8900 T __ZNK25IOGeneralMemoryDescriptor19dmaCommandOperationEjPvj
ffffff80008ccd10 T __ZNK25IOGeneralMemoryDescriptor9MetaClass5allocEv
ffffff80008c7a60 T __ZNK25IOGeneralMemoryDescriptor9serializeEP11OSSerialize
ffffff80008de7b0 T __ZNK25IOServiceUserNotification12getMetaClassEv
ffffff80008def10 T __ZNK25IOServiceUserNotification9MetaClass5allocEv
ffffff80008916f0 T __ZNK26_IOServiceInterestNotifier12getMetaClassEv
ffffff8000898cf0 T __ZNK26_IOServiceInterestNotifier9MetaClass5allocEv
ffffff8000903bb0 T __ZNK27IOPMServiceInterestNotifier12getMetaClassEv
ffffff8000908b70 T __ZNK27IOPMServiceInterestNotifier9MetaClass5allocEv
ffffff80008dc880 T __ZNK27IOSharedInterruptController12getMetaClassEv
ffffff80008dd6e0 T __ZNK27IOSharedInterruptController9MetaClass5allocEv
ffffff80008bcce0 T __ZNK28IOFilterInterruptEventSource12getMetaClassEv
ffffff80008bd240 T __ZNK28IOFilterInterruptEventSource15getFilterActionEv
ffffff80008bd630 T __ZNK28IOFilterInterruptEventSource9MetaClass5allocEv
ffffff80008c28c0 T __ZNK29IOInterleavedMemoryDescriptor12getMetaClassEv
ffffff80008c2ff0 T __ZNK29IOInterleavedMemoryDescriptor9MetaClass5allocEv
ffffff80008defb0 T __ZNK32IOServiceMessageUserNotification12getMetaClassEv
ffffff80008df570 T __ZNK32IOServiceMessageUserNotification9MetaClass5allocEv
ffffff80008d5960 T __ZNK5IOCPU11getPropertyEPK8OSSymbol
ffffff80008d5930 T __ZNK5IOCPU12getMetaClassEv
ffffff80008d5990 T __ZNK5IOCPU19serializePropertiesEP11OSSerialize
ffffff80008d61a0 T __ZNK5IOCPU9MetaClass5allocEv
ffffff8000859960 T __ZNK5OSSet11getCapacityEv
ffffff8000859fc0 T __ZNK5OSSet12getAnyObjectEv
ffffff8000859830 T __ZNK5OSSet12getMetaClassEv
ffffff8000859900 T __ZNK5OSSet12initIteratorEPv
ffffff80008598f0 T __ZNK5OSSet12iteratorSizeEv
ffffff8000859f40 T __ZNK5OSSet14containsObjectEPK15OSMetaClassBase
ffffff8000859970 T __ZNK5OSSet20getCapacityIncrementEv
ffffff8000859910 T __ZNK5OSSet24getNextObjectForIteratorEPvPP8OSObject
ffffff8000859f60 T __ZNK5OSSet6memberEPK15OSMetaClassBase
ffffff8000859950 T __ZNK5OSSet8getCountEv
ffffff800085a480 T __ZNK5OSSet9MetaClass5allocEv
ffffff8000859840 T __ZNK5OSSet9isEqualToEPK15OSMetaClassBase
ffffff8000859fe0 T __ZNK5OSSet9isEqualToEPKS_
ffffff8000859780 T __ZNK5OSSet9serializeEP11OSSerialize
ffffff800083e820 T __ZNK6OSData11getCapacityEv
ffffff800083e550 T __ZNK6OSData12getMetaClassEv
ffffff800083e9c0 T __ZNK6OSData14getBytesNoCopyEjj
ffffff800083e9a0 T __ZNK6OSData14getBytesNoCopyEv
ffffff800083e830 T __ZNK6OSData20getCapacityIncrementEv
ffffff800083ef70 T __ZNK6OSData9MetaClass5allocEv
ffffff800083e810 T __ZNK6OSData9getLengthEv
ffffff800083e560 T __ZNK6OSData9isEqualToEPK15OSMetaClassBase
ffffff800083ea50 T __ZNK6OSData9isEqualToEPK8OSString
ffffff800083e9e0 T __ZNK6OSData9isEqualToEPKS_
ffffff800083ea00 T __ZNK6OSData9isEqualToEPKvj
ffffff800083e2f0 T __ZNK6OSData9serializeEP11OSSerialize
ffffff80008418f0 T __ZNK6OSKext12getMetaClassEv
ffffff800084e660 T __ZNK6OSKext9MetaClass5allocEv
ffffff800083b570 T __ZNK7OSArray11getCapacityEv
ffffff800083b440 T __ZNK7OSArray12getMetaClassEv
ffffff800083b520 T __ZNK7OSArray12initIteratorEPv
ffffff800083b510 T __ZNK7OSArray12iteratorSizeEv
ffffff800083bff0 T __ZNK7OSArray13getLastObjectEv
ffffff800083b580 T __ZNK7OSArray20getCapacityIncrementEv
ffffff800083c010 T __ZNK7OSArray20getNextIndexOfObjectEPK15OSMetaClassBasej
ffffff800083b530 T __ZNK7OSArray24getNextObjectForIteratorEPvPP8OSObject
ffffff800083b560 T __ZNK7OSArray8getCountEv
ffffff800083c420 T __ZNK7OSArray9MetaClass5allocEv
ffffff800083bfd0 T __ZNK7OSArray9getObjectEj
ffffff800083b450 T __ZNK7OSArray9isEqualToEPK15OSMetaClassBase
ffffff800083bf40 T __ZNK7OSArray9isEqualToEPKS_
ffffff800083b3a0 T __ZNK7OSArray9serializeEP11OSSerialize
ffffff80008c33f0 T __ZNK8IOMapper12getMetaClassEv
ffffff80008c3a60 T __ZNK8IOMapper9MetaClass5allocEv
ffffff80008fc770 T __ZNK8IOSyncer12getMetaClassEv
ffffff80008fcd60 T __ZNK8IOSyncer9MetaClass5allocEv
ffffff8000855800 T __ZNK8OSNumber12getMetaClassEv
ffffff8000855920 T __ZNK8OSNumber12numberOfBitsEv
ffffff8000855930 T __ZNK8OSNumber13numberOfBytesEv
ffffff8000855940 T __ZNK8OSNumber17unsigned8BitValueEv
ffffff8000855950 T __ZNK8OSNumber18unsigned16BitValueEv
ffffff8000855960 T __ZNK8OSNumber18unsigned32BitValueEv
ffffff8000855970 T __ZNK8OSNumber18unsigned64BitValueEv
ffffff8000855dd0 T __ZNK8OSNumber9MetaClass5allocEv
ffffff8000855810 T __ZNK8OSNumber9isEqualToEPK15OSMetaClassBase
ffffff80008559d0 T __ZNK8OSNumber9isEqualToEPKS_
ffffff80008556f0 T __ZNK8OSNumber9serializeEP11OSSerialize
ffffff800083a930 T __ZNK8OSObject12getMetaClassEv
ffffff800083a940 T __ZNK8OSObject12taggedRetainEPKv
ffffff800083a9d0 T __ZNK8OSObject13taggedReleaseEPKv
ffffff800083a9f0 T __ZNK8OSObject13taggedReleaseEPKvi
ffffff800083a840 T __ZNK8OSObject14getRetainCountEv
ffffff800083a850 T __ZNK8OSObject6retainEv
ffffff800083a820 T __ZNK8OSObject7releaseEi
ffffff800083a860 T __ZNK8OSObject7releaseEv
ffffff800083b050 T __ZNK8OSObject9MetaClass5allocEv
ffffff800083a870 T __ZNK8OSObject9serializeEP11OSSerialize
ffffff800085ab50 T __ZNK8OSString12getMetaClassEv
ffffff800085ade0 T __ZNK8OSString16getCStringNoCopyEv
ffffff800085ad90 T __ZNK8OSString7getCharEj
ffffff800085b440 T __ZNK8OSString9MetaClass5allocEv
ffffff800085ad80 T __ZNK8OSString9getLengthEv
ffffff800085ab60 T __ZNK8OSString9isEqualToEPK15OSMetaClassBase
ffffff800085ae50 T __ZNK8OSString9isEqualToEPK6OSData
ffffff800085adf0 T __ZNK8OSString9isEqualToEPKS_
ffffff800085ae10 T __ZNK8OSString9isEqualToEPKc
ffffff800085aa20 T __ZNK8OSString9serializeEP11OSSerialize
ffffff800085bb60 T __ZNK8OSSymbol12getMetaClassEv
ffffff800085bc10 T __ZNK8OSSymbol13taggedReleaseEPKv
ffffff800085bc30 T __ZNK8OSSymbol13taggedReleaseEPKvi
ffffff800085c840 T __ZNK8OSSymbol9MetaClass5allocEv
ffffff800085bb70 T __ZNK8OSSymbol9isEqualToEPK15OSMetaClassBase
ffffff800085bd20 T __ZNK8OSSymbol9isEqualToEPKS_
ffffff800085bce0 T __ZNK8OSSymbol9isEqualToEPKc
ffffff80008bb0b0 T __ZNK9IOCommand12getMetaClassEv
ffffff80008bb340 T __ZNK9IOCommand9MetaClass5allocEv
ffffff80008d83f0 T __ZNK9IODTNVRAM11getPropertyEPK8OSSymbol
ffffff80008d8420 T __ZNK9IODTNVRAM11getPropertyEPKc
ffffff80008d8450 T __ZNK9IODTNVRAM12copyPropertyEPK8OSSymbol
ffffff80008d8560 T __ZNK9IODTNVRAM12copyPropertyEPKc
ffffff80008d7fe0 T __ZNK9IODTNVRAM12getMetaClassEv
ffffff80008d90d0 T __ZNK9IODTNVRAM17getOFVariablePermEPK8OSSymbol
ffffff80008d9080 T __ZNK9IODTNVRAM17getOFVariableTypeEPK8OSSymbol
ffffff80008d85b0 T __ZNK9IODTNVRAM19serializePropertiesEP11OSSerialize
ffffff80008db310 T __ZNK9IODTNVRAM9MetaClass5allocEv
ffffff800089b7f0 T __ZNK9IOService10isInactiveEv
ffffff80008901c0 T __ZNK9IOService11getProviderEv
ffffff8000890220 T __ZNK9IOService11getWorkLoopEv
ffffff800088dda0 T __ZNK9IOService12getMetaClassEv
ffffff800088f320 T __ZNK9IOService12handleIsOpenEPKS_
ffffff8000890340 T __ZNK9IOService17getClientIteratorEv
ffffff8000890250 T __ZNK9IOService19getProviderIteratorEv
ffffff800088dfa0 T __ZNK9IOService19serializePropertiesEP11OSSerialize
ffffff8000890360 T __ZNK9IOService21getOpenClientIteratorEv
ffffff8000890270 T __ZNK9IOService23getOpenProviderIteratorEv
ffffff800088f240 T __ZNK9IOService6isOpenEPKS_
ffffff800088ee80 T __ZNK9IOService8getStateEv
ffffff8000898790 T __ZNK9IOService9MetaClass5allocEv
ffffff8000890320 T __ZNK9IOService9getClientEv
ffffff800083c980 T __ZNK9OSBoolean12getMetaClassEv
ffffff800083c9f0 T __ZNK9OSBoolean12taggedRetainEPKv
ffffff800083ca00 T __ZNK9OSBoolean13taggedReleaseEPKvi
ffffff800083ca30 T __ZNK9OSBoolean6isTrueEv
ffffff800083ca40 T __ZNK9OSBoolean7isFalseEv
ffffff800083ca50 T __ZNK9OSBoolean8getValueEv
ffffff800083ce50 T __ZNK9OSBoolean9MetaClass5allocEv
ffffff800083c990 T __ZNK9OSBoolean9isEqualToEPK15OSMetaClassBase
ffffff800083ca60 T __ZNK9OSBoolean9isEqualToEPKS_
ffffff800083c930 T __ZNK9OSBoolean9serializeEP11OSSerialize
ffffff8000858280 T __ZSt20__throw_length_errorPKc
ffffff8000a22508 S __ZTV10IOMachPort
ffffff8000a13f88 S __ZTV10IONotifier
ffffff8000a24cf0 S __ZTV10IOReporter
ffffff8000a16948 S __ZTV10IOWorkLoop
ffffff8000a0f500 S __ZTV10OSIterator
ffffff8000a15698 S __ZTV11IOCatalogue
ffffff8000a247f0 S __ZTV11IODataQueue
ffffff8000a1a6e0 S __ZTV11IOMemoryMap
ffffff8000a141c8 S __ZTV11IOPMRequest
ffffff8000a13550 S __ZTV11IOResources
ffffff8000a14d58 S __ZTV11IOServicePM
ffffff8000a0e080 S __ZTV11OSMetaClass
ffffff8000a101e0 S __ZTV11OSSerialize
ffffff8000a18898 S __ZTV12IODMACommand
ffffff8000a14f80 S __ZTV12IOPMinformee
ffffff8000a28838 S __ZTV12IORootParent
ffffff8000a230e8 S __ZTV12IOUserClient
ffffff8000a0e980 S __ZTV12OSCollection
ffffff8000a0f190 S __ZTV12OSDictionary
ffffff8000a0fe80 S __ZTV12OSOrderedSet
ffffff8000a104b0 S __ZTV12OSSerializer
ffffff8000a10d10 S __ZTV12OSSymbolPool
ffffff8000a27c38 S __ZTV12PMHaltWorker
ffffff8000a17258 S __ZTV13IOCommandGate
ffffff8000a177c8 S __ZTV13IOCommandPool
ffffff8000a16c50 S __ZTV13IOEventSource
ffffff8000a147d8 S __ZTV13IOPMWorkQueue
ffffff8000a29270 S __ZTV13PMTraceWorker
ffffff8000a12e68 S __ZTV13_IOServiceJob
ffffff8000a19900 S __ZTV14IOMemoryCursor
ffffff8000a27e50 S __ZTV14IOPMrootDomain
ffffff8000a25788 S __ZTV14IOReportLegend
ffffff8000a22770 S __ZTV14IOUserIterator
ffffff8000a111d0 S __ZTV15IOConditionLock
ffffff8000a20718 S __ZTV15IODMAController
ffffff8000a158c0 S __ZTV15IOPMPowerSource
ffffff8000a1dd98 S __ZTV15IOPanicPlatform
ffffff8000a11440 S __ZTV15IORegistryEntry
ffffff8000a11af8 S __ZTV15IORegistryPlane
ffffff8000a25228 S __ZTV15IOStateReporter
ffffff8000a26d80 S __ZTV15IOWatchDogTimer
ffffff8000a0def0 S __ZTV15OSMetaClassBase
ffffff8000a0df98 S __ZTV15OSMetaClassMeta
ffffff8000a29488 S __ZTV15PMSettingHandle
ffffff8000a296a0 S __ZTV15PMSettingObject
ffffff8000a12f98 S __ZTV15_IOConfigThread
ffffff8000a17a60 S __ZTV16IODMAEventSource
ffffff8000a23b58 S __ZTV16IOKitDiagnostics
ffffff8000a14518 S __ZTV16IOPMRequestQueue
ffffff8000a151a8 S __ZTV16IOPMinformeeList
ffffff8000a1be98 S __ZTV16IOPlatformDevice
ffffff8000a1b488 S __ZTV16IOPlatformExpert
ffffff8000a1aeb8 S __ZTV16IORangeAllocator
ffffff8000a24f88 S __ZTV16IOSimpleReporter
ffffff8000a19d90 S __ZTV17IOBigMemoryCursor
ffffff8000a16450 S __ZTV17IOPolledInterface
ffffff8000a26420 S __ZTV17IOPowerConnection
ffffff8000a24a48 S __ZTV17IOSharedDataQueue
ffffff8000a1c808 S __ZTV18IODTPlatformExpert
ffffff8000a1a210 S __ZTV18IOMemoryDescriptor
ffffff8000a11870 S __ZTV18IORegistryIterator
ffffff8000a18120 S __ZTV18IOTimerEventSource
ffffff8000a229c0 S __ZTV18IOUserNotification
ffffff8000a12d18 S __ZTV18_IOServiceNotifier
ffffff8000a254e8 S __ZTV19IOHistogramReporter
ffffff8000a14a98 S __ZTV19IOPMCompletionQueue
ffffff8000a16228 S __ZTV19IOPMPowerSourceList
ffffff8000a153d0 S __ZTV19IOPMPowerStateQueue
ffffff8000a16720 S __ZTV19IOPolledFilePollers
ffffff8000a27958 S __ZTV19PMAssertionsTracker
ffffff8000a19fc8 S __ZTV20IOLittleMemoryCursor
ffffff8000a0ec30 S __ZTV20OSCollectionIterator
ffffff8000a259b0 S __ZTV20RootDomainUserClient
ffffff8000a210e0 S __ZTV21IOInterruptController
ffffff8000a19b58 S __ZTV21IONaturalMemoryCursor
ffffff8000a1b130 S __ZTV21IOSubMemoryDescriptor
ffffff8000a16f18 S __ZTV22IOInterruptEventSource
ffffff8000a23d80 S __ZTV22IOKitDiagnosticsClient
ffffff8000a1d338 S __ZTV22IOPlatformExpertDevice
ffffff8000a12bb0 S __ZTV22_IOOpenServiceIterator
ffffff8000a1ab60 S __ZTV23IOMultiMemoryDescriptor
ffffff8000a18490 S __ZTV24IOBufferMemoryDescriptor
ffffff8000a1f280 S __ZTV24IOCPUInterruptController
ffffff8000a1a488 S __ZTV25IOGeneralMemoryDescriptor
ffffff8000a22c18 S __ZTV25IOServiceUserNotification
ffffff8000a12a60 S __ZTV26_IOServiceInterestNotifier
ffffff8000a286e8 S __ZTV27IOPMServiceInterestNotifier
ffffff8000a219f8 S __ZTV27IOSharedInterruptController
ffffff8000a17d88 S __ZTV28IOFilterInterruptEventSource
ffffff8000a18b88 S __ZTV29IOInterleavedMemoryDescriptor
ffffff8000a22e80 S __ZTV32IOServiceMessageUserNotification
ffffff8000a1e860 S __ZTV5IOCPU
ffffff8000a106d8 S __ZTV5OSSet
ffffff8000a0ee98 S __ZTV6OSData
ffffff8000a0f760 S __ZTV6OSKext
ffffff8000a0e398 S __ZTV7OSArray
ffffff8000a18ef0 S __ZTV8IOMapper
ffffff8000a27708 S __ZTV8IOSyncer
ffffff8000a0fbc0 S __ZTV8OSNumber
ffffff8000a0e170 S __ZTV8OSObject
ffffff8000a10a28 S __ZTV8OSString
ffffff8000a10d48 S __ZTV8OSSymbol
ffffff8000a175a0 S __ZTV9IOCommand
ffffff8000a1fcd0 S __ZTV9IODTNVRAM
ffffff8000a11e08 S __ZTV9IOService
ffffff8000a0e6e8 S __ZTV9OSBoolean
ffffff8000a22688 S __ZTVN10IOMachPort9MetaClassE
ffffff8000a140d0 S __ZTVN10IONotifier9MetaClassE
ffffff8000a24e90 S __ZTVN10IOReporter9MetaClassE
ffffff8000a16b58 S __ZTVN10IOWorkLoop9MetaClassE
ffffff8000a0f668 S __ZTVN10OSIterator9MetaClassE
ffffff8000a157c8 S __ZTVN11IOCatalogue9MetaClassE
ffffff8000a24950 S __ZTVN11IODataQueue9MetaClassE
ffffff8000a1aa68 S __ZTVN11IOMemoryMap9MetaClassE
ffffff8000a14430 S __ZTVN11IOPMRequest9MetaClassE
ffffff8000a13db8 S __ZTVN11IOResources9MetaClassE
ffffff8000a14e88 S __ZTVN11IOServicePM9MetaClassE
ffffff8000a103c8 S __ZTVN11OSSerialize9MetaClassE
ffffff8000a18a90 S __ZTVN12IODMACommand9MetaClassE
ffffff8000a150b0 S __ZTVN12IOPMinformee9MetaClassE
ffffff8000a298b8 S __ZTVN12IORootParent9MetaClassE
ffffff8000a23a60 S __ZTVN12IOUserClient9MetaClassE
ffffff8000a0eb38 S __ZTVN12OSCollection9MetaClassE
ffffff8000a0f408 S __ZTVN12OSDictionary9MetaClassE
ffffff8000a100e8 S __ZTVN12OSOrderedSet9MetaClassE
ffffff8000a105e0 S __ZTVN12OSSerializer9MetaClassE
ffffff8000a27d68 S __ZTVN12PMHaltWorker9MetaClassE
ffffff8000a174a8 S __ZTVN13IOCommandGate9MetaClassE
ffffff8000a17968 S __ZTVN13IOCommandPool9MetaClassE
ffffff8000a16e20 S __ZTVN13IOEventSource9MetaClassE
ffffff8000a149b0 S __ZTVN13IOPMWorkQueue9MetaClassE
ffffff8000a293a0 S __ZTVN13PMTraceWorker9MetaClassE
ffffff8000a13468 S __ZTVN13_IOServiceJob9MetaClassE
ffffff8000a19a70 S __ZTVN14IOMemoryCursor9MetaClassE
ffffff8000a290a0 S __ZTVN14IOPMrootDomain9MetaClassE
ffffff8000a258b8 S __ZTVN14IOReportLegend9MetaClassE
ffffff8000a228d8 S __ZTVN14IOUserIterator9MetaClassE
ffffff8000a11348 S __ZTVN15IOConditionLock9MetaClassE
ffffff8000a20fe8 S __ZTVN15IODMAController9MetaClassE
ffffff8000a16130 S __ZTVN15IOPMPowerSource9MetaClassE
ffffff8000a1e768 S __ZTVN15IOPanicPlatform9MetaClassE
ffffff8000a11a10 S __ZTVN15IORegistryEntry9MetaClassE
ffffff8000a11c28 S __ZTVN15IORegistryPlane9MetaClassE
ffffff8000a253f0 S __ZTVN15IOStateReporter9MetaClassE
ffffff8000a27610 S __ZTVN15IOWatchDogTimer9MetaClassE
ffffff8000a295b8 S __ZTVN15PMSettingHandle9MetaClassE
ffffff8000a297d0 S __ZTVN15PMSettingObject9MetaClassE
ffffff8000a13380 S __ZTVN15_IOConfigThread9MetaClassE
ffffff8000a17c90 S __ZTVN16IODMAEventSource9MetaClassE
ffffff8000a23c98 S __ZTVN16IOKitDiagnostics9MetaClassE
ffffff8000a146f0 S __ZTVN16IOPMRequestQueue9MetaClassE
ffffff8000a152d8 S __ZTVN16IOPMinformeeList9MetaClassE
ffffff8000a1dcb0 S __ZTVN16IOPlatformDevice9MetaClassE
ffffff8000a1c720 S __ZTVN16IOPlatformExpert9MetaClassE
ffffff8000a1b038 S __ZTVN16IORangeAllocator9MetaClassE
ffffff8000a25130 S __ZTVN16IOSimpleReporter9MetaClassE
ffffff8000a19ee0 S __ZTVN17IOBigMemoryCursor9MetaClassE
ffffff8000a16638 S __ZTVN17IOPolledInterface9MetaClassE
ffffff8000a26c88 S __ZTVN17IOPowerConnection9MetaClassE
ffffff8000a24bf8 S __ZTVN17IOSharedDataQueue9MetaClassE
ffffff8000a1d250 S __ZTVN18IODTPlatformExpert9MetaClassE
ffffff8000a1a898 S __ZTVN18IOMemoryDescriptor9MetaClassE
ffffff8000a11d10 S __ZTVN18IORegistryIterator9MetaClassE
ffffff8000a18398 S __ZTVN18IOTimerEventSource9MetaClassE
ffffff8000a22b30 S __ZTVN18IOUserNotification9MetaClassE
ffffff8000a131b0 S __ZTVN18_IOServiceNotifier9MetaClassE
ffffff8000a25690 S __ZTVN19IOHistogramReporter9MetaClassE
ffffff8000a14c70 S __ZTVN19IOPMCompletionQueue9MetaClassE
ffffff8000a16358 S __ZTVN19IOPMPowerSourceList9MetaClassE
ffffff8000a155a0 S __ZTVN19IOPMPowerStateQueue9MetaClassE
ffffff8000a16850 S __ZTVN19IOPolledFilePollers9MetaClassE
ffffff8000a27b50 S __ZTVN19PMAssertionsTracker9MetaClassE
ffffff8000a1a118 S __ZTVN20IOLittleMemoryCursor9MetaClassE
ffffff8000a0eda0 S __ZTVN20OSCollectionIterator9MetaClassE
ffffff8000a26328 S __ZTVN20RootDomainUserClient9MetaClassE
ffffff8000a22328 S __ZTVN21IOInterruptController9MetaClassE
ffffff8000a19ca8 S __ZTVN21IONaturalMemoryCursor9MetaClassE
ffffff8000a1b390 S __ZTVN21IOSubMemoryDescriptor9MetaClassE
ffffff8000a17160 S __ZTVN22IOInterruptEventSource9MetaClassE
ffffff8000a246f8 S __ZTVN22IOKitDiagnosticsClient9MetaClassE
ffffff8000a1dbc8 S __ZTVN22IOPlatformExpertDevice9MetaClassE
ffffff8000a13ea0 S __ZTVN22_IOOpenServiceIterator9MetaClassE
ffffff8000a1adc0 S __ZTVN23IOMultiMemoryDescriptor9MetaClassE
ffffff8000a187a0 S __ZTVN24IOBufferMemoryDescriptor9MetaClassE
ffffff8000a1fbd8 S __ZTVN24IOCPUInterruptController9MetaClassE
ffffff8000a1a980 S __ZTVN25IOGeneralMemoryDescriptor9MetaClassE
ffffff8000a22d98 S __ZTVN25IOServiceUserNotification9MetaClassE
ffffff8000a13298 S __ZTVN26_IOServiceInterestNotifier9MetaClassE
ffffff8000a29188 S __ZTVN27IOPMServiceInterestNotifier9MetaClassE
ffffff8000a22410 S __ZTVN27IOSharedInterruptController9MetaClassE
ffffff8000a18028 S __ZTVN28IOFilterInterruptEventSource9MetaClassE
ffffff8000a18df8 S __ZTVN29IOInterleavedMemoryDescriptor9MetaClassE
ffffff8000a23000 S __ZTVN32IOServiceMessageUserNotification9MetaClassE
ffffff8000a1f198 S __ZTVN5IOCPU9MetaClassE
ffffff8000a10930 S __ZTVN5OSSet9MetaClassE
ffffff8000a0f098 S __ZTVN6OSData9MetaClassE
ffffff8000a0fac8 S __ZTVN6OSKext9MetaClassE
ffffff8000a0e5f0 S __ZTVN7OSArray9MetaClassE
ffffff8000a19808 S __ZTVN8IOMapper9MetaClassE
ffffff8000a27860 S __ZTVN8IOSyncer9MetaClassE
ffffff8000a0fd88 S __ZTVN8OSNumber9MetaClassE
ffffff8000a0e2a0 S __ZTVN8OSObject9MetaClassE
ffffff8000a10c28 S __ZTVN8OSString9MetaClassE
ffffff8000a10f90 S __ZTVN8OSSymbol9MetaClassE
ffffff8000a176d0 S __ZTVN9IOCommand9MetaClassE
ffffff8000a20620 S __ZTVN9IODTNVRAM9MetaClassE
ffffff8000a130c8 S __ZTVN9IOService9MetaClassE
ffffff8000a0e888 S __ZTVN9OSBoolean9MetaClassE
ffffff8000858260 T __ZdaPv
ffffff80008581e0 T __ZdlPv
ffffff8000858200 T __Znam
ffffff8000858180 T __Znwm
ffffff800079a6c0 T ___EXEC_WAITING_ON_TASKGATED_CODE_SIGNATURE_UPCALL__
ffffff8000822980 T ___KERNEL_WAITING_ON_TASKGATED_CHECK_ACCESS_UPCALL__
ffffff80007a24f0 T ___MALLOC
ffffff80007a2690 T ___MALLOC_ZONE
ffffff80007a2600 T ___REALLOC
ffffff800010e140 S ___bzero
ffffff8000857660 T ___cxa_pure_virtual
ffffff80007b13d0 T ___disable_threadsignal
ffffff80002f2950 T ___doprnt
ffffff8000abd8a8 S ___llvm_profile_runtime
ffffff800079a760 T ___mac_execve
ffffff8000916dc0 T ___mac_get_fd
ffffff8000917130 T ___mac_get_file
ffffff80009174c0 T ___mac_get_link
ffffff8000917fc0 T ___mac_get_mount
ffffff8000916810 T ___mac_get_pid
ffffff8000916a40 T ___mac_get_proc
ffffff80004f5610 T ___mac_getfsstat
ffffff80004f1ec0 T ___mac_mount
ffffff80009174e0 T ___mac_set_fd
ffffff8000917770 T ___mac_set_file
ffffff8000917ad0 T ___mac_set_link
ffffff8000916c30 T ___mac_set_proc
ffffff8000917af0 T ___mac_syscall
ffffff80007b14e0 T ___old_semwait_signal
ffffff80007b1530 T ___old_semwait_signal_nocancel
ffffff8000ab63d8 S ___packed
ffffff80007b14b0 T ___posix_sem_syscall_return
ffffff80007b1450 T ___pthread_canceled
ffffff80004f62c0 T ___pthread_chdir
ffffff80004f5f70 T ___pthread_fchdir
ffffff80007b1830 T ___pthread_kill
ffffff80007b13f0 T ___pthread_markcancel
ffffff80007b24c0 T ___pthread_sigmask
ffffff80007b1320 T ___pthread_testcancel
ffffff80007b16b0 T ___semwait_signal
ffffff80007b1700 T ___semwait_signal_nocancel
ffffff8000a83308 S ___set___sysctl_set_sym_sysctl__audit
ffffff8000a83310 S ___set___sysctl_set_sym_sysctl__audit_session
ffffff8000a83330 S ___set___sysctl_set_sym_sysctl__audit_session_member_clear_sflags_mask
ffffff8000a83328 S ___set___sysctl_set_sym_sysctl__audit_session_member_set_sflags_mask
ffffff8000a83320 S ___set___sysctl_set_sym_sysctl__audit_session_superuser_clear_sflags_mask
ffffff8000a83318 S ___set___sysctl_set_sym_sysctl__audit_session_superuser_set_sflags_mask
ffffff8000a83938 S ___set___sysctl_set_sym_sysctl__debug
ffffff8000a82258 S ___set___sysctl_set_sym_sysctl__debug_bpf_bufsize
ffffff8000a82278 S ___set___sysctl_set_sym_sysctl__debug_bpf_debug
ffffff8000a82260 S ___set___sysctl_set_sym_sysctl__debug_bpf_maxbufsize
ffffff8000a82268 S ___set___sysctl_set_sym_sysctl__debug_bpf_maxdevices
ffffff8000a82270 S ___set___sysctl_set_sym_sysctl__debug_bpf_wantpktap
ffffff8000a845a8 S ___set___sysctl_set_sym_sysctl__debug_darkwake
ffffff8000a84568 S ___set___sysctl_set_sym_sysctl__debug_iokit
ffffff8000a84580 S ___set___sysctl_set_sym_sysctl__debug_iokit_statistics
ffffff8000a84588 S ___set___sysctl_set_sym_sysctl__debug_iokit_statistics_general
ffffff8000a84590 S ___set___sysctl_set_sym_sysctl__debug_iokit_statistics_userclient
ffffff8000a84598 S ___set___sysctl_set_sym_sysctl__debug_iokit_statistics_workloop
ffffff8000a84570 S ___set___sysctl_set_sym_sysctl__debug_iotrace
ffffff8000a84500 S ___set___sysctl_set_sym_sysctl__debug_kextlog
ffffff8000a82208 S ___set___sysctl_set_sym_sysctl__debug_lowpri_throttle_enabled
ffffff8000a821a0 S ___set___sysctl_set_sym_sysctl__debug_lowpri_throttle_max_iosize
ffffff8000a82238 S ___set___sysctl_set_sym_sysctl__debug_lowpri_throttle_tier1_io_period_msecs
ffffff8000a82220 S ___set___sysctl_set_sym_sysctl__debug_lowpri_throttle_tier1_io_period_ssd_msecs
ffffff8000a82250 S ___set___sysctl_set_sym_sysctl__debug_lowpri_throttle_tier1_window_msecs
ffffff8000a82230 S ___set___sysctl_set_sym_sysctl__debug_lowpri_throttle_tier2_io_period_msecs
ffffff8000a82218 S ___set___sysctl_set_sym_sysctl__debug_lowpri_throttle_tier2_io_period_ssd_msecs
ffffff8000a82248 S ___set___sysctl_set_sym_sysctl__debug_lowpri_throttle_tier2_window_msecs
ffffff8000a82228 S ___set___sysctl_set_sym_sysctl__debug_lowpri_throttle_tier3_io_period_msecs
ffffff8000a82210 S ___set___sysctl_set_sym_sysctl__debug_lowpri_throttle_tier3_io_period_ssd_msecs
ffffff8000a82240 S ___set___sysctl_set_sym_sysctl__debug_lowpri_throttle_tier3_window_msecs
ffffff8000a845a0 S ___set___sysctl_set_sym_sysctl__debug_noidle
ffffff8000a838a0 S ___set___sysctl_set_sym_sysctl__debug_sched
ffffff8000a84558 S ___set___sysctl_set_sym_sysctl__debug_swd_delay_duration
ffffff8000a84550 S ___set___sysctl_set_sym_sysctl__debug_swd_delay_type
ffffff8000a84548 S ___set___sysctl_set_sym_sysctl__debug_swd_kext_name
ffffff8000a83e38 S ___set___sysctl_set_sym_sysctl__debug_sys_override_enabled
ffffff8000a83628 S ___set___sysctl_set_sym_sysctl__debug_toggle_address_reuse
ffffff8000a83940 S ___set___sysctl_set_sym_sysctl__hw
ffffff8000a83b80 S ___set___sysctl_set_sym_sysctl__hw_activecpu
ffffff8000a83b10 S ___set___sysctl_set_sym_sysctl__hw_busfrequency
ffffff8000a83a88 S ___set___sysctl_set_sym_sysctl__hw_busfrequency_compat
ffffff8000a83b00 S ___set___sysctl_set_sym_sysctl__hw_busfrequency_max
ffffff8000a83b08 S ___set___sysctl_set_sym_sysctl__hw_busfrequency_min
ffffff8000a83b58 S ___set___sysctl_set_sym_sysctl__hw_byteorder
ffffff8000a83b30 S ___set___sysctl_set_sym_sysctl__hw_cacheconfig
ffffff8000a83ae0 S ___set___sysctl_set_sym_sysctl__hw_cachelinesize
ffffff8000a83a78 S ___set___sysctl_set_sym_sysctl__hw_cachelinesize_compat
ffffff8000a83b28 S ___set___sysctl_set_sym_sysctl__hw_cachesize
ffffff8000a83b40 S ___set___sysctl_set_sym_sysctl__hw_cpu64bit_capable
ffffff8000a83b38 S ___set___sysctl_set_sym_sysctl__hw_cpufamily
ffffff8000a83af8 S ___set___sysctl_set_sym_sysctl__hw_cpufrequency
ffffff8000a83a80 S ___set___sysctl_set_sym_sysctl__hw_cpufrequency_compat
ffffff8000a83ae8 S ___set___sysctl_set_sym_sysctl__hw_cpufrequency_max
ffffff8000a83af0 S ___set___sysctl_set_sym_sysctl__hw_cpufrequency_min
ffffff8000a83b48 S ___set___sysctl_set_sym_sysctl__hw_cpusubtype
ffffff8000a83a08 S ___set___sysctl_set_sym_sysctl__hw_cputhreadtype
ffffff8000a83b50 S ___set___sysctl_set_sym_sysctl__hw_cputype
ffffff8000a83a28 S ___set___sysctl_set_sym_sysctl__hw_epoch
ffffff8000a83ad0 S ___set___sysctl_set_sym_sysctl__hw_l1dcachesize
ffffff8000a83a68 S ___set___sysctl_set_sym_sysctl__hw_l1dcachesize_compat
ffffff8000a83ad8 S ___set___sysctl_set_sym_sysctl__hw_l1icachesize
ffffff8000a83a70 S ___set___sysctl_set_sym_sysctl__hw_l1icachesize_compat
ffffff8000a83ac8 S ___set___sysctl_set_sym_sysctl__hw_l2cachesize
ffffff8000a83a60 S ___set___sysctl_set_sym_sysctl__hw_l2cachesize_compat
ffffff8000a83a18 S ___set___sysctl_set_sym_sysctl__hw_l2settings
ffffff8000a83ac0 S ___set___sysctl_set_sym_sysctl__hw_l3cachesize
ffffff8000a83a58 S ___set___sysctl_set_sym_sysctl__hw_l3cachesize_compat
ffffff8000a83a10 S ___set___sysctl_set_sym_sysctl__hw_l3settings
ffffff8000a83b68 S ___set___sysctl_set_sym_sysctl__hw_logicalcpu
ffffff8000a83b60 S ___set___sysctl_set_sym_sysctl__hw_logicalcpu_max
ffffff8000a83a48 S ___set___sysctl_set_sym_sysctl__hw_machine
ffffff8000a83ab0 S ___set___sysctl_set_sym_sysctl__hw_memsize
ffffff8000a83a40 S ___set___sysctl_set_sym_sysctl__hw_model
ffffff8000a83b88 S ___set___sysctl_set_sym_sysctl__hw_ncpu
ffffff8000a83aa0 S ___set___sysctl_set_sym_sysctl__hw_optional
ffffff8000a83968 S ___set___sysctl_set_sym_sysctl__hw_optional_adx
ffffff8000a839c0 S ___set___sysctl_set_sym_sysctl__hw_optional_aes
ffffff8000a839b8 S ___set___sysctl_set_sym_sysctl__hw_optional_avx1_0
ffffff8000a83990 S ___set___sysctl_set_sym_sysctl__hw_optional_avx2_0
ffffff8000a83988 S ___set___sysctl_set_sym_sysctl__hw_optional_bmi1
ffffff8000a83980 S ___set___sysctl_set_sym_sysctl__hw_optional_bmi2
ffffff8000a839a0 S ___set___sysctl_set_sym_sysctl__hw_optional_enfstrg
ffffff8000a839a8 S ___set___sysctl_set_sym_sysctl__hw_optional_f16c
ffffff8000a83a98 S ___set___sysctl_set_sym_sysctl__hw_optional_floatingpoint
ffffff8000a83998 S ___set___sysctl_set_sym_sysctl__hw_optional_fma
ffffff8000a83970 S ___set___sysctl_set_sym_sysctl__hw_optional_hle
ffffff8000a83a00 S ___set___sysctl_set_sym_sysctl__hw_optional_mmx
ffffff8000a83960 S ___set___sysctl_set_sym_sysctl__hw_optional_mpx
ffffff8000a839b0 S ___set___sysctl_set_sym_sysctl__hw_optional_rdrand
ffffff8000a83978 S ___set___sysctl_set_sym_sysctl__hw_optional_rtm
ffffff8000a83958 S ___set___sysctl_set_sym_sysctl__hw_optional_sgx
ffffff8000a839f8 S ___set___sysctl_set_sym_sysctl__hw_optional_sse
ffffff8000a839f0 S ___set___sysctl_set_sym_sysctl__hw_optional_sse2
ffffff8000a839e8 S ___set___sysctl_set_sym_sysctl__hw_optional_sse3
ffffff8000a839d8 S ___set___sysctl_set_sym_sysctl__hw_optional_sse4_1
ffffff8000a839d0 S ___set___sysctl_set_sym_sysctl__hw_optional_sse4_2
ffffff8000a839e0 S ___set___sysctl_set_sym_sysctl__hw_optional_supplementalsse3
ffffff8000a839c8 S ___set___sysctl_set_sym_sysctl__hw_optional_x86_64
ffffff8000a83aa8 S ___set___sysctl_set_sym_sysctl__hw_packages
ffffff8000a83b20 S ___set___sysctl_set_sym_sysctl__hw_pagesize
ffffff8000a83b18 S ___set___sysctl_set_sym_sysctl__hw_pagesize32
ffffff8000a83a90 S ___set___sysctl_set_sym_sysctl__hw_pagesize_compat
ffffff8000a83b78 S ___set___sysctl_set_sym_sysctl__hw_physicalcpu
ffffff8000a83b70 S ___set___sysctl_set_sym_sysctl__hw_physicalcpu_max
ffffff8000a83a38 S ___set___sysctl_set_sym_sysctl__hw_physmem
ffffff8000a845b0 S ___set___sysctl_set_sym_sysctl__hw_targettype
ffffff8000a83ab8 S ___set___sysctl_set_sym_sysctl__hw_tbfrequency
ffffff8000a83a50 S ___set___sysctl_set_sym_sysctl__hw_tbfrequency_compat
ffffff8000a83a30 S ___set___sysctl_set_sym_sysctl__hw_usermem
ffffff8000a83a20 S ___set___sysctl_set_sym_sysctl__hw_vectorunit
ffffff8000a83918 S ___set___sysctl_set_sym_sysctl__kern
ffffff8000a835e8 S ___set___sysctl_set_sym_sysctl__kern_affinity_sets_enabled
ffffff8000a835e0 S ___set___sysctl_set_sym_sysctl__kern_affinity_sets_mapping
ffffff8000a83798 S ___set___sysctl_set_sym_sysctl__kern_aiomax
ffffff8000a83790 S ___set___sysctl_set_sym_sysctl__kern_aioprocmax
ffffff8000a83788 S ___set___sysctl_set_sym_sysctl__kern_aiothreads
ffffff8000a83800 S ___set___sysctl_set_sym_sysctl__kern_argmax
ffffff8000a83810 S ___set___sysctl_set_sym_sysctl__kern_bootargs
ffffff8000a836e8 S ___set___sysctl_set_sym_sysctl__kern_bootsessionuuid
ffffff8000a84510 S ___set___sysctl_set_sym_sysctl__kern_bootsignature
ffffff8000a836e0 S ___set___sysctl_set_sym_sysctl__kern_boottime
ffffff8000a83640 S ___set___sysctl_set_sym_sysctl__kern_check_openevt
ffffff8000a83338 S ___set___sysctl_set_sym_sysctl__kern_clockrate
ffffff8000a83ba8 S ___set___sysctl_set_sym_sysctl__kern_coalition_page_count
ffffff8000a83ba0 S ___set___sysctl_set_sym_sysctl__kern_coalition_pid_list
ffffff8000a83bb0 S ___set___sysctl_set_sym_sysctl__kern_coalition_roles
ffffff8000a83bb8 S ___set___sysctl_set_sym_sysctl__kern_coalitions
ffffff8000a845c8 S ___set___sysctl_set_sym_sysctl__kern_consoleoptions
ffffff8000a83668 S ___set___sysctl_set_sym_sysctl__kern_coredump
ffffff8000a83670 S ___set___sysctl_set_sym_sysctl__kern_corefile
ffffff8000a83658 S ___set___sysctl_set_sym_sysctl__kern_delayterm
ffffff8000a83340 S ___set___sysctl_set_sym_sysctl__kern_ds_supgroups_supported
ffffff8000a82000 S ___set___sysctl_set_sym_sysctl__kern_dtrace
ffffff8000a82018 S ___set___sysctl_set_sym_sysctl__kern_dtrace_buffer_memory_inuse
ffffff8000a82010 S ___set___sysctl_set_sym_sysctl__kern_dtrace_buffer_memory_maxsize
ffffff8000a82020 S ___set___sysctl_set_sym_sysctl__kern_dtrace_difo_maxsize
ffffff8000a82028 S ___set___sysctl_set_sym_sysctl__kern_dtrace_dof_maxsize
ffffff8000a82008 S ___set___sysctl_set_sym_sysctl__kern_dtrace_err_verbose
ffffff8000a82030 S ___set___sysctl_set_sym_sysctl__kern_dtrace_global_maxsize
ffffff8000a82038 S ___set___sysctl_set_sym_sysctl__kern_dtrace_provide_private_probes
ffffff8000a832d8 S ___set___sysctl_set_sym_sysctl__kern_flush_cache_on_write
ffffff8000a84508 S ___set___sysctl_set_sym_sysctl__kern_hibernatefile
ffffff8000a84528 S ___set___sysctl_set_sym_sysctl__kern_hibernategraphicsready
ffffff8000a84540 S ___set___sysctl_set_sym_sysctl__kern_hibernatehidready
ffffff8000a84538 S ___set___sysctl_set_sym_sysctl__kern_hibernatelockscreenready
ffffff8000a84518 S ___set___sysctl_set_sym_sysctl__kern_hibernatemode
ffffff8000a84520 S ___set___sysctl_set_sym_sysctl__kern_hibernatestatistics
ffffff8000a84530 S ___set___sysctl_set_sym_sysctl__kern_hibernatewakenotification
ffffff8000a83770 S ___set___sysctl_set_sym_sysctl__kern_hostid
ffffff8000a83768 S ___set___sysctl_set_sym_sysctl__kern_hostname
ffffff8000a83410 S ___set___sysctl_set_sym_sysctl__kern_hv_support
ffffff8000a83750 S ___set___sysctl_set_sym_sysctl__kern_ignore_is_ssd
ffffff8000a836c8 S ___set___sysctl_set_sym_sysctl__kern_imgsrcdev
ffffff8000a836c0 S ___set___sysctl_set_sym_sysctl__kern_imgsrcinfo
ffffff8000a84188 S ___set___sysctl_set_sym_sysctl__kern_interrupt_timer_coalescing_enabled
ffffff8000a84578 S ___set___sysctl_set_sym_sysctl__kern_iokittest
ffffff8000a83ce8 S ___set___sysctl_set_sym_sysctl__kern_ipc
ffffff8000a83cc8 S ___set___sysctl_set_sym_sysctl__kern_ipc_extbkidlercvhiwat
ffffff8000a83cd0 S ___set___sysctl_set_sym_sysctl__kern_ipc_extbkidlestat
ffffff8000a83cc0 S ___set___sysctl_set_sym_sysctl__kern_ipc_extbkidletime
ffffff8000a83d08 S ___set___sysctl_set_sym_sysctl__kern_ipc_io_policy
ffffff8000a83cf8 S ___set___sysctl_set_sym_sysctl__kern_ipc_io_policy_log
ffffff8000a83d00 S ___set___sysctl_set_sym_sysctl__kern_ipc_io_policy_throttled
ffffff8000a83cf0 S ___set___sysctl_set_sym_sysctl__kern_ipc_io_policy_uuid
ffffff8000a83cb8 S ___set___sysctl_set_sym_sysctl__kern_ipc_maxextbkidleperproc
ffffff8000a83d50 S ___set___sysctl_set_sym_sysctl__kern_ipc_maxrecvmsgx
ffffff8000a83d48 S ___set___sysctl_set_sym_sysctl__kern_ipc_maxsendmsgx
ffffff8000a83d40 S ___set___sysctl_set_sym_sysctl__kern_ipc_maxsockbuf
ffffff8000a83c00 S ___set___sysctl_set_sym_sysctl__kern_ipc_mb_drain_force
ffffff8000a83bf8 S ___set___sysctl_set_sym_sysctl__kern_ipc_mb_drain_maxint
ffffff8000a83c10 S ___set___sysctl_set_sym_sysctl__kern_ipc_mb_normalized
ffffff8000a83c30 S ___set___sysctl_set_sym_sysctl__kern_ipc_mb_stat
ffffff8000a83c08 S ___set___sysctl_set_sym_sysctl__kern_ipc_mb_watchdog
ffffff8000a83c38 S ___set___sysctl_set_sym_sysctl__kern_ipc_mbstat
ffffff8000a83c18 S ___set___sysctl_set_sym_sysctl__kern_ipc_mleak_sample_factor
ffffff8000a83c20 S ___set___sysctl_set_sym_sysctl__kern_ipc_mleak_table
ffffff8000a83c28 S ___set___sysctl_set_sym_sysctl__kern_ipc_mleak_top_trace
ffffff8000a83d28 S ___set___sysctl_set_sym_sysctl__kern_ipc_njcl
ffffff8000a83d20 S ___set___sysctl_set_sym_sysctl__kern_ipc_njclbytes
ffffff8000a83d30 S ___set___sysctl_set_sym_sysctl__kern_ipc_nmbclusters
ffffff8000a834d0 S ___set___sysctl_set_sym_sysctl__kern_ipc_portbt
ffffff8000a83d38 S ___set___sysctl_set_sym_sysctl__kern_ipc_sockbuf_waste_factor
ffffff8000a83c58 S ___set___sysctl_set_sym_sysctl__kern_ipc_socket_debug
ffffff8000a83c90 S ___set___sysctl_set_sym_sysctl__kern_ipc_sodefunctlog
ffffff8000a83c60 S ___set___sysctl_set_sym_sysctl__kern_ipc_somaxconn
ffffff8000a83d10 S ___set___sysctl_set_sym_sysctl__kern_ipc_soqlencomp
ffffff8000a83d18 S ___set___sysctl_set_sym_sysctl__kern_ipc_soqlimitcompat
ffffff8000a83c70 S ___set___sysctl_set_sym_sysctl__kern_ipc_sorecvmincopy
ffffff8000a83cb0 S ___set___sysctl_set_sym_sysctl__kern_ipc_soreserveheadroom
ffffff8000a83ca0 S ___set___sysctl_set_sym_sysctl__kern_ipc_sorestrictrecv
ffffff8000a83ca8 S ___set___sysctl_set_sym_sysctl__kern_ipc_sorestrictsend
ffffff8000a83c88 S ___set___sysctl_set_sym_sysctl__kern_ipc_sosendbigcl_ignore_capab
ffffff8000a83c78 S ___set___sysctl_set_sym_sysctl__kern_ipc_sosendjcl
ffffff8000a83c80 S ___set___sysctl_set_sym_sysctl__kern_ipc_sosendjcl_ignore_capab
ffffff8000a83c68 S ___set___sysctl_set_sym_sysctl__kern_ipc_sosendminchain
ffffff8000a83cd8 S ___set___sysctl_set_sym_sysctl__kern_ipc_sotcdb
ffffff8000a83c98 S ___set___sysctl_set_sym_sysctl__kern_ipc_sothrottlelog
ffffff8000a83ce0 S ___set___sysctl_set_sym_sysctl__kern_ipc_throttle_best_effort
ffffff8000a834e8 S ___set___sysctl_set_sym_sysctl__kern_ipc_voucher_trace_contents
ffffff8000a82200 S ___set___sysctl_set_sym_sysctl__kern_jnl_trim_flush
ffffff8000a837e8 S ___set___sysctl_set_sym_sysctl__kern_job_control
ffffff8000a83858 S ___set___sysctl_set_sym_sysctl__kern_kdebug
ffffff8000a83808 S ___set___sysctl_set_sym_sysctl__kern_maxfiles
ffffff8000a83408 S ___set___sysctl_set_sym_sysctl__kern_maxfilesperproc
ffffff8000a82198 S ___set___sysctl_set_sym_sysctl__kern_maxnbuf
ffffff8000a837a0 S ___set___sysctl_set_sym_sysctl__kern_maxproc
ffffff8000a83400 S ___set___sysctl_set_sym_sysctl__kern_maxprocperuid
ffffff8000a837a8 S ___set___sysctl_set_sym_sysctl__kern_maxvnodes
ffffff8000a83900 S ___set___sysctl_set_sym_sysctl__kern_memorypressure_manual_trigger
ffffff8000a838e8 S ___set___sysctl_set_sym_sysctl__kern_memorystatus_purge_on_critical
ffffff8000a838f0 S ___set___sysctl_set_sym_sysctl__kern_memorystatus_purge_on_urgent
ffffff8000a838f8 S ___set___sysctl_set_sym_sysctl__kern_memorystatus_purge_on_warning
ffffff8000a83908 S ___set___sysctl_set_sym_sysctl__kern_memorystatus_vm_pressure_level
ffffff8000a835f0 S ___set___sysctl_set_sym_sysctl__kern_minimalboot
ffffff8000a83b90 S ___set___sysctl_set_sym_sysctl__kern_msgbuf
ffffff8000a837b0 S ___set___sysctl_set_sym_sysctl__kern_namecache_disabled
ffffff8000a82190 S ___set___sysctl_set_sym_sysctl__kern_nbuf
ffffff8000a836d0 S ___set___sysctl_set_sym_sysctl__kern_netboot
ffffff8000a837f0 S ___set___sysctl_set_sym_sysctl__kern_ngroups
ffffff8000a83778 S ___set___sysctl_set_sym_sysctl__kern_nisdomainname
ffffff8000a837d8 S ___set___sysctl_set_sym_sysctl__kern_num_files
ffffff8000a837c8 S ___set___sysctl_set_sym_sysctl__kern_num_tasks
ffffff8000a837b8 S ___set___sysctl_set_sym_sysctl__kern_num_taskthreads
ffffff8000a837c0 S ___set___sysctl_set_sym_sysctl__kern_num_threads
ffffff8000a837d0 S ___set___sysctl_set_sym_sysctl__kern_num_vnodes
ffffff8000a83638 S ___set___sysctl_set_sym_sysctl__kern_nx
ffffff8000a83838 S ___set___sysctl_set_sym_sysctl__kern_osrelease
ffffff8000a83830 S ___set___sysctl_set_sym_sysctl__kern_osrevision
ffffff8000a83840 S ___set___sysctl_set_sym_sysctl__kern_ostype
ffffff8000a83818 S ___set___sysctl_set_sym_sysctl__kern_osversion
ffffff8000a84560 S ___set___sysctl_set_sym_sysctl__kern_pmtimeout
ffffff8000a83e20 S ___set___sysctl_set_sym_sysctl__kern_posix
ffffff8000a837f8 S ___set___sysctl_set_sym_sysctl__kern_posix1version
ffffff8000a83e28 S ___set___sysctl_set_sym_sysctl__kern_posix_sem
ffffff8000a83e30 S ___set___sysctl_set_sym_sysctl__kern_posix_sem_max
ffffff8000a83740 S ___set___sysctl_set_sym_sysctl__kern_preheat_max_bytes
ffffff8000a83738 S ___set___sysctl_set_sym_sysctl__kern_preheat_min_bytes
ffffff8000a83898 S ___set___sysctl_set_sym_sysctl__kern_proc
ffffff8000a83890 S ___set___sysctl_set_sym_sysctl__kern_proc_all
ffffff8000a83860 S ___set___sysctl_set_sym_sysctl__kern_proc_lcid
ffffff8000a83878 S ___set___sysctl_set_sym_sysctl__kern_proc_pgrp
ffffff8000a83888 S ___set___sysctl_set_sym_sysctl__kern_proc_pid
ffffff8000a83868 S ___set___sysctl_set_sym_sysctl__kern_proc_ruid
ffffff8000a83880 S ___set___sysctl_set_sym_sysctl__kern_proc_tty
ffffff8000a83870 S ___set___sysctl_set_sym_sysctl__kern_proc_uid
ffffff8000a83850 S ___set___sysctl_set_sym_sysctl__kern_procargs
ffffff8000a83848 S ___set___sysctl_set_sym_sysctl__kern_procargs2
ffffff8000a83760 S ___set___sysctl_set_sym_sysctl__kern_procname
ffffff8000a845d0 S ___set___sysctl_set_sym_sysctl__kern_progressmeter
ffffff8000a845d8 S ___set___sysctl_set_sym_sysctl__kern_progressmeterenable
ffffff8000a845c0 S ___set___sysctl_set_sym_sysctl__kern_progressoptions
ffffff8000a83650 S ___set___sysctl_set_sym_sysctl__kern_rage_vnode
ffffff8000a83748 S ___set___sysctl_set_sym_sysctl__kern_root_is_CF_drive
ffffff8000a83600 S ___set___sysctl_set_sym_sysctl__kern_safeboot
ffffff8000a837e0 S ___set___sysctl_set_sym_sysctl__kern_saved_ids
ffffff8000a834c8 S ___set___sysctl_set_sym_sysctl__kern_sched
ffffff8000a838b0 S ___set___sysctl_set_sym_sysctl__kern_sched_stats
ffffff8000a838a8 S ___set___sysctl_set_sym_sysctl__kern_sched_stats_enable
ffffff8000a83eb0 S ___set___sysctl_set_sym_sysctl__kern_secure_kernel
ffffff8000a83780 S ___set___sysctl_set_sym_sysctl__kern_securelevel
ffffff8000a83648 S ___set___sysctl_set_sym_sysctl__kern_setthread_cpupercent
ffffff8000a83618 S ___set___sysctl_set_sym_sysctl__kern_shreg_private
ffffff8000a835f8 S ___set___sysctl_set_sym_sysctl__kern_singleuser
ffffff8000a845f0 S ___set___sysctl_set_sym_sysctl__kern_sleeptime
ffffff8000a835d8 S ___set___sysctl_set_sym_sysctl__kern_slide
ffffff8000a83730 S ___set___sysctl_set_sym_sysctl__kern_speculative_prefetch_max
ffffff8000a83728 S ___set___sysctl_set_sym_sysctl__kern_speculative_prefetch_max_iosize
ffffff8000a83758 S ___set___sysctl_set_sym_sysctl__kern_speculative_reads_disabled
ffffff8000a834d8 S ___set___sysctl_set_sym_sysctl__kern_stack_depth_max
ffffff8000a834e0 S ___set___sysctl_set_sym_sysctl__kern_stack_size
ffffff8000a83660 S ___set___sysctl_set_sym_sysctl__kern_sugid_coredump
ffffff8000a833d0 S ___set___sysctl_set_sym_sysctl__kern_sugid_scripts
ffffff8000a836d8 S ___set___sysctl_set_sym_sysctl__kern_symfile
ffffff8000a83da8 S ___set___sysctl_set_sym_sysctl__kern_sysv
ffffff8000a83db8 S ___set___sysctl_set_sym_sysctl__kern_sysv_ipcs
ffffff8000a83e18 S ___set___sysctl_set_sym_sysctl__kern_sysv_ipcs_msg
ffffff8000a83de8 S ___set___sysctl_set_sym_sysctl__kern_sysv_ipcs_sem
ffffff8000a83db0 S ___set___sysctl_set_sym_sysctl__kern_sysv_ipcs_shm
ffffff8000a83e10 S ___set___sysctl_set_sym_sysctl__kern_sysv_semmni
ffffff8000a83e08 S ___set___sysctl_set_sym_sysctl__kern_sysv_semmns
ffffff8000a83e00 S ___set___sysctl_set_sym_sysctl__kern_sysv_semmnu
ffffff8000a83df8 S ___set___sysctl_set_sym_sysctl__kern_sysv_semmsl
ffffff8000a83df0 S ___set___sysctl_set_sym_sysctl__kern_sysv_semume
ffffff8000a83dc0 S ___set___sysctl_set_sym_sysctl__kern_sysv_shmall
ffffff8000a83de0 S ___set___sysctl_set_sym_sysctl__kern_sysv_shmmax
ffffff8000a83dd8 S ___set___sysctl_set_sym_sysctl__kern_sysv_shmmin
ffffff8000a83dd0 S ___set___sysctl_set_sym_sysctl__kern_sysv_shmmni
ffffff8000a83dc8 S ___set___sysctl_set_sym_sysctl__kern_sysv_shmseg
ffffff8000a83eb8 S ___set___sysctl_set_sym_sysctl__kern_tfp
ffffff8000a84040 S ___set___sysctl_set_sym_sysctl__kern_tfp_policy
ffffff8000a838b8 S ___set___sysctl_set_sym_sysctl__kern_threadname
ffffff8000a836b8 S ___set___sysctl_set_sym_sysctl__kern_timer
ffffff8000a834b0 S ___set___sysctl_set_sym_sysctl__kern_timer_coalesce_bg_ns_max
ffffff8000a834c0 S ___set___sysctl_set_sym_sysctl__kern_timer_coalesce_bg_scale
ffffff8000a83490 S ___set___sysctl_set_sym_sysctl__kern_timer_coalesce_fp_ns_max
ffffff8000a83498 S ___set___sysctl_set_sym_sysctl__kern_timer_coalesce_fp_scale
ffffff8000a84180 S ___set___sysctl_set_sym_sysctl__kern_timer_coalesce_idle_entry_hard_deadline_max
ffffff8000a834a0 S ___set___sysctl_set_sym_sysctl__kern_timer_coalesce_kt_ns_max
ffffff8000a834a8 S ___set___sysctl_set_sym_sysctl__kern_timer_coalesce_kt_scale
ffffff8000a83470 S ___set___sysctl_set_sym_sysctl__kern_timer_coalesce_tier0_ns_max
ffffff8000a83478 S ___set___sysctl_set_sym_sysctl__kern_timer_coalesce_tier0_scale
ffffff8000a83460 S ___set___sysctl_set_sym_sysctl__kern_timer_coalesce_tier1_ns_max
ffffff8000a83468 S ___set___sysctl_set_sym_sysctl__kern_timer_coalesce_tier1_scale
ffffff8000a83450 S ___set___sysctl_set_sym_sysctl__kern_timer_coalesce_tier2_ns_max
ffffff8000a83458 S ___set___sysctl_set_sym_sysctl__kern_timer_coalesce_tier2_scale
ffffff8000a83440 S ___set___sysctl_set_sym_sysctl__kern_timer_coalesce_tier3_ns_max
ffffff8000a83448 S ___set___sysctl_set_sym_sysctl__kern_timer_coalesce_tier3_scale
ffffff8000a83430 S ___set___sysctl_set_sym_sysctl__kern_timer_coalesce_tier4_ns_max
ffffff8000a83438 S ___set___sysctl_set_sym_sysctl__kern_timer_coalesce_tier4_scale
ffffff8000a83420 S ___set___sysctl_set_sym_sysctl__kern_timer_coalesce_tier5_ns_max
ffffff8000a83428 S ___set___sysctl_set_sym_sysctl__kern_timer_coalesce_tier5_scale
ffffff8000a83480 S ___set___sysctl_set_sym_sysctl__kern_timer_coalesce_ts_ns_max
ffffff8000a83488 S ___set___sysctl_set_sym_sysctl__kern_timer_coalesce_ts_scale
ffffff8000a836b0 S ___set___sysctl_set_sym_sysctl__kern_timer_coalescing_enabled
ffffff8000a836a8 S ___set___sysctl_set_sym_sysctl__kern_timer_deadline_tracking_bin_1
ffffff8000a836a0 S ___set___sysctl_set_sym_sysctl__kern_timer_deadline_tracking_bin_2
ffffff8000a83698 S ___set___sysctl_set_sym_sysctl__kern_timer_longterm
ffffff8000a83688 S ___set___sysctl_set_sym_sysctl__kern_timer_longterm_qlen
ffffff8000a83690 S ___set___sysctl_set_sym_sysctl__kern_timer_longterm_threshold
ffffff8000a834b8 S ___set___sysctl_set_sym_sysctl__kern_timer_resort_threshold_ns
ffffff8000a83bc0 S ___set___sysctl_set_sym_sysctl__kern_tty
ffffff8000a83bc8 S ___set___sysctl_set_sym_sysctl__kern_tty_ptmx_max
ffffff8000a83680 S ___set___sysctl_set_sym_sysctl__kern_usrstack
ffffff8000a83678 S ___set___sysctl_set_sym_sysctl__kern_usrstack64
ffffff8000a83820 S ___set___sysctl_set_sym_sysctl__kern_uuid
ffffff8000a83828 S ___set___sysctl_set_sym_sysctl__kern_version
ffffff8000a836f0 S ___set___sysctl_set_sym_sysctl__kern_vm_max_batch
ffffff8000a836f8 S ___set___sysctl_set_sym_sysctl__kern_vm_max_delayed_work_limit
ffffff8000a83718 S ___set___sysctl_set_sym_sysctl__kern_vm_page_free_min
ffffff8000a83710 S ___set___sysctl_set_sym_sysctl__kern_vm_page_free_reserved
ffffff8000a83720 S ___set___sysctl_set_sym_sysctl__kern_vm_page_free_target
ffffff8000a83708 S ___set___sysctl_set_sym_sysctl__kern_vm_page_speculative_percentage
ffffff8000a83700 S ___set___sysctl_set_sym_sysctl__kern_vm_page_speculative_q_age_ms
ffffff8000a845b8 S ___set___sysctl_set_sym_sysctl__kern_wakereason
ffffff8000a845e8 S ___set___sysctl_set_sym_sysctl__kern_waketime
ffffff8000a845e0 S ___set___sysctl_set_sym_sysctl__kern_willshutdown
ffffff8000a833d8 S ___set___sysctl_set_sym_sysctl__kern_zleak
ffffff8000a833f8 S ___set___sysctl_set_sym_sysctl__kern_zleak_active
ffffff8000a833e8 S ___set___sysctl_set_sym_sysctl__kern_zleak_global_threshold
ffffff8000a833f0 S ___set___sysctl_set_sym_sysctl__kern_zleak_max_zonemap_size
ffffff8000a833e0 S ___set___sysctl_set_sym_sysctl__kern_zleak_zone_threshold
ffffff8000a840f0 S ___set___sysctl_set_sym_sysctl__kpc
ffffff8000a840f8 S ___set___sysctl_set_sym_sysctl__kpc_actionid
ffffff8000a84158 S ___set___sysctl_set_sym_sysctl__kpc_classes
ffffff8000a84108 S ___set___sysctl_set_sym_sysctl__kpc_config
ffffff8000a84138 S ___set___sysctl_set_sym_sysctl__kpc_config_count
ffffff8000a84130 S ___set___sysctl_set_sym_sysctl__kpc_counter_count
ffffff8000a84118 S ___set___sysctl_set_sym_sysctl__kpc_counters
ffffff8000a84150 S ___set___sysctl_set_sym_sysctl__kpc_counting
ffffff8000a84100 S ___set___sysctl_set_sym_sysctl__kpc_period
ffffff8000a84140 S ___set___sysctl_set_sym_sysctl__kpc_pmu_version
ffffff8000a84110 S ___set___sysctl_set_sym_sysctl__kpc_shadow_counters
ffffff8000a84128 S ___set___sysctl_set_sym_sysctl__kpc_sw_inc
ffffff8000a84120 S ___set___sysctl_set_sym_sysctl__kpc_thread_counters
ffffff8000a84148 S ___set___sysctl_set_sym_sysctl__kpc_thread_counting
ffffff8000a84048 S ___set___sysctl_set_sym_sysctl__kperf
ffffff8000a84050 S ___set___sysctl_set_sym_sysctl__kperf_action
ffffff8000a840e8 S ___set___sysctl_set_sym_sysctl__kperf_action_count
ffffff8000a840c8 S ___set___sysctl_set_sym_sysctl__kperf_action_filter_by_pid
ffffff8000a840d0 S ___set___sysctl_set_sym_sysctl__kperf_action_filter_by_task
ffffff8000a840e0 S ___set___sysctl_set_sym_sysctl__kperf_action_samplers
ffffff8000a840d8 S ___set___sysctl_set_sym_sysctl__kperf_action_userdata
ffffff8000a84090 S ___set___sysctl_set_sym_sysctl__kperf_blessed_pid
ffffff8000a84088 S ___set___sysctl_set_sym_sysctl__kperf_blessed_preempt
ffffff8000a84068 S ___set___sysctl_set_sym_sysctl__kperf_cswitch_action
ffffff8000a84058 S ___set___sysctl_set_sym_sysctl__kperf_debug_level
ffffff8000a84080 S ___set___sysctl_set_sym_sysctl__kperf_kdbg_callstacks
ffffff8000a84078 S ___set___sysctl_set_sym_sysctl__kperf_kdbg_cswitch
ffffff8000a84070 S ___set___sysctl_set_sym_sysctl__kperf_pet_idle_rate
ffffff8000a84098 S ___set___sysctl_set_sym_sysctl__kperf_sampling
ffffff8000a84060 S ___set___sysctl_set_sym_sysctl__kperf_signpost_action
ffffff8000a840c0 S ___set___sysctl_set_sym_sysctl__kperf_timer
ffffff8000a840a8 S ___set___sysctl_set_sym_sysctl__kperf_timer_action
ffffff8000a840b8 S ___set___sysctl_set_sym_sysctl__kperf_timer_count
ffffff8000a840b0 S ___set___sysctl_set_sym_sysctl__kperf_timer_period
ffffff8000a840a0 S ___set___sysctl_set_sym_sysctl__kperf_timer_pet_timer
ffffff8000a83948 S ___set___sysctl_set_sym_sysctl__machdep
ffffff8000a84160 S ___set___sysctl_set_sym_sysctl__machdep_cpu
ffffff8000a84308 S ___set___sysctl_set_sym_sysctl__machdep_cpu_address_bits
ffffff8000a84300 S ___set___sysctl_set_sym_sysctl__machdep_cpu_address_bits_physical
ffffff8000a842f8 S ___set___sysctl_set_sym_sysctl__machdep_cpu_address_bits_virtual
ffffff8000a843b8 S ___set___sysctl_set_sym_sysctl__machdep_cpu_arch_perf
ffffff8000a84390 S ___set___sysctl_set_sym_sysctl__machdep_cpu_arch_perf_events
ffffff8000a84398 S ___set___sysctl_set_sym_sysctl__machdep_cpu_arch_perf_events_number
ffffff8000a84388 S ___set___sysctl_set_sym_sysctl__machdep_cpu_arch_perf_fixed_number
ffffff8000a84380 S ___set___sysctl_set_sym_sysctl__machdep_cpu_arch_perf_fixed_width
ffffff8000a843a8 S ___set___sysctl_set_sym_sysctl__machdep_cpu_arch_perf_number
ffffff8000a843b0 S ___set___sysctl_set_sym_sysctl__machdep_cpu_arch_perf_version
ffffff8000a843a0 S ___set___sysctl_set_sym_sysctl__machdep_cpu_arch_perf_width
ffffff8000a84490 S ___set___sysctl_set_sym_sysctl__machdep_cpu_brand
ffffff8000a844e0 S ___set___sysctl_set_sym_sysctl__machdep_cpu_brand_string
ffffff8000a84378 S ___set___sysctl_set_sym_sysctl__machdep_cpu_cache
ffffff8000a84368 S ___set___sysctl_set_sym_sysctl__machdep_cpu_cache_L2_associativity
ffffff8000a84370 S ___set___sysctl_set_sym_sysctl__machdep_cpu_cache_linesize
ffffff8000a84360 S ___set___sysctl_set_sym_sysctl__machdep_cpu_cache_size
ffffff8000a842f0 S ___set___sysctl_set_sym_sysctl__machdep_cpu_core_count
ffffff8000a84468 S ___set___sysctl_set_sym_sysctl__machdep_cpu_cores_per_package
ffffff8000a844c0 S ___set___sysctl_set_sym_sysctl__machdep_cpu_extfamily
ffffff8000a844a0 S ___set___sysctl_set_sym_sysctl__machdep_cpu_extfeature_bits
ffffff8000a84478 S ___set___sysctl_set_sym_sysctl__machdep_cpu_extfeatures
ffffff8000a844c8 S ___set___sysctl_set_sym_sysctl__machdep_cpu_extmodel
ffffff8000a844d8 S ___set___sysctl_set_sym_sysctl__machdep_cpu_family
ffffff8000a844b0 S ___set___sysctl_set_sym_sysctl__machdep_cpu_feature_bits
ffffff8000a84488 S ___set___sysctl_set_sym_sysctl__machdep_cpu_features
ffffff8000a842e0 S ___set___sysctl_set_sym_sysctl__machdep_cpu_flex_ratio
ffffff8000a842d8 S ___set___sysctl_set_sym_sysctl__machdep_cpu_flex_ratio_desired
ffffff8000a842c8 S ___set___sysctl_set_sym_sysctl__machdep_cpu_flex_ratio_max
ffffff8000a842d0 S ___set___sysctl_set_sym_sysctl__machdep_cpu_flex_ratio_min
ffffff8000a844a8 S ___set___sysctl_set_sym_sysctl__machdep_cpu_leaf7_feature_bits
ffffff8000a84480 S ___set___sysctl_set_sym_sysctl__machdep_cpu_leaf7_features
ffffff8000a84470 S ___set___sysctl_set_sym_sysctl__machdep_cpu_logical_per_package
ffffff8000a844f8 S ___set___sysctl_set_sym_sysctl__machdep_cpu_max_basic
ffffff8000a844f0 S ___set___sysctl_set_sym_sysctl__machdep_cpu_max_ext
ffffff8000a84460 S ___set___sysctl_set_sym_sysctl__machdep_cpu_microcode_version
ffffff8000a844d0 S ___set___sysctl_set_sym_sysctl__machdep_cpu_model
ffffff8000a84450 S ___set___sysctl_set_sym_sysctl__machdep_cpu_mwait
ffffff8000a84438 S ___set___sysctl_set_sym_sysctl__machdep_cpu_mwait_extensions
ffffff8000a84440 S ___set___sysctl_set_sym_sysctl__machdep_cpu_mwait_linesize_max
ffffff8000a84448 S ___set___sysctl_set_sym_sysctl__machdep_cpu_mwait_linesize_min
ffffff8000a84430 S ___set___sysctl_set_sym_sysctl__machdep_cpu_mwait_sub_Cstates
ffffff8000a84458 S ___set___sysctl_set_sym_sysctl__machdep_cpu_processor_flag
ffffff8000a84498 S ___set___sysctl_set_sym_sysctl__machdep_cpu_signature
ffffff8000a844b8 S ___set___sysctl_set_sym_sysctl__machdep_cpu_stepping
ffffff8000a84428 S ___set___sysctl_set_sym_sysctl__machdep_cpu_thermal
ffffff8000a84400 S ___set___sysctl_set_sym_sysctl__machdep_cpu_thermal_ACNT_MCNT
ffffff8000a843f8 S ___set___sysctl_set_sym_sysctl__machdep_cpu_thermal_core_power_limits
ffffff8000a84418 S ___set___sysctl_set_sym_sysctl__machdep_cpu_thermal_dynamic_acceleration
ffffff8000a843d8 S ___set___sysctl_set_sym_sysctl__machdep_cpu_thermal_energy_policy
ffffff8000a843f0 S ___set___sysctl_set_sym_sysctl__machdep_cpu_thermal_fine_grain_clock_mod
ffffff8000a843e0 S ___set___sysctl_set_sym_sysctl__machdep_cpu_thermal_hardware_feedback
ffffff8000a84410 S ___set___sysctl_set_sym_sysctl__machdep_cpu_thermal_invariant_APIC_timer
ffffff8000a843e8 S ___set___sysctl_set_sym_sysctl__machdep_cpu_thermal_package_thermal_intr
ffffff8000a84420 S ___set___sysctl_set_sym_sysctl__machdep_cpu_thermal_sensor
ffffff8000a84408 S ___set___sysctl_set_sym_sysctl__machdep_cpu_thermal_thresholds
ffffff8000a842e8 S ___set___sysctl_set_sym_sysctl__machdep_cpu_thread_count
ffffff8000a84358 S ___set___sysctl_set_sym_sysctl__machdep_cpu_tlb
ffffff8000a84348 S ___set___sysctl_set_sym_sysctl__machdep_cpu_tlb_data
ffffff8000a84320 S ___set___sysctl_set_sym_sysctl__machdep_cpu_tlb_data_large
ffffff8000a84318 S ___set___sysctl_set_sym_sysctl__machdep_cpu_tlb_data_large_level1
ffffff8000a84338 S ___set___sysctl_set_sym_sysctl__machdep_cpu_tlb_data_small
ffffff8000a84330 S ___set___sysctl_set_sym_sysctl__machdep_cpu_tlb_data_small_level1
ffffff8000a84350 S ___set___sysctl_set_sym_sysctl__machdep_cpu_tlb_inst
ffffff8000a84328 S ___set___sysctl_set_sym_sysctl__machdep_cpu_tlb_inst_large
ffffff8000a84340 S ___set___sysctl_set_sym_sysctl__machdep_cpu_tlb_inst_small
ffffff8000a84310 S ___set___sysctl_set_sym_sysctl__machdep_cpu_tlb_shared
ffffff8000a842b8 S ___set___sysctl_set_sym_sysctl__machdep_cpu_tsc_ccc
ffffff8000a842a8 S ___set___sysctl_set_sym_sysctl__machdep_cpu_tsc_ccc_denominator
ffffff8000a842b0 S ___set___sysctl_set_sym_sysctl__machdep_cpu_tsc_ccc_numerator
ffffff8000a842c0 S ___set___sysctl_set_sym_sysctl__machdep_cpu_ucupdate
ffffff8000a844e8 S ___set___sysctl_set_sym_sysctl__machdep_cpu_vendor
ffffff8000a843d0 S ___set___sysctl_set_sym_sysctl__machdep_cpu_xsave
ffffff8000a843c8 S ___set___sysctl_set_sym_sysctl__machdep_cpu_xsave_extended_state
ffffff8000a843c0 S ___set___sysctl_set_sym_sysctl__machdep_cpu_xsave_extended_state1
ffffff8000a84170 S ___set___sysctl_set_sym_sysctl__machdep_eager_timer_evaluation_max
ffffff8000a84178 S ___set___sysctl_set_sym_sysctl__machdep_eager_timer_evaluations
ffffff8000a84258 S ___set___sysctl_set_sym_sysctl__machdep_memmap
ffffff8000a84238 S ___set___sysctl_set_sym_sysctl__machdep_memmap_ACPINVS
ffffff8000a84240 S ___set___sysctl_set_sym_sysctl__machdep_memmap_ACPIReclaim
ffffff8000a84250 S ___set___sysctl_set_sym_sysctl__machdep_memmap_Conventional
ffffff8000a84218 S ___set___sysctl_set_sym_sysctl__machdep_memmap_Other
ffffff8000a84230 S ___set___sysctl_set_sym_sysctl__machdep_memmap_PalCode
ffffff8000a84228 S ___set___sysctl_set_sym_sysctl__machdep_memmap_Reserved
ffffff8000a84248 S ___set___sysctl_set_sym_sysctl__machdep_memmap_RuntimeServices
ffffff8000a84220 S ___set___sysctl_set_sym_sysctl__machdep_memmap_Unusable
ffffff8000a841b8 S ___set___sysctl_set_sym_sysctl__machdep_misc
ffffff8000a841a8 S ___set___sysctl_set_sym_sysctl__machdep_misc_interrupt_latency_max
ffffff8000a841a0 S ___set___sysctl_set_sym_sysctl__machdep_misc_machine_check_panic
ffffff8000a84190 S ___set___sysctl_set_sym_sysctl__machdep_misc_nmis
ffffff8000a841b0 S ___set___sysctl_set_sym_sysctl__machdep_misc_panic_restart_timeout
ffffff8000a84198 S ___set___sysctl_set_sym_sysctl__machdep_misc_timer_queue_trace
ffffff8000a84288 S ___set___sysctl_set_sym_sysctl__machdep_pmap
ffffff8000a84278 S ___set___sysctl_set_sym_sysctl__machdep_pmap_hashcnts
ffffff8000a84270 S ___set___sysctl_set_sym_sysctl__machdep_pmap_hashmax
ffffff8000a84280 S ___set___sysctl_set_sym_sysctl__machdep_pmap_hashwalks
ffffff8000a84260 S ___set___sysctl_set_sym_sysctl__machdep_pmap_kern_pv_reserve
ffffff8000a84268 S ___set___sysctl_set_sym_sysctl__machdep_pmap_kernel_text_ps
ffffff8000a84210 S ___set___sysctl_set_sym_sysctl__machdep_tsc
ffffff8000a841f8 S ___set___sysctl_set_sym_sysctl__machdep_tsc_at_boot
ffffff8000a84200 S ___set___sysctl_set_sym_sysctl__machdep_tsc_deep_idle_rebase
ffffff8000a84208 S ___set___sysctl_set_sym_sysctl__machdep_tsc_frequency
ffffff8000a841e8 S ___set___sysctl_set_sym_sysctl__machdep_tsc_nanotime
ffffff8000a841c0 S ___set___sysctl_set_sym_sysctl__machdep_tsc_nanotime_generation
ffffff8000a841d8 S ___set___sysctl_set_sym_sysctl__machdep_tsc_nanotime_ns_base
ffffff8000a841d0 S ___set___sysctl_set_sym_sysctl__machdep_tsc_nanotime_scale
ffffff8000a841c8 S ___set___sysctl_set_sym_sysctl__machdep_tsc_nanotime_shift
ffffff8000a841e0 S ___set___sysctl_set_sym_sysctl__machdep_tsc_nanotime_tsc_base
ffffff8000a841f0 S ___set___sysctl_set_sym_sysctl__machdep_tsc_rebase_abs_time
ffffff8000a83418 S ___set___sysctl_set_sym_sysctl__machdep_user_idle_level
ffffff8000a842a0 S ___set___sysctl_set_sym_sysctl__machdep_vectors
ffffff8000a84290 S ___set___sysctl_set_sym_sysctl__machdep_vectors_IPI
ffffff8000a84298 S ___set___sysctl_set_sym_sysctl__machdep_vectors_timer
ffffff8000a84168 S ___set___sysctl_set_sym_sysctl__machdep_x86_fp_simd_isr_uses
ffffff8000a83930 S ___set___sysctl_set_sym_sysctl__net
ffffff8000a82568 S ___set___sysctl_set_sym_sysctl__net_cfil
ffffff8000a82588 S ___set___sysctl_set_sym_sysctl__net_cfil_active_count
ffffff8000a82590 S ___set___sysctl_set_sym_sysctl__net_cfil_close_wait_timeout
ffffff8000a82578 S ___set___sysctl_set_sym_sysctl__net_cfil_debug
ffffff8000a825b0 S ___set___sysctl_set_sym_sysctl__net_cfil_filter_list
ffffff8000a82570 S ___set___sysctl_set_sym_sysctl__net_cfil_log
ffffff8000a82598 S ___set___sysctl_set_sym_sysctl__net_cfil_sbtrim
ffffff8000a82580 S ___set___sysctl_set_sym_sysctl__net_cfil_sock_attached_count
ffffff8000a825a8 S ___set___sysctl_set_sym_sysctl__net_cfil_sock_list
ffffff8000a825a0 S ___set___sysctl_set_sym_sysctl__net_cfil_stats
ffffff8000a825c8 S ___set___sysctl_set_sym_sysctl__net_classq
ffffff8000a825d8 S ___set___sysctl_set_sym_sysctl__net_classq_sfb
ffffff8000a82618 S ___set___sysctl_set_sym_sysctl__net_classq_sfb_allocation
ffffff8000a82610 S ___set___sysctl_set_sym_sysctl__net_classq_sfb_decrement
ffffff8000a825f0 S ___set___sysctl_set_sym_sysctl__net_classq_sfb_hinterval
ffffff8000a825e0 S ___set___sysctl_set_sym_sysctl__net_classq_sfb_holdtime
ffffff8000a82608 S ___set___sysctl_set_sym_sysctl__net_classq_sfb_increment
ffffff8000a825e8 S ___set___sysctl_set_sym_sysctl__net_classq_sfb_pboxtime
ffffff8000a82620 S ___set___sysctl_set_sym_sysctl__net_classq_sfb_ratelimit
ffffff8000a825f8 S ___set___sysctl_set_sym_sysctl__net_classq_sfb_target_qdelay
ffffff8000a82600 S ___set___sysctl_set_sym_sysctl__net_classq_sfb_update_interval
ffffff8000a825d0 S ___set___sysctl_set_sym_sysctl__net_classq_verbose
ffffff8000a827c8 S ___set___sysctl_set_sym_sysctl__net_inet
ffffff8000a831b0 S ___set___sysctl_set_sym_sysctl__net_inet6
ffffff8000a831a0 S ___set___sysctl_set_sym_sysctl__net_inet6_icmp6
ffffff8000a83040 S ___set___sysctl_set_sym_sysctl__net_inet6_icmp6_errppslimit
ffffff8000a83050 S ___set___sysctl_set_sym_sysctl__net_inet6_icmp6_nd6_accept_6to4
ffffff8000a83030 S ___set___sysctl_set_sym_sysctl__net_inet6_icmp6_nd6_debug
ffffff8000a83070 S ___set___sysctl_set_sym_sysctl__net_inet6_icmp6_nd6_delay
ffffff8000a83218 S ___set___sysctl_set_sym_sysctl__net_inet6_icmp6_nd6_drlist
ffffff8000a83220 S ___set___sysctl_set_sym_sysctl__net_inet6_icmp6_nd6_llreach_base
ffffff8000a83230 S ___set___sysctl_set_sym_sysctl__net_inet6_icmp6_nd6_maxproxiedsol
ffffff8000a83228 S ___set___sysctl_set_sym_sysctl__net_inet6_icmp6_nd6_maxsolstgt
ffffff8000a83060 S ___set___sysctl_set_sym_sysctl__net_inet6_icmp6_nd6_mmaxtries
ffffff8000a83028 S ___set___sysctl_set_sym_sysctl__net_inet6_icmp6_nd6_onlink_ns_rfc4861
ffffff8000a83020 S ___set___sysctl_set_sym_sysctl__net_inet6_icmp6_nd6_optimistic_dad
ffffff8000a83210 S ___set___sysctl_set_sym_sysctl__net_inet6_icmp6_nd6_prlist
ffffff8000a83080 S ___set___sysctl_set_sym_sysctl__net_inet6_icmp6_nd6_prune
ffffff8000a83078 S ___set___sysctl_set_sym_sysctl__net_inet6_icmp6_nd6_prune_lazy
ffffff8000a83068 S ___set___sysctl_set_sym_sysctl__net_inet6_icmp6_nd6_umaxtries
ffffff8000a83058 S ___set___sysctl_set_sym_sysctl__net_inet6_icmp6_nd6_useloopback
ffffff8000a83048 S ___set___sysctl_set_sym_sysctl__net_inet6_icmp6_nodeinfo
ffffff8000a83238 S ___set___sysctl_set_sym_sysctl__net_inet6_icmp6_prproxy_cnt
ffffff8000a83038 S ___set___sysctl_set_sym_sysctl__net_inet6_icmp6_rappslimit
ffffff8000a83098 S ___set___sysctl_set_sym_sysctl__net_inet6_icmp6_rediraccept
ffffff8000a83090 S ___set___sysctl_set_sym_sysctl__net_inet6_icmp6_redirtimeout
ffffff8000a83088 S ___set___sysctl_set_sym_sysctl__net_inet6_icmp6_stats
ffffff8000a831a8 S ___set___sysctl_set_sym_sysctl__net_inet6_ip6
ffffff8000a83160 S ___set___sysctl_set_sym_sysctl__net_inet6_ip6_accept_rtadv
ffffff8000a82ff0 S ___set___sysctl_set_sym_sysctl__net_inet6_ip6_addrctlpolicy
ffffff8000a82fa0 S ___set___sysctl_set_sym_sysctl__net_inet6_ip6_adj_clear_hwcksum
ffffff8000a83138 S ___set___sysctl_set_sym_sysctl__net_inet6_ip6_auto_flowlabel
ffffff8000a830e8 S ___set___sysctl_set_sym_sysctl__net_inet6_ip6_auto_linklocal
ffffff8000a83140 S ___set___sysctl_set_sym_sysctl__net_inet6_ip6_dad_count
ffffff8000a83130 S ___set___sysctl_set_sym_sysctl__net_inet6_ip6_defmcasthlim
ffffff8000a83180 S ___set___sysctl_set_sym_sysctl__net_inet6_ip6_forwarding
ffffff8000a82f60 S ___set___sysctl_set_sym_sysctl__net_inet6_ip6_fragpackets
ffffff8000a82f70 S ___set___sysctl_set_sym_sysctl__net_inet6_ip6_fw
ffffff8000a82f88 S ___set___sysctl_set_sym_sysctl__net_inet6_ip6_fw_debug
ffffff8000a82f90 S ___set___sysctl_set_sym_sysctl__net_inet6_ip6_fw_enable
ffffff8000a82f80 S ___set___sysctl_set_sym_sysctl__net_inet6_ip6_fw_verbose
ffffff8000a82f78 S ___set___sysctl_set_sym_sysctl__net_inet6_ip6_fw_verbose_limit
ffffff8000a83128 S ___set___sysctl_set_sym_sysctl__net_inet6_ip6_gifhlim
ffffff8000a83148 S ___set___sysctl_set_sym_sysctl__net_inet6_ip6_hdrnestlimit
ffffff8000a83170 S ___set___sysctl_set_sym_sysctl__net_inet6_ip6_hlim
ffffff8000a82fb8 S ___set___sysctl_set_sym_sysctl__net_inet6_ip6_input_perf
ffffff8000a82fb0 S ___set___sysctl_set_sym_sysctl__net_inet6_ip6_input_perf_bins
ffffff8000a82fa8 S ___set___sysctl_set_sym_sysctl__net_inet6_ip6_input_perf_data
ffffff8000a83120 S ___set___sysctl_set_sym_sysctl__net_inet6_ip6_kame_version
ffffff8000a83158 S ___set___sysctl_set_sym_sysctl__net_inet6_ip6_keepfaith
ffffff8000a83150 S ___set___sysctl_set_sym_sysctl__net_inet6_ip6_log_interval
ffffff8000a83208 S ___set___sysctl_set_sym_sysctl__net_inet6_ip6_maxchainsent
ffffff8000a830a8 S ___set___sysctl_set_sym_sysctl__net_inet6_ip6_maxdynroutes
ffffff8000a82f68 S ___set___sysctl_set_sym_sysctl__net_inet6_ip6_maxfragpackets
ffffff8000a82f58 S ___set___sysctl_set_sym_sysctl__net_inet6_ip6_maxfrags
ffffff8000a830b0 S ___set___sysctl_set_sym_sysctl__net_inet6_ip6_maxifdefrouters
ffffff8000a830b8 S ___set___sysctl_set_sym_sysctl__net_inet6_ip6_maxifprefixes
ffffff8000a82ff8 S ___set___sysctl_set_sym_sysctl__net_inet6_ip6_mcast
ffffff8000a83018 S ___set___sysctl_set_sym_sysctl__net_inet6_ip6_mcast_filters
ffffff8000a83010 S ___set___sysctl_set_sym_sysctl__net_inet6_ip6_mcast_loop
ffffff8000a83000 S ___set___sysctl_set_sym_sysctl__net_inet6_ip6_mcast_maxgrpsrc
ffffff8000a83008 S ___set___sysctl_set_sym_sysctl__net_inet6_ip6_mcast_maxsocksrc
ffffff8000a830c8 S ___set___sysctl_set_sym_sysctl__net_inet6_ip6_mcast_pmtu
ffffff8000a830c0 S ___set___sysctl_set_sym_sysctl__net_inet6_ip6_neighborgcthresh
ffffff8000a830a0 S ___set___sysctl_set_sym_sysctl__net_inet6_ip6_only_allow_rfc4193_prefixes
ffffff8000a82fd0 S ___set___sysctl_set_sym_sysctl__net_inet6_ip6_output_perf
ffffff8000a82fc8 S ___set___sysctl_set_sym_sysctl__net_inet6_ip6_output_perf_bins
ffffff8000a82fc0 S ___set___sysctl_set_sym_sysctl__net_inet6_ip6_output_perf_data
ffffff8000a830d8 S ___set___sysctl_set_sym_sysctl__net_inet6_ip6_prefer_tempaddr
ffffff8000a83178 S ___set___sysctl_set_sym_sysctl__net_inet6_ip6_redirect
ffffff8000a830e0 S ___set___sysctl_set_sym_sysctl__net_inet6_ip6_rip6stats
ffffff8000a83110 S ___set___sysctl_set_sym_sysctl__net_inet6_ip6_rr_prune
ffffff8000a831b8 S ___set___sysctl_set_sym_sysctl__net_inet6_ip6_rtexpire
ffffff8000a831c8 S ___set___sysctl_set_sym_sysctl__net_inet6_ip6_rtmaxcache
ffffff8000a831c0 S ___set___sysctl_set_sym_sysctl__net_inet6_ip6_rtminexpire
ffffff8000a82f98 S ___set___sysctl_set_sym_sysctl__net_inet6_ip6_scopedroute
ffffff8000a82fe8 S ___set___sysctl_set_sym_sysctl__net_inet6_ip6_select_src_expensive_secondary_if
ffffff8000a82fe0 S ___set___sysctl_set_sym_sysctl__net_inet6_ip6_select_srcaddr_debug
ffffff8000a82fd8 S ___set___sysctl_set_sym_sysctl__net_inet6_ip6_select_srcif_debug
ffffff8000a83168 S ___set___sysctl_set_sym_sysctl__net_inet6_ip6_stats
ffffff8000a83100 S ___set___sysctl_set_sym_sysctl__net_inet6_ip6_temppltime
ffffff8000a830f8 S ___set___sysctl_set_sym_sysctl__net_inet6_ip6_tempvltime
ffffff8000a830d0 S ___set___sysctl_set_sym_sysctl__net_inet6_ip6_use_defaultzone
ffffff8000a83118 S ___set___sysctl_set_sym_sysctl__net_inet6_ip6_use_deprecated
ffffff8000a83108 S ___set___sysctl_set_sym_sysctl__net_inet6_ip6_use_tempaddr
ffffff8000a830f0 S ___set___sysctl_set_sym_sysctl__net_inet6_ip6_v6only
ffffff8000a83188 S ___set___sysctl_set_sym_sysctl__net_inet6_ipsec6
ffffff8000a82ec0 S ___set___sysctl_set_sym_sysctl__net_inet6_ipsec6_ah_net_deflev
ffffff8000a82ec8 S ___set___sysctl_set_sym_sysctl__net_inet6_ipsec6_ah_trans_deflev
ffffff8000a82eb0 S ___set___sysctl_set_sym_sysctl__net_inet6_ipsec6_debug
ffffff8000a82ee0 S ___set___sysctl_set_sym_sysctl__net_inet6_ipsec6_def_policy
ffffff8000a82eb8 S ___set___sysctl_set_sym_sysctl__net_inet6_ipsec6_ecn
ffffff8000a82ed0 S ___set___sysctl_set_sym_sysctl__net_inet6_ipsec6_esp_net_deflev
ffffff8000a82ea8 S ___set___sysctl_set_sym_sysctl__net_inet6_ipsec6_esp_randpad
ffffff8000a82ed8 S ___set___sysctl_set_sym_sysctl__net_inet6_ipsec6_esp_trans_deflev
ffffff8000a82ee8 S ___set___sysctl_set_sym_sysctl__net_inet6_ipsec6_stats
ffffff8000a831d0 S ___set___sysctl_set_sym_sysctl__net_inet6_mld
ffffff8000a831d8 S ___set___sysctl_set_sym_sysctl__net_inet6_mld_debug
ffffff8000a83200 S ___set___sysctl_set_sym_sysctl__net_inet6_mld_gsrdelay
ffffff8000a831f8 S ___set___sysctl_set_sym_sysctl__net_inet6_mld_ifinfo
ffffff8000a831e0 S ___set___sysctl_set_sym_sysctl__net_inet6_mld_use_allow
ffffff8000a831f0 S ___set___sysctl_set_sym_sysctl__net_inet6_mld_v1enable
ffffff8000a831e8 S ___set___sysctl_set_sym_sysctl__net_inet6_mld_v2enable
ffffff8000a83240 S ___set___sysctl_set_sym_sysctl__net_inet6_send
ffffff8000a83258 S ___set___sysctl_set_sym_sysctl__net_inet6_send_cga_parameters
ffffff8000a83250 S ___set___sysctl_set_sym_sysctl__net_inet6_send_opmode
ffffff8000a83248 S ___set___sysctl_set_sym_sysctl__net_inet6_send_opstate
ffffff8000a83190 S ___set___sysctl_set_sym_sysctl__net_inet6_tcp6
ffffff8000a83198 S ___set___sysctl_set_sym_sysctl__net_inet6_udp6
ffffff8000a82788 S ___set___sysctl_set_sym_sysctl__net_inet_div
ffffff8000a827b8 S ___set___sysctl_set_sym_sysctl__net_inet_icmp
ffffff8000a82918 S ___set___sysctl_set_sym_sysctl__net_inet_icmp_bmcastecho
ffffff8000a82900 S ___set___sysctl_set_sym_sysctl__net_inet_icmp_drop_redirect
ffffff8000a82910 S ___set___sysctl_set_sym_sysctl__net_inet_icmp_icmplim
ffffff8000a82908 S ___set___sysctl_set_sym_sysctl__net_inet_icmp_log_redirect
ffffff8000a828f0 S ___set___sysctl_set_sym_sysctl__net_inet_icmp_maskrepl
ffffff8000a828e8 S ___set___sysctl_set_sym_sysctl__net_inet_icmp_stats
ffffff8000a828f8 S ___set___sysctl_set_sym_sysctl__net_inet_icmp_timestamp
ffffff8000a827a0 S ___set___sysctl_set_sym_sysctl__net_inet_igmp
ffffff8000a82680 S ___set___sysctl_set_sym_sysctl__net_inet_igmp_debug
ffffff8000a82690 S ___set___sysctl_set_sym_sysctl__net_inet_igmp_default_version
ffffff8000a82688 S ___set___sysctl_set_sym_sysctl__net_inet_igmp_gsrdelay
ffffff8000a82678 S ___set___sysctl_set_sym_sysctl__net_inet_igmp_ifinfo
ffffff8000a82670 S ___set___sysctl_set_sym_sysctl__net_inet_igmp_legacysupp
ffffff8000a82648 S ___set___sysctl_set_sym_sysctl__net_inet_igmp_recvifkludge
ffffff8000a82658 S ___set___sysctl_set_sym_sysctl__net_inet_igmp_sendlocal
ffffff8000a82650 S ___set___sysctl_set_sym_sysctl__net_inet_igmp_sendra
ffffff8000a82638 S ___set___sysctl_set_sym_sysctl__net_inet_igmp_stats
ffffff8000a82660 S ___set___sysctl_set_sym_sysctl__net_inet_igmp_v1enable
ffffff8000a82668 S ___set___sysctl_set_sym_sysctl__net_inet_igmp_v2enable
ffffff8000a82640 S ___set___sysctl_set_sym_sysctl__net_inet_igmp_v3stats
ffffff8000a827c0 S ___set___sysctl_set_sym_sysctl__net_inet_ip
ffffff8000a829c8 S ___set___sysctl_set_sym_sysctl__net_inet_ip_accept_sourceroute
ffffff8000a82998 S ___set___sysctl_set_sym_sysctl__net_inet_ip_adj_clear_hwcksum
ffffff8000a82990 S ___set___sysctl_set_sym_sysctl__net_inet_ip_check_interface
ffffff8000a827e8 S ___set___sysctl_set_sym_sysctl__net_inet_ip_dummynet
ffffff8000a827f8 S ___set___sysctl_set_sym_sysctl__net_inet_ip_dummynet_curr_time
ffffff8000a82848 S ___set___sysctl_set_sym_sysctl__net_inet_ip_dummynet_debug
ffffff8000a82820 S ___set___sysctl_set_sym_sysctl__net_inet_ip_dummynet_expire
ffffff8000a82808 S ___set___sysctl_set_sym_sysctl__net_inet_ip_dummynet_extract_heap
ffffff8000a827f0 S ___set___sysctl_set_sym_sysctl__net_inet_ip_dummynet_hash_size
ffffff8000a82828 S ___set___sysctl_set_sym_sysctl__net_inet_ip_dummynet_max_chain_len
ffffff8000a82800 S ___set___sysctl_set_sym_sysctl__net_inet_ip_dummynet_ready_heap
ffffff8000a82838 S ___set___sysctl_set_sym_sysctl__net_inet_ip_dummynet_red_avg_pkt_size
ffffff8000a82830 S ___set___sysctl_set_sym_sysctl__net_inet_ip_dummynet_red_lookup_depth
ffffff8000a82840 S ___set___sysctl_set_sym_sysctl__net_inet_ip_dummynet_red_max_pkt_size
ffffff8000a82818 S ___set___sysctl_set_sym_sysctl__net_inet_ip_dummynet_search_steps
ffffff8000a82810 S ___set___sysctl_set_sym_sysctl__net_inet_ip_dummynet_searches
ffffff8000a829e8 S ___set___sysctl_set_sym_sysctl__net_inet_ip_forwarding
ffffff8000a829b0 S ___set___sysctl_set_sym_sysctl__net_inet_ip_fragpackets
ffffff8000a82850 S ___set___sysctl_set_sym_sysctl__net_inet_ip_fw
ffffff8000a828d8 S ___set___sysctl_set_sym_sysctl__net_inet_ip_fw_autoinc_step
ffffff8000a828a8 S ___set___sysctl_set_sym_sysctl__net_inet_ip_fw_curr_dyn_buckets
ffffff8000a828c8 S ___set___sysctl_set_sym_sysctl__net_inet_ip_fw_debug
ffffff8000a82888 S ___set___sysctl_set_sym_sysctl__net_inet_ip_fw_dyn_ack_lifetime
ffffff8000a828b0 S ___set___sysctl_set_sym_sysctl__net_inet_ip_fw_dyn_buckets
ffffff8000a828a0 S ___set___sysctl_set_sym_sysctl__net_inet_ip_fw_dyn_count
ffffff8000a82878 S ___set___sysctl_set_sym_sysctl__net_inet_ip_fw_dyn_fin_lifetime
ffffff8000a82858 S ___set___sysctl_set_sym_sysctl__net_inet_ip_fw_dyn_keepalive
ffffff8000a82898 S ___set___sysctl_set_sym_sysctl__net_inet_ip_fw_dyn_max
ffffff8000a82870 S ___set___sysctl_set_sym_sysctl__net_inet_ip_fw_dyn_rst_lifetime
ffffff8000a82860 S ___set___sysctl_set_sym_sysctl__net_inet_ip_fw_dyn_short_lifetime
ffffff8000a82880 S ___set___sysctl_set_sym_sysctl__net_inet_ip_fw_dyn_syn_lifetime
ffffff8000a82868 S ___set___sysctl_set_sym_sysctl__net_inet_ip_fw_dyn_udp_lifetime
ffffff8000a828e0 S ___set___sysctl_set_sym_sysctl__net_inet_ip_fw_enable
ffffff8000a828d0 S ___set___sysctl_set_sym_sysctl__net_inet_ip_fw_one_pass
ffffff8000a82890 S ___set___sysctl_set_sym_sysctl__net_inet_ip_fw_static_count
ffffff8000a828c0 S ___set___sysctl_set_sym_sysctl__net_inet_ip_fw_verbose
ffffff8000a828b8 S ___set___sysctl_set_sym_sysctl__net_inet_ip_fw_verbose_limit
ffffff8000a82da0 S ___set___sysctl_set_sym_sysctl__net_inet_ip_gifttl
ffffff8000a82978 S ___set___sysctl_set_sym_sysctl__net_inet_ip_input_perf
ffffff8000a82970 S ___set___sysctl_set_sym_sysctl__net_inet_ip_input_perf_bins
ffffff8000a82968 S ___set___sysctl_set_sym_sysctl__net_inet_ip_input_perf_data
ffffff8000a82958 S ___set___sysctl_set_sym_sysctl__net_inet_ip_linklocal
ffffff8000a82948 S ___set___sysctl_set_sym_sysctl__net_inet_ip_linklocal_in
ffffff8000a82940 S ___set___sysctl_set_sym_sysctl__net_inet_ip_linklocal_in_allowbadttl
ffffff8000a82950 S ___set___sysctl_set_sym_sysctl__net_inet_ip_linklocal_stat
ffffff8000a829f0 S ___set___sysctl_set_sym_sysctl__net_inet_ip_maxchainsent
ffffff8000a829b8 S ___set___sysctl_set_sym_sysctl__net_inet_ip_maxfragpackets
ffffff8000a829a8 S ___set___sysctl_set_sym_sysctl__net_inet_ip_maxfragsperpacket
ffffff8000a82728 S ___set___sysctl_set_sym_sysctl__net_inet_ip_mcast
ffffff8000a82748 S ___set___sysctl_set_sym_sysctl__net_inet_ip_mcast_filters
ffffff8000a82740 S ___set___sysctl_set_sym_sysctl__net_inet_ip_mcast_loop
ffffff8000a82730 S ___set___sysctl_set_sym_sysctl__net_inet_ip_mcast_maxgrpsrc
ffffff8000a82738 S ___set___sysctl_set_sym_sysctl__net_inet_ip_mcast_maxsocksrc
ffffff8000a82a10 S ___set___sysctl_set_sym_sysctl__net_inet_ip_output_perf
ffffff8000a82a08 S ___set___sysctl_set_sym_sysctl__net_inet_ip_output_perf_bins
ffffff8000a82a00 S ___set___sysctl_set_sym_sysctl__net_inet_ip_output_perf_data
ffffff8000a82750 S ___set___sysctl_set_sym_sysctl__net_inet_ip_portrange
ffffff8000a82770 S ___set___sysctl_set_sym_sysctl__net_inet_ip_portrange_first
ffffff8000a82760 S ___set___sysctl_set_sym_sysctl__net_inet_ip_portrange_hifirst
ffffff8000a82758 S ___set___sysctl_set_sym_sysctl__net_inet_ip_portrange_hilast
ffffff8000a82768 S ___set___sysctl_set_sym_sysctl__net_inet_ip_portrange_last
ffffff8000a82780 S ___set___sysctl_set_sym_sysctl__net_inet_ip_portrange_lowfirst
ffffff8000a82778 S ___set___sysctl_set_sym_sysctl__net_inet_ip_portrange_lowlast
ffffff8000a82938 S ___set___sysctl_set_sym_sysctl__net_inet_ip_random_id
ffffff8000a82928 S ___set___sysctl_set_sym_sysctl__net_inet_ip_random_id_collisions
ffffff8000a82920 S ___set___sysctl_set_sym_sysctl__net_inet_ip_random_id_statistics
ffffff8000a82930 S ___set___sysctl_set_sym_sysctl__net_inet_ip_random_id_total
ffffff8000a829e0 S ___set___sysctl_set_sym_sysctl__net_inet_ip_redirect
ffffff8000a827d0 S ___set___sysctl_set_sym_sysctl__net_inet_ip_rtexpire
ffffff8000a827e0 S ___set___sysctl_set_sym_sysctl__net_inet_ip_rtmaxcache
ffffff8000a827d8 S ___set___sysctl_set_sym_sysctl__net_inet_ip_rtminexpire
ffffff8000a82988 S ___set___sysctl_set_sym_sysctl__net_inet_ip_rx_chaining
ffffff8000a82980 S ___set___sysctl_set_sym_sysctl__net_inet_ip_rx_chainsz
ffffff8000a829a0 S ___set___sysctl_set_sym_sysctl__net_inet_ip_scopedroute
ffffff8000a829f8 S ___set___sysctl_set_sym_sysctl__net_inet_ip_select_srcif_debug
ffffff8000a829c0 S ___set___sysctl_set_sym_sysctl__net_inet_ip_sendsourcequench
ffffff8000a829d0 S ___set___sysctl_set_sym_sysctl__net_inet_ip_sourceroute
ffffff8000a82960 S ___set___sysctl_set_sym_sysctl__net_inet_ip_stats
ffffff8000a82698 S ___set___sysctl_set_sym_sysctl__net_inet_ip_subnets_are_local
ffffff8000a829d8 S ___set___sysctl_set_sym_sysctl__net_inet_ip_ttl
ffffff8000a82798 S ___set___sysctl_set_sym_sysctl__net_inet_ipsec
ffffff8000a82f28 S ___set___sysctl_set_sym_sysctl__net_inet_ipsec_ah_cleartos
ffffff8000a82f30 S ___set___sysctl_set_sym_sysctl__net_inet_ipsec_ah_net_deflev
ffffff8000a82f20 S ___set___sysctl_set_sym_sysctl__net_inet_ipsec_ah_offsetmask
ffffff8000a82f38 S ___set___sysctl_set_sym_sysctl__net_inet_ipsec_ah_trans_deflev
ffffff8000a82ef8 S ___set___sysctl_set_sym_sysctl__net_inet_ipsec_bypass
ffffff8000a82f08 S ___set___sysctl_set_sym_sysctl__net_inet_ipsec_debug
ffffff8000a82f50 S ___set___sysctl_set_sym_sysctl__net_inet_ipsec_def_policy
ffffff8000a82f18 S ___set___sysctl_set_sym_sysctl__net_inet_ipsec_dfbit
ffffff8000a82f10 S ___set___sysctl_set_sym_sysctl__net_inet_ipsec_ecn
ffffff8000a82f40 S ___set___sysctl_set_sym_sysctl__net_inet_ipsec_esp_net_deflev
ffffff8000a82ef0 S ___set___sysctl_set_sym_sysctl__net_inet_ipsec_esp_port
ffffff8000a82f00 S ___set___sysctl_set_sym_sysctl__net_inet_ipsec_esp_randpad
ffffff8000a82f48 S ___set___sysctl_set_sym_sysctl__net_inet_ipsec_esp_trans_deflev
ffffff8000a82ea0 S ___set___sysctl_set_sym_sysctl__net_inet_ipsec_stats
ffffff8000a82e38 S ___set___sysctl_set_sym_sysctl__net_inet_mptcp
ffffff8000a82e40 S ___set___sysctl_set_sym_sysctl__net_inet_mptcp_dbg_area
ffffff8000a82e48 S ___set___sysctl_set_sym_sysctl__net_inet_mptcp_dbg_level
ffffff8000a82e60 S ___set___sysctl_set_sym_sysctl__net_inet_mptcp_delayed
ffffff8000a82db8 S ___set___sysctl_set_sym_sysctl__net_inet_mptcp_dss_csum
ffffff8000a82da8 S ___set___sysctl_set_sym_sysctl__net_inet_mptcp_enable
ffffff8000a82dc0 S ___set___sysctl_set_sym_sysctl__net_inet_mptcp_fail
ffffff8000a82de0 S ___set___sysctl_set_sym_sysctl__net_inet_mptcp_fastjoin
ffffff8000a82e80 S ___set___sysctl_set_sym_sysctl__net_inet_mptcp_force_64bit_dsn
ffffff8000a82dc8 S ___set___sysctl_set_sym_sysctl__net_inet_mptcp_keepalive
ffffff8000a82e78 S ___set___sysctl_set_sym_sysctl__net_inet_mptcp_mp_preconn_sbsz
ffffff8000a82dd0 S ___set___sysctl_set_sym_sysctl__net_inet_mptcp_mpprio
ffffff8000a82db0 S ___set___sysctl_set_sym_sysctl__net_inet_mptcp_mptcp_cap_retr
ffffff8000a82e90 S ___set___sysctl_set_sym_sysctl__net_inet_mptcp_nrto
ffffff8000a82e50 S ___set___sysctl_set_sym_sysctl__net_inet_mptcp_pcbcount
ffffff8000a82e70 S ___set___sysctl_set_sym_sysctl__net_inet_mptcp_pcblist
ffffff8000a82e20 S ___set___sysctl_set_sym_sysctl__net_inet_mptcp_peerswitchno
ffffff8000a82e30 S ___set___sysctl_set_sym_sysctl__net_inet_mptcp_probecnt
ffffff8000a82e28 S ___set___sysctl_set_sym_sysctl__net_inet_mptcp_probeto
ffffff8000a82dd8 S ___set___sysctl_set_sym_sysctl__net_inet_mptcp_remaddr
ffffff8000a82e88 S ___set___sysctl_set_sym_sysctl__net_inet_mptcp_rto
ffffff8000a82e10 S ___set___sysctl_set_sym_sysctl__net_inet_mptcp_rto_thresh
ffffff8000a82df8 S ___set___sysctl_set_sym_sysctl__net_inet_mptcp_rtthist
ffffff8000a82e00 S ___set___sysctl_set_sym_sysctl__net_inet_mptcp_rtthist_thresh
ffffff8000a82df0 S ___set___sysctl_set_sym_sysctl__net_inet_mptcp_rwnotify
ffffff8000a82e58 S ___set___sysctl_set_sym_sysctl__net_inet_mptcp_sk_lim
ffffff8000a82e98 S ___set___sysctl_set_sym_sysctl__net_inet_mptcp_tw
ffffff8000a82e18 S ___set___sysctl_set_sym_sysctl__net_inet_mptcp_use_peer
ffffff8000a82e08 S ___set___sysctl_set_sym_sysctl__net_inet_mptcp_userto
ffffff8000a82e68 S ___set___sysctl_set_sym_sysctl__net_inet_mptcp_usesymptoms
ffffff8000a82de8 S ___set___sysctl_set_sym_sysctl__net_inet_mptcp_zerortt_fastjoin
ffffff8000a82790 S ___set___sysctl_set_sym_sysctl__net_inet_raw
ffffff8000a82a18 S ___set___sysctl_set_sym_sysctl__net_inet_raw_maxdgram
ffffff8000a82a28 S ___set___sysctl_set_sym_sysctl__net_inet_raw_pcbcount
ffffff8000a82a40 S ___set___sysctl_set_sym_sysctl__net_inet_raw_pcblist
ffffff8000a82a38 S ___set___sysctl_set_sym_sysctl__net_inet_raw_pcblist64
ffffff8000a82a30 S ___set___sysctl_set_sym_sysctl__net_inet_raw_pcblist_n
ffffff8000a82a20 S ___set___sysctl_set_sym_sysctl__net_inet_raw_recvspace
ffffff8000a827a8 S ___set___sysctl_set_sym_sysctl__net_inet_tcp
ffffff8000a82b58 S ___set___sysctl_set_sym_sysctl__net_inet_tcp_acc_iaj_react_limit
ffffff8000a82b38 S ___set___sysctl_set_sym_sysctl__net_inet_tcp_ack_prioritize
ffffff8000a82c80 S ___set___sysctl_set_sym_sysctl__net_inet_tcp_always_keepalive
ffffff8000a82ac8 S ___set___sysctl_set_sym_sysctl__net_inet_tcp_autorcvbufmax
ffffff8000a82b48 S ___set___sysctl_set_sym_sysctl__net_inet_tcp_autosndbufinc
ffffff8000a82b40 S ___set___sysctl_set_sym_sysctl__net_inet_tcp_autosndbufmax
ffffff8000a82ce8 S ___set___sysctl_set_sym_sysctl__net_inet_tcp_background_sockets
ffffff8000a82d38 S ___set___sysctl_set_sym_sysctl__net_inet_tcp_bg_allowed_increase
ffffff8000a82d28 S ___set___sysctl_set_sym_sysctl__net_inet_tcp_bg_ss_fltsz
ffffff8000a82d40 S ___set___sysctl_set_sym_sysctl__net_inet_tcp_bg_target_qdelay
ffffff8000a82d30 S ___set___sysctl_set_sym_sysctl__net_inet_tcp_bg_tether_shift
ffffff8000a82a60 S ___set___sysctl_set_sym_sysctl__net_inet_tcp_blackhole
ffffff8000a82c70 S ___set___sysctl_set_sym_sysctl__net_inet_tcp_broken_peer_syn_rexmit_thres
ffffff8000a82cd8 S ___set___sysctl_set_sym_sysctl__net_inet_tcp_cc_debug
ffffff8000a82a50 S ___set___sysctl_set_sym_sysctl__net_inet_tcp_clear_tfocache
ffffff8000a82d08 S ___set___sysctl_set_sym_sysctl__net_inet_tcp_cubic_fast_convergence
ffffff8000a82cf0 S ___set___sysctl_set_sym_sysctl__net_inet_tcp_cubic_sockets
ffffff8000a82d10 S ___set___sysctl_set_sym_sysctl__net_inet_tcp_cubic_tcp_friendliness
ffffff8000a82d00 S ___set___sysctl_set_sym_sysctl__net_inet_tcp_cubic_use_minrtt
ffffff8000a82a68 S ___set___sysctl_set_sym_sysctl__net_inet_tcp_delayed_ack
ffffff8000a82c18 S ___set___sysctl_set_sym_sysctl__net_inet_tcp_do_tcpdrain
ffffff8000a82ac0 S ___set___sysctl_set_sym_sysctl__net_inet_tcp_doautorcvbuf
ffffff8000a82b50 S ___set___sysctl_set_sym_sysctl__net_inet_tcp_doautosndbuf
ffffff8000a82a80 S ___set___sysctl_set_sym_sysctl__net_inet_tcp_drop_synfin
ffffff8000a82b88 S ___set___sysctl_set_sym_sysctl__net_inet_tcp_ecn_initiate_out
ffffff8000a82b80 S ___set___sysctl_set_sym_sysctl__net_inet_tcp_ecn_negotiate_in
ffffff8000a82a48 S ___set___sysctl_set_sym_sysctl__net_inet_tcp_ecn_timeout
ffffff8000a82b20 S ___set___sysctl_set_sym_sysctl__net_inet_tcp_enable_tlp
ffffff8000a82c38 S ___set___sysctl_set_sym_sysctl__net_inet_tcp_fastopen
ffffff8000a82c40 S ___set___sysctl_set_sym_sysctl__net_inet_tcp_fastopen_backlog
ffffff8000a82c30 S ___set___sysctl_set_sym_sysctl__net_inet_tcp_fastopen_fallback_min
ffffff8000a82c48 S ___set___sysctl_set_sym_sysctl__net_inet_tcp_fastopen_key
ffffff8000a82c00 S ___set___sysctl_set_sym_sysctl__net_inet_tcp_icmp_may_rst
ffffff8000a82cd0 S ___set___sysctl_set_sym_sysctl__net_inet_tcp_info
ffffff8000a82c98 S ___set___sysctl_set_sym_sysctl__net_inet_tcp_keepcnt
ffffff8000a82ca8 S ___set___sysctl_set_sym_sysctl__net_inet_tcp_keepidle
ffffff8000a82cb0 S ___set___sysctl_set_sym_sysctl__net_inet_tcp_keepinit
ffffff8000a82ca0 S ___set___sysctl_set_sym_sysctl__net_inet_tcp_keepintvl
ffffff8000a82b10 S ___set___sysctl_set_sym_sysctl__net_inet_tcp_local_slowstart_flightsize
ffffff8000a82a58 S ___set___sysctl_set_sym_sysctl__net_inet_tcp_log_in_vain
ffffff8000a82ad0 S ___set___sysctl_set_sym_sysctl__net_inet_tcp_lro
ffffff8000a82ae0 S ___set___sysctl_set_sym_sysctl__net_inet_tcp_lro_startcnt
ffffff8000a82d18 S ___set___sysctl_set_sym_sysctl__net_inet_tcp_lro_sz
ffffff8000a82d20 S ___set___sysctl_set_sym_sysctl__net_inet_tcp_lro_time
ffffff8000a82ad8 S ___set___sysctl_set_sym_sysctl__net_inet_tcp_lrodbg
ffffff8000a82c88 S ___set___sysctl_set_sym_sysctl__net_inet_tcp_max_persist_timeout
ffffff8000a82aa0 S ___set___sysctl_set_sym_sysctl__net_inet_tcp_maxseg_unacked
ffffff8000a82b60 S ___set___sysctl_set_sym_sysctl__net_inet_tcp_min_iaj_win
ffffff8000a82c28 S ___set___sysctl_set_sym_sysctl__net_inet_tcp_minmss
ffffff8000a82c90 S ___set___sysctl_set_sym_sysctl__net_inet_tcp_msl
ffffff8000a82bb0 S ___set___sysctl_set_sym_sysctl__net_inet_tcp_mssdflt
ffffff8000a82ce0 S ___set___sysctl_set_sym_sysctl__net_inet_tcp_newreno_sockets
ffffff8000a82b78 S ___set___sysctl_set_sym_sysctl__net_inet_tcp_packetchain
ffffff8000a82b00 S ___set___sysctl_set_sym_sysctl__net_inet_tcp_path_mtu_discovery
ffffff8000a82c10 S ___set___sysctl_set_sym_sysctl__net_inet_tcp_pcbcount
ffffff8000a82bd0 S ___set___sysctl_set_sym_sysctl__net_inet_tcp_pcblist
ffffff8000a82bc8 S ___set___sysctl_set_sym_sysctl__net_inet_tcp_pcblist64
ffffff8000a82bc0 S ___set___sysctl_set_sym_sysctl__net_inet_tcp_pcblist_n
ffffff8000a82c58 S ___set___sysctl_set_sym_sysctl__net_inet_tcp_pmtud_blackhole_detection
ffffff8000a82c50 S ___set___sysctl_set_sym_sysctl__net_inet_tcp_pmtud_blackhole_mss
ffffff8000a82cb8 S ___set___sysctl_set_sym_sysctl__net_inet_tcp_preconn_sbsz
ffffff8000a82be8 S ___set___sysctl_set_sym_sysctl__net_inet_tcp_randomize_ports
ffffff8000a82ae8 S ___set___sysctl_set_sym_sysctl__net_inet_tcp_rcvsspktcnt
ffffff8000a82a88 S ___set___sysctl_set_sym_sysctl__net_inet_tcp_reass
ffffff8000a82a90 S ___set___sysctl_set_sym_sysctl__net_inet_tcp_reass_overflows
ffffff8000a82ab8 S ___set___sysctl_set_sym_sysctl__net_inet_tcp_recv_allowed_iaj
ffffff8000a82b28 S ___set___sysctl_set_sym_sysctl__net_inet_tcp_recv_throttle_minwin
ffffff8000a82a78 S ___set___sysctl_set_sym_sysctl__net_inet_tcp_recvbg
ffffff8000a82cc0 S ___set___sysctl_set_sym_sysctl__net_inet_tcp_recvspace
ffffff8000a82bf0 S ___set___sysctl_set_sym_sysctl__net_inet_tcp_rexmt_slop
ffffff8000a82af0 S ___set___sysctl_set_sym_sysctl__net_inet_tcp_rexmt_thresh
ffffff8000a82c20 S ___set___sysctl_set_sym_sysctl__net_inet_tcp_rfc1644
ffffff8000a82b68 S ___set___sysctl_set_sym_sysctl__net_inet_tcp_rfc3390
ffffff8000a82aa8 S ___set___sysctl_set_sym_sysctl__net_inet_tcp_rfc3465
ffffff8000a82ab0 S ___set___sysctl_set_sym_sysctl__net_inet_tcp_rfc3465_lim2
ffffff8000a82bf8 S ___set___sysctl_set_sym_sysctl__net_inet_tcp_rtt_min
ffffff8000a82b30 S ___set___sysctl_set_sym_sysctl__net_inet_tcp_rtt_recvbg
ffffff8000a82b90 S ___set___sysctl_set_sym_sysctl__net_inet_tcp_sack
ffffff8000a82ba8 S ___set___sysctl_set_sym_sysctl__net_inet_tcp_sack_globalholes
ffffff8000a82ba0 S ___set___sysctl_set_sym_sysctl__net_inet_tcp_sack_globalmaxholes
ffffff8000a82b98 S ___set___sysctl_set_sym_sysctl__net_inet_tcp_sack_maxholes
ffffff8000a82cc8 S ___set___sysctl_set_sym_sysctl__net_inet_tcp_sendspace
ffffff8000a82a98 S ___set___sysctl_set_sym_sysctl__net_inet_tcp_slowlink_wsize
ffffff8000a82b08 S ___set___sysctl_set_sym_sysctl__net_inet_tcp_slowstart_flightsize
ffffff8000a82b70 S ___set___sysctl_set_sym_sysctl__net_inet_tcp_socket_unlocked_on_output
ffffff8000a82af8 S ___set___sysctl_set_sym_sysctl__net_inet_tcp_stats
ffffff8000a82bd8 S ___set___sysctl_set_sym_sysctl__net_inet_tcp_tcbhashsize
ffffff8000a82a70 S ___set___sysctl_set_sym_sysctl__net_inet_tcp_tcp_lq_overflow
ffffff8000a82c60 S ___set___sysctl_set_sym_sysctl__net_inet_tcp_tcp_resched_timerlist
ffffff8000a82c68 S ___set___sysctl_set_sym_sysctl__net_inet_tcp_tcp_timer_advanced
ffffff8000a82c78 S ___set___sysctl_set_sym_sysctl__net_inet_tcp_timer_fastmode_idlemax
ffffff8000a82b18 S ___set___sysctl_set_sym_sysctl__net_inet_tcp_tso
ffffff8000a82c08 S ___set___sysctl_set_sym_sysctl__net_inet_tcp_tw_pcbcount
ffffff8000a82cf8 S ___set___sysctl_set_sym_sysctl__net_inet_tcp_use_newreno
ffffff8000a82bb8 S ___set___sysctl_set_sym_sysctl__net_inet_tcp_v6mssdflt
ffffff8000a82be0 S ___set___sysctl_set_sym_sysctl__net_inet_tcp_win_scale_factor
ffffff8000a827b0 S ___set___sysctl_set_sym_sysctl__net_inet_udp
ffffff8000a82d58 S ___set___sysctl_set_sym_sysctl__net_inet_udp_blackhole
ffffff8000a82d48 S ___set___sysctl_set_sym_sysctl__net_inet_udp_checksum
ffffff8000a82d50 S ___set___sysctl_set_sym_sysctl__net_inet_udp_log_in_vain
ffffff8000a82d60 S ___set___sysctl_set_sym_sysctl__net_inet_udp_maxdgram
ffffff8000a82d90 S ___set___sysctl_set_sym_sysctl__net_inet_udp_pcbcount
ffffff8000a82d80 S ___set___sysctl_set_sym_sysctl__net_inet_udp_pcblist
ffffff8000a82d78 S ___set___sysctl_set_sym_sysctl__net_inet_udp_pcblist64
ffffff8000a82d70 S ___set___sysctl_set_sym_sysctl__net_inet_udp_pcblist_n
ffffff8000a82d88 S ___set___sysctl_set_sym_sysctl__net_inet_udp_randomize_ports
ffffff8000a82d68 S ___set___sysctl_set_sym_sysctl__net_inet_udp_recvspace
ffffff8000a82d98 S ___set___sysctl_set_sym_sysctl__net_inet_udp_stats
ffffff8000a832d0 S ___set___sysctl_set_sym_sysctl__net_key
ffffff8000a832b0 S ___set___sysctl_set_sym_sysctl__net_key_ah_keymin
ffffff8000a83290 S ___set___sysctl_set_sym_sysctl__net_key_blockacq_count
ffffff8000a83298 S ___set___sysctl_set_sym_sysctl__net_key_blockacq_lifetime
ffffff8000a83260 S ___set___sysctl_set_sym_sysctl__net_key_debug
ffffff8000a832a0 S ___set___sysctl_set_sym_sysctl__net_key_esp_auth
ffffff8000a832a8 S ___set___sysctl_set_sym_sysctl__net_key_esp_keymin
ffffff8000a83280 S ___set___sysctl_set_sym_sysctl__net_key_int_random
ffffff8000a83288 S ___set___sysctl_set_sym_sysctl__net_key_larval_lifetime
ffffff8000a832c0 S ___set___sysctl_set_sym_sysctl__net_key_natt_keepalive_interval
ffffff8000a832c8 S ___set___sysctl_set_sym_sysctl__net_key_pfkeystat
ffffff8000a832b8 S ___set___sysctl_set_sym_sysctl__net_key_prefered_oldsa
ffffff8000a83278 S ___set___sysctl_set_sym_sysctl__net_key_spi_maxval
ffffff8000a83270 S ___set___sysctl_set_sym_sysctl__net_key_spi_minval
ffffff8000a83268 S ___set___sysctl_set_sym_sysctl__net_key_spi_trycnt
ffffff8000a822b8 S ___set___sysctl_set_sym_sysctl__net_link
ffffff8000a82280 S ___set___sysctl_set_sym_sysctl__net_link_bridge
ffffff8000a822b0 S ___set___sysctl_set_sym_sysctl__net_link_bridge_debug
ffffff8000a822a0 S ___set___sysctl_set_sym_sysctl__net_link_bridge_hostfilterstats
ffffff8000a82288 S ___set___sysctl_set_sym_sysctl__net_link_bridge_inherit_mac
ffffff8000a82298 S ___set___sysctl_set_sym_sysctl__net_link_bridge_rtable_hash_size_max
ffffff8000a82290 S ___set___sysctl_set_sym_sysctl__net_link_bridge_rtable_prune_period
ffffff8000a822a8 S ___set___sysctl_set_sym_sysctl__net_link_bridge_txstart
ffffff8000a82408 S ___set___sysctl_set_sym_sysctl__net_link_ether
ffffff8000a826a0 S ___set___sysctl_set_sym_sysctl__net_link_ether_inet
ffffff8000a82710 S ___set___sysctl_set_sym_sysctl__net_link_ether_inet_apple_hwcksum_rx
ffffff8000a82718 S ___set___sysctl_set_sym_sysctl__net_link_ether_inet_apple_hwcksum_tx
ffffff8000a826c0 S ___set___sysctl_set_sym_sysctl__net_link_ether_inet_arp_llreach_base
ffffff8000a826c8 S ___set___sysctl_set_sym_sysctl__net_link_ether_inet_arp_unicast_lim
ffffff8000a826b8 S ___set___sysctl_set_sym_sysctl__net_link_ether_inet_host_down_time
ffffff8000a826f8 S ___set___sysctl_set_sym_sysctl__net_link_ether_inet_keep_announcements
ffffff8000a826f0 S ___set___sysctl_set_sym_sysctl__net_link_ether_inet_log_arp_warnings
ffffff8000a826b0 S ___set___sysctl_set_sym_sysctl__net_link_ether_inet_max_age
ffffff8000a826d0 S ___set___sysctl_set_sym_sysctl__net_link_ether_inet_maxtries
ffffff8000a826e0 S ___set___sysctl_set_sym_sysctl__net_link_ether_inet_proxyall
ffffff8000a826a8 S ___set___sysctl_set_sym_sysctl__net_link_ether_inet_prune_intvl
ffffff8000a82700 S ___set___sysctl_set_sym_sysctl__net_link_ether_inet_send_conflicting_probes
ffffff8000a826e8 S ___set___sysctl_set_sym_sysctl__net_link_ether_inet_sendllconflict
ffffff8000a82720 S ___set___sysctl_set_sym_sysctl__net_link_ether_inet_stats
ffffff8000a826d8 S ___set___sysctl_set_sym_sysctl__net_link_ether_inet_useloopback
ffffff8000a82708 S ___set___sysctl_set_sym_sysctl__net_link_ether_inet_verbose
ffffff8000a822c0 S ___set___sysctl_set_sym_sysctl__net_link_generic
ffffff8000a82450 S ___set___sysctl_set_sym_sysctl__net_link_generic_ifalldata
ffffff8000a82458 S ___set___sysctl_set_sym_sysctl__net_link_generic_ifdata
ffffff8000a82440 S ___set___sysctl_set_sym_sysctl__net_link_generic_system
ffffff8000a82380 S ___set___sysctl_set_sym_sysctl__net_link_generic_system_delaybased_queue
ffffff8000a82390 S ___set___sysctl_set_sym_sysctl__net_link_generic_system_dlil_input_sanity_check
ffffff8000a82398 S ___set___sysctl_set_sym_sysctl__net_link_generic_system_dlil_input_threads
ffffff8000a822d0 S ___set___sysctl_set_sym_sysctl__net_link_generic_system_dlil_lladdr_ckreq
ffffff8000a822d8 S ___set___sysctl_set_sym_sysctl__net_link_generic_system_dlil_verbose
ffffff8000a82388 S ___set___sysctl_set_sym_sysctl__net_link_generic_system_flow_advisory
ffffff8000a822e0 S ___set___sysctl_set_sym_sysctl__net_link_generic_system_get_ports_used
ffffff8000a82370 S ___set___sysctl_set_sym_sysctl__net_link_generic_system_hwcksum_dbg
ffffff8000a82318 S ___set___sysctl_set_sym_sysctl__net_link_generic_system_hwcksum_dbg_adjusted
ffffff8000a82328 S ___set___sysctl_set_sym_sysctl__net_link_generic_system_hwcksum_dbg_bad_cksum
ffffff8000a82320 S ___set___sysctl_set_sym_sysctl__net_link_generic_system_hwcksum_dbg_bad_rxoff
ffffff8000a82308 S ___set___sysctl_set_sym_sysctl__net_link_generic_system_hwcksum_dbg_finalized_data
ffffff8000a82310 S ___set___sysctl_set_sym_sysctl__net_link_generic_system_hwcksum_dbg_finalized_hdr
ffffff8000a82358 S ___set___sysctl_set_sym_sysctl__net_link_generic_system_hwcksum_dbg_mode
ffffff8000a82350 S ___set___sysctl_set_sym_sysctl__net_link_generic_system_hwcksum_dbg_partial_forced
ffffff8000a82348 S ___set___sysctl_set_sym_sysctl__net_link_generic_system_hwcksum_dbg_partial_forced_bytes
ffffff8000a82338 S ___set___sysctl_set_sym_sysctl__net_link_generic_system_hwcksum_dbg_partial_rxoff_adj
ffffff8000a82340 S ___set___sysctl_set_sym_sysctl__net_link_generic_system_hwcksum_dbg_partial_rxoff_forced
ffffff8000a82330 S ___set___sysctl_set_sym_sysctl__net_link_generic_system_hwcksum_dbg_verified
ffffff8000a82378 S ___set___sysctl_set_sym_sysctl__net_link_generic_system_hwcksum_in_invalidated
ffffff8000a822f8 S ___set___sysctl_set_sym_sysctl__net_link_generic_system_hwcksum_rx
ffffff8000a82300 S ___set___sysctl_set_sym_sysctl__net_link_generic_system_hwcksum_tx
ffffff8000a823a0 S ___set___sysctl_set_sym_sysctl__net_link_generic_system_if_bw_measure_size
ffffff8000a823a8 S ___set___sysctl_set_sym_sysctl__net_link_generic_system_if_bw_smoothing_val
ffffff8000a824b8 S ___set___sysctl_set_sym_sysctl__net_link_generic_system_if_family_ids
ffffff8000a822c8 S ___set___sysctl_set_sym_sysctl__net_link_generic_system_if_verbose
ffffff8000a82448 S ___set___sysctl_set_sym_sysctl__net_link_generic_system_ifcount
ffffff8000a82560 S ___set___sysctl_set_sym_sysctl__net_link_generic_system_llreach_info
ffffff8000a823f8 S ___set___sysctl_set_sym_sysctl__net_link_generic_system_rcvq_maxlen
ffffff8000a823b0 S ___set___sysctl_set_sym_sysctl__net_link_generic_system_rxpoll
ffffff8000a823f0 S ___set___sysctl_set_sym_sysctl__net_link_generic_system_rxpoll_decay
ffffff8000a823e8 S ___set___sysctl_set_sym_sysctl__net_link_generic_system_rxpoll_freeze_time
ffffff8000a823d0 S ___set___sysctl_set_sym_sysctl__net_link_generic_system_rxpoll_interval_pkts
ffffff8000a823d8 S ___set___sysctl_set_sym_sysctl__net_link_generic_system_rxpoll_interval_time
ffffff8000a823b8 S ___set___sysctl_set_sym_sysctl__net_link_generic_system_rxpoll_max
ffffff8000a823e0 S ___set___sysctl_set_sym_sysctl__net_link_generic_system_rxpoll_sample_time
ffffff8000a823c0 S ___set___sysctl_set_sym_sysctl__net_link_generic_system_rxpoll_wakeups_hiwat
ffffff8000a823c8 S ___set___sysctl_set_sym_sysctl__net_link_generic_system_rxpoll_wakeups_lowat
ffffff8000a82400 S ___set___sysctl_set_sym_sysctl__net_link_generic_system_sndq_maxlen
ffffff8000a82360 S ___set___sysctl_set_sym_sysctl__net_link_generic_system_start_delay_disabled
ffffff8000a82368 S ___set___sysctl_set_sym_sysctl__net_link_generic_system_start_delayed
ffffff8000a822e8 S ___set___sysctl_set_sym_sysctl__net_link_generic_system_tx_chain_len_count
ffffff8000a822f0 S ___set___sysctl_set_sym_sysctl__net_link_generic_system_tx_chain_len_stats
ffffff8000a82528 S ___set___sysctl_set_sym_sysctl__net_link_iptap
ffffff8000a82538 S ___set___sysctl_set_sym_sysctl__net_link_iptap_log
ffffff8000a82530 S ___set___sysctl_set_sym_sysctl__net_link_iptap_total_tap_count
ffffff8000a82410 S ___set___sysctl_set_sym_sysctl__net_link_loopback
ffffff8000a82420 S ___set___sysctl_set_sym_sysctl__net_link_loopback_bw_measure
ffffff8000a82418 S ___set___sysctl_set_sym_sysctl__net_link_loopback_bw_sleep_usec
ffffff8000a82428 S ___set___sysctl_set_sym_sysctl__net_link_loopback_dequeue_sc
ffffff8000a82438 S ___set___sysctl_set_sym_sysctl__net_link_loopback_max_dequeue
ffffff8000a82430 S ___set___sysctl_set_sym_sysctl__net_link_loopback_sched_model
ffffff8000a82540 S ___set___sysctl_set_sym_sysctl__net_link_pktap
ffffff8000a82550 S ___set___sysctl_set_sym_sysctl__net_link_pktap_count_unknown_if_type
ffffff8000a82558 S ___set___sysctl_set_sym_sysctl__net_link_pktap_log
ffffff8000a82548 S ___set___sysctl_set_sym_sysctl__net_link_pktap_total_tap_count
ffffff8000a83c50 S ___set___sysctl_set_sym_sysctl__net_local
ffffff8000a83c40 S ___set___sysctl_set_sym_sysctl__net_local_dgram
ffffff8000a83d88 S ___set___sysctl_set_sym_sysctl__net_local_dgram_maxdgram
ffffff8000a83d70 S ___set___sysctl_set_sym_sysctl__net_local_dgram_pcblist
ffffff8000a83d60 S ___set___sysctl_set_sym_sysctl__net_local_dgram_pcblist64
ffffff8000a83d80 S ___set___sysctl_set_sym_sysctl__net_local_dgram_recvspace
ffffff8000a83d78 S ___set___sysctl_set_sym_sysctl__net_local_inflight
ffffff8000a83c48 S ___set___sysctl_set_sym_sysctl__net_local_stream
ffffff8000a83d68 S ___set___sysctl_set_sym_sysctl__net_local_stream_pcblist
ffffff8000a83d58 S ___set___sysctl_set_sym_sysctl__net_local_stream_pcblist64
ffffff8000a83d98 S ___set___sysctl_set_sym_sysctl__net_local_stream_recvspace
ffffff8000a83da0 S ___set___sysctl_set_sym_sysctl__net_local_stream_sendspace
ffffff8000a83d90 S ___set___sysctl_set_sym_sysctl__net_local_stream_tracemdns
ffffff8000a82460 S ___set___sysctl_set_sym_sysctl__net_ndrv_multi_max_count
ffffff8000a824c0 S ___set___sysctl_set_sym_sysctl__net_necp
ffffff8000a824d8 S ___set___sysctl_set_sym_sysctl__net_necp_debug
ffffff8000a82500 S ___set___sysctl_set_sym_sysctl__net_necp_drop_all_level
ffffff8000a824e8 S ___set___sysctl_set_sym_sysctl__net_necp_ip_policy_count
ffffff8000a824d0 S ___set___sysctl_set_sym_sysctl__net_necp_pass_keepalives
ffffff8000a824c8 S ___set___sysctl_set_sym_sysctl__net_necp_pass_loopback
ffffff8000a824e0 S ___set___sysctl_set_sym_sysctl__net_necp_session_count
ffffff8000a824f0 S ___set___sysctl_set_sym_sysctl__net_necp_socket_non_app_policy_count
ffffff8000a824f8 S ___set___sysctl_set_sym_sysctl__net_necp_socket_policy_count
ffffff8000a82508 S ___set___sysctl_set_sym_sysctl__net_netagent
ffffff8000a82520 S ___set___sysctl_set_sym_sysctl__net_netagent_active_count
ffffff8000a82510 S ___set___sysctl_set_sym_sysctl__net_netagent_debug
ffffff8000a82518 S ___set___sysctl_set_sym_sysctl__net_netagent_registered_count
ffffff8000a825b8 S ___set___sysctl_set_sym_sysctl__net_pktmnglr
ffffff8000a825c0 S ___set___sysctl_set_sym_sysctl__net_pktmnglr_log
ffffff8000a82628 S ___set___sysctl_set_sym_sysctl__net_pktsched
ffffff8000a82630 S ___set___sysctl_set_sym_sysctl__net_pktsched_verbose
ffffff8000a82470 S ___set___sysctl_set_sym_sysctl__net_route
ffffff8000a82468 S ___set___sysctl_set_sym_sysctl__net_route_verbose
ffffff8000a82478 S ___set___sysctl_set_sym_sysctl__net_routetable
ffffff8000a82480 S ___set___sysctl_set_sym_sysctl__net_statistics
ffffff8000a82488 S ___set___sysctl_set_sym_sysctl__net_statistics_privcheck
ffffff8000a82490 S ___set___sysctl_set_sym_sysctl__net_stats
ffffff8000a82498 S ___set___sysctl_set_sym_sysctl__net_stats_debug
ffffff8000a824a8 S ___set___sysctl_set_sym_sysctl__net_stats_recvspace
ffffff8000a824a0 S ___set___sysctl_set_sym_sysctl__net_stats_sendspace
ffffff8000a824b0 S ___set___sysctl_set_sym_sysctl__net_stats_stats
ffffff8000a83b98 S ___set___sysctl_set_sym_sysctl__net_systm
ffffff8000a83398 S ___set___sysctl_set_sym_sysctl__net_systm_kctl
ffffff8000a833a8 S ___set___sysctl_set_sym_sysctl__net_systm_kctl_autorcvbufhigh
ffffff8000a833b0 S ___set___sysctl_set_sym_sysctl__net_systm_kctl_autorcvbufmax
ffffff8000a833a0 S ___set___sysctl_set_sym_sysctl__net_systm_kctl_debug
ffffff8000a833b8 S ___set___sysctl_set_sym_sysctl__net_systm_kctl_pcblist
ffffff8000a833c0 S ___set___sysctl_set_sym_sysctl__net_systm_kctl_reg_list
ffffff8000a833c8 S ___set___sysctl_set_sym_sysctl__net_systm_kctl_stats
ffffff8000a83380 S ___set___sysctl_set_sym_sysctl__net_systm_kevt
ffffff8000a83388 S ___set___sysctl_set_sym_sysctl__net_systm_kevt_pcblist
ffffff8000a83390 S ___set___sysctl_set_sym_sysctl__net_systm_kevt_stats
ffffff8000a845f8 S ___set___sysctl_set_sym_sysctl__security
ffffff8000a84600 S ___set___sysctl_set_sym_sysctl__security_mac
ffffff8000a84628 S ___set___sysctl_set_sym_sysctl__security_mac_device_enforce
ffffff8000a84610 S ___set___sysctl_set_sym_sysctl__security_mac_labelvnodes
ffffff8000a84608 S ___set___sysctl_set_sym_sysctl__security_mac_max_slots
ffffff8000a84618 S ___set___sysctl_set_sym_sysctl__security_mac_mmap_revocation
ffffff8000a84620 S ___set___sysctl_set_sym_sysctl__security_mac_mmap_revocation_via_cow
ffffff8000a84630 S ___set___sysctl_set_sym_sysctl__security_mac_pipe_enforce
ffffff8000a84638 S ___set___sysctl_set_sym_sysctl__security_mac_posixsem_enforce
ffffff8000a84640 S ___set___sysctl_set_sym_sysctl__security_mac_posixshm_enforce
ffffff8000a84648 S ___set___sysctl_set_sym_sysctl__security_mac_proc_enforce
ffffff8000a84650 S ___set___sysctl_set_sym_sysctl__security_mac_socket_enforce
ffffff8000a84658 S ___set___sysctl_set_sym_sysctl__security_mac_system_enforce
ffffff8000a84660 S ___set___sysctl_set_sym_sysctl__security_mac_sysvmsg_enforce
ffffff8000a84668 S ___set___sysctl_set_sym_sysctl__security_mac_sysvsem_enforce
ffffff8000a84670 S ___set___sysctl_set_sym_sysctl__security_mac_sysvshm_enforce
ffffff8000a84678 S ___set___sysctl_set_sym_sysctl__security_mac_vm_enforce
ffffff8000a84680 S ___set___sysctl_set_sym_sysctl__security_mac_vnode_enforce
ffffff8000a83910 S ___set___sysctl_set_sym_sysctl__sysctl
ffffff8000a838e0 S ___set___sysctl_set_sym_sysctl__sysctl_debug
ffffff8000a838d8 S ___set___sysctl_set_sym_sysctl__sysctl_name
ffffff8000a838c8 S ___set___sysctl_set_sym_sysctl__sysctl_name2oid
ffffff8000a838d0 S ___set___sysctl_set_sym_sysctl__sysctl_next
ffffff8000a838c0 S ___set___sysctl_set_sym_sysctl__sysctl_oidfmt
ffffff8000a83608 S ___set___sysctl_set_sym_sysctl__sysctl_proc_cputype
ffffff8000a83610 S ___set___sysctl_set_sym_sysctl__sysctl_proc_native
ffffff8000a83950 S ___set___sysctl_set_sym_sysctl__user
ffffff8000a83928 S ___set___sysctl_set_sym_sysctl__vfs
ffffff8000a821e0 S ___set___sysctl_set_sym_sysctl__vfs_generic
ffffff8000a832e8 S ___set___sysctl_set_sym_sysctl__vfs_generic_always_do_fullfsync
ffffff8000a821b0 S ___set___sysctl_set_sym_sysctl__vfs_generic_conf
ffffff8000a821d0 S ___set___sysctl_set_sym_sysctl__vfs_generic_ctlbyfsid
ffffff8000a832f0 S ___set___sysctl_set_sym_sysctl__vfs_generic_hfs
ffffff8000a832f8 S ___set___sysctl_set_sym_sysctl__vfs_generic_hfs_kdebug
ffffff8000a83300 S ___set___sysctl_set_sym_sysctl__vfs_generic_hfs_kdebug_allocation
ffffff8000a821e8 S ___set___sysctl_set_sym_sysctl__vfs_generic_jnl
ffffff8000a821f0 S ___set___sysctl_set_sym_sysctl__vfs_generic_jnl_kdebug
ffffff8000a821f8 S ___set___sysctl_set_sym_sysctl__vfs_generic_jnl_kdebug_trim
ffffff8000a821c0 S ___set___sysctl_set_sym_sysctl__vfs_generic_maxtypenum
ffffff8000a82040 S ___set___sysctl_set_sym_sysctl__vfs_generic_nfs
ffffff8000a82048 S ___set___sysctl_set_sym_sysctl__vfs_generic_nfs_client
ffffff8000a82068 S ___set___sysctl_set_sym_sysctl__vfs_generic_nfs_client_access_cache_timeout
ffffff8000a820a8 S ___set___sysctl_set_sym_sysctl__vfs_generic_nfs_client_access_delete
ffffff8000a820b0 S ___set___sysctl_set_sym_sysctl__vfs_generic_nfs_client_access_dotzfs
ffffff8000a820b8 S ___set___sysctl_set_sym_sysctl__vfs_generic_nfs_client_access_for_getattr
ffffff8000a82070 S ___set___sysctl_set_sym_sysctl__vfs_generic_nfs_client_allow_async
ffffff8000a820c8 S ___set___sysctl_set_sym_sysctl__vfs_generic_nfs_client_callback_port
ffffff8000a820e0 S ___set___sysctl_set_sym_sysctl__vfs_generic_nfs_client_debug_ctl
ffffff8000a820c0 S ___set___sysctl_set_sym_sysctl__vfs_generic_nfs_client_idmap_ctrl
ffffff8000a82050 S ___set___sysctl_set_sym_sysctl__vfs_generic_nfs_client_initialdowndelay
ffffff8000a82060 S ___set___sysctl_set_sym_sysctl__vfs_generic_nfs_client_iosize
ffffff8000a820d0 S ___set___sysctl_set_sym_sysctl__vfs_generic_nfs_client_is_mobile
ffffff8000a82090 S ___set___sysctl_set_sym_sysctl__vfs_generic_nfs_client_lockd_mounts
ffffff8000a82098 S ___set___sysctl_set_sym_sysctl__vfs_generic_nfs_client_max_async_writes
ffffff8000a82058 S ___set___sysctl_set_sym_sysctl__vfs_generic_nfs_client_nextdowndelay
ffffff8000a82088 S ___set___sysctl_set_sym_sysctl__vfs_generic_nfs_client_nfsiod_thread_count
ffffff8000a82080 S ___set___sysctl_set_sym_sysctl__vfs_generic_nfs_client_nfsiod_thread_max
ffffff8000a820e8 S ___set___sysctl_set_sym_sysctl__vfs_generic_nfs_client_readlink_nocache
ffffff8000a820f0 S ___set___sysctl_set_sym_sysctl__vfs_generic_nfs_client_root_steals_gss_context
ffffff8000a820a0 S ___set___sysctl_set_sym_sysctl__vfs_generic_nfs_client_single_des
ffffff8000a820d8 S ___set___sysctl_set_sym_sysctl__vfs_generic_nfs_client_squishy_flags
ffffff8000a82078 S ___set___sysctl_set_sym_sysctl__vfs_generic_nfs_client_statfs_rate_limit
ffffff8000a820f8 S ___set___sysctl_set_sym_sysctl__vfs_generic_nfs_server
ffffff8000a82118 S ___set___sysctl_set_sym_sysctl__vfs_generic_nfs_server_async
ffffff8000a82120 S ___set___sysctl_set_sym_sysctl__vfs_generic_nfs_server_export_hash_size
ffffff8000a82148 S ___set___sysctl_set_sym_sysctl__vfs_generic_nfs_server_fsevents
ffffff8000a82140 S ___set___sysctl_set_sym_sysctl__vfs_generic_nfs_server_gss_context_ttl
ffffff8000a82160 S ___set___sysctl_set_sym_sysctl__vfs_generic_nfs_server_nfsd_sock_idle_timeout
ffffff8000a82168 S ___set___sysctl_set_sym_sysctl__vfs_generic_nfs_server_nfsd_tcp_connections
ffffff8000a82158 S ___set___sysctl_set_sym_sysctl__vfs_generic_nfs_server_nfsd_thread_count
ffffff8000a82150 S ___set___sysctl_set_sym_sysctl__vfs_generic_nfs_server_nfsd_thread_max
ffffff8000a82128 S ___set___sysctl_set_sym_sysctl__vfs_generic_nfs_server_reqcache_size
ffffff8000a82130 S ___set___sysctl_set_sym_sysctl__vfs_generic_nfs_server_request_queue_length
ffffff8000a82110 S ___set___sysctl_set_sym_sysctl__vfs_generic_nfs_server_require_resv_port
ffffff8000a82188 S ___set___sysctl_set_sym_sysctl__vfs_generic_nfs_server_upcall_queue_count
ffffff8000a82178 S ___set___sysctl_set_sym_sysctl__vfs_generic_nfs_server_upcall_queue_limit
ffffff8000a82180 S ___set___sysctl_set_sym_sysctl__vfs_generic_nfs_server_upcall_queue_max_seen
ffffff8000a82170 S ___set___sysctl_set_sym_sysctl__vfs_generic_nfs_server_use_upcall_svc
ffffff8000a82138 S ___set___sysctl_set_sym_sysctl__vfs_generic_nfs_server_user_stats
ffffff8000a82100 S ___set___sysctl_set_sym_sysctl__vfs_generic_nfs_server_wg_delay
ffffff8000a82108 S ___set___sysctl_set_sym_sysctl__vfs_generic_nfs_server_wg_delay_v3
ffffff8000a821c8 S ___set___sysctl_set_sym_sysctl__vfs_generic_noremotehang
ffffff8000a832e0 S ___set___sysctl_set_sym_sysctl__vfs_generic_root_unmounted_cleanly
ffffff8000a821b8 S ___set___sysctl_set_sym_sysctl__vfs_generic_sync_timeout
ffffff8000a821d8 S ___set___sysctl_set_sym_sysctl__vfs_generic_vfsidlist
ffffff8000a821a8 S ___set___sysctl_set_sym_sysctl__vfs_nummntops
ffffff8000a83920 S ___set___sysctl_set_sym_sysctl__vm
ffffff8000a83fc0 S ___set___sysctl_set_sym_sysctl__vm_all_reusable_calls
ffffff8000a83fa0 S ___set___sysctl_set_sym_sysctl__vm_all_reuse_calls
ffffff8000a83e98 S ___set___sysctl_set_sym_sysctl__vm_allow_data_exec
ffffff8000a83e90 S ___set___sysctl_set_sym_sysctl__vm_allow_stack_exec
ffffff8000a83f88 S ___set___sysctl_set_sym_sysctl__vm_can_reuse_failure
ffffff8000a83f90 S ___set___sysctl_set_sym_sysctl__vm_can_reuse_success
ffffff8000a83560 S ___set___sysctl_set_sym_sysctl__vm_compressor_available
ffffff8000a83580 S ___set___sysctl_set_sym_sysctl__vm_compressor_bytes_used
ffffff8000a83510 S ___set___sysctl_set_sym_sysctl__vm_compressor_catchup_threshold_divisor
ffffff8000a83588 S ___set___sysctl_set_sym_sysctl__vm_compressor_compressed_bytes
ffffff8000a83550 S ___set___sysctl_set_sym_sysctl__vm_compressor_eval_period_in_msecs
ffffff8000a83590 S ___set___sysctl_set_sym_sysctl__vm_compressor_input_bytes
ffffff8000a83570 S ___set___sysctl_set_sym_sysctl__vm_compressor_is_active
ffffff8000a83520 S ___set___sysctl_set_sym_sysctl__vm_compressor_majorcompact_threshold_divisor
ffffff8000a83528 S ___set___sysctl_set_sym_sysctl__vm_compressor_minorcompact_threshold_divisor
ffffff8000a83578 S ___set___sysctl_set_sym_sysctl__vm_compressor_mode
ffffff8000a83540 S ___set___sysctl_set_sym_sysctl__vm_compressor_sample_max_in_msecs
ffffff8000a83548 S ___set___sysctl_set_sym_sysctl__vm_compressor_sample_min_in_msecs
ffffff8000a83568 S ___set___sysctl_set_sym_sysctl__vm_compressor_swapout_target_age
ffffff8000a83530 S ___set___sysctl_set_sym_sysctl__vm_compressor_thrashing_min_per_10msecs
ffffff8000a83538 S ___set___sysctl_set_sym_sysctl__vm_compressor_thrashing_threshold_per_10msecs
ffffff8000a83518 S ___set___sysctl_set_sym_sysctl__vm_compressor_unthrottle_threshold_divisor
ffffff8000a83360 S ___set___sysctl_set_sym_sysctl__vm_cs_all_vnodes
ffffff8000a83bd0 S ___set___sysctl_set_sym_sysctl__vm_cs_blob_count
ffffff8000a83be0 S ___set___sysctl_set_sym_sysctl__vm_cs_blob_count_peak
ffffff8000a83bd8 S ___set___sysctl_set_sym_sysctl__vm_cs_blob_size
ffffff8000a83bf0 S ___set___sysctl_set_sym_sysctl__vm_cs_blob_size_max
ffffff8000a83be8 S ___set___sysctl_set_sym_sysctl__vm_cs_blob_size_peak
ffffff8000a83358 S ___set___sysctl_set_sym_sysctl__vm_cs_debug
ffffff8000a83368 S ___set___sysctl_set_sym_sysctl__vm_cs_enforcement
ffffff8000a83370 S ___set___sysctl_set_sym_sysctl__vm_cs_enforcement_panic
ffffff8000a83350 S ___set___sysctl_set_sym_sysctl__vm_cs_force_hard
ffffff8000a83348 S ___set___sysctl_set_sym_sysctl__vm_cs_force_kill
ffffff8000a83378 S ___set___sysctl_set_sym_sysctl__vm_cs_library_validation
ffffff8000a83ea8 S ___set___sysctl_set_sym_sysctl__vm_enforce_shared_cache_dir
ffffff8000a835d0 S ___set___sysctl_set_sym_sysctl__vm_global_no_user_wire_amount
ffffff8000a835c8 S ___set___sysctl_set_sym_sysctl__vm_global_user_wire_limit
ffffff8000a83630 S ___set___sysctl_set_sym_sysctl__vm_loadavg
ffffff8000a83fe8 S ___set___sysctl_set_sym_sysctl__vm_madvise_free_debug
ffffff8000a84010 S ___set___sysctl_set_sym_sysctl__vm_memory_pressure
ffffff8000a83f68 S ___set___sysctl_set_sym_sysctl__vm_page_cleaned_count
ffffff8000a83f78 S ___set___sysctl_set_sym_sysctl__vm_page_free_count
ffffff8000a84008 S ___set___sysctl_set_sym_sysctl__vm_page_free_wanted
ffffff8000a84000 S ___set___sysctl_set_sym_sysctl__vm_page_purgeable_count
ffffff8000a83ff8 S ___set___sysctl_set_sym_sysctl__vm_page_purgeable_wired_count
ffffff8000a83fe0 S ___set___sysctl_set_sym_sysctl__vm_page_reusable_count
ffffff8000a83f70 S ___set___sysctl_set_sym_sysctl__vm_page_speculative_count
ffffff8000a83f08 S ___set___sysctl_set_sym_sysctl__vm_pageout_cleaned
ffffff8000a83ed8 S ___set___sysctl_set_sym_sysctl__vm_pageout_cleaned_busy
ffffff8000a83ee0 S ___set___sysctl_set_sym_sysctl__vm_pageout_cleaned_commit_reactivated
ffffff8000a83ee8 S ___set___sysctl_set_sym_sysctl__vm_pageout_cleaned_fault_reactivated
ffffff8000a83ed0 S ___set___sysctl_set_sym_sysctl__vm_pageout_cleaned_nolock
ffffff8000a83f00 S ___set___sysctl_set_sym_sysctl__vm_pageout_cleaned_reactivated
ffffff8000a83ef8 S ___set___sysctl_set_sym_sysctl__vm_pageout_cleaned_reference_reactivated
ffffff8000a83ef0 S ___set___sysctl_set_sym_sysctl__vm_pageout_cleaned_volatile_reactivated
ffffff8000a83f20 S ___set___sysctl_set_sym_sysctl__vm_pageout_enqueued_cleaned
ffffff8000a83f18 S ___set___sysctl_set_sym_sysctl__vm_pageout_enqueued_cleaned_from_inactive_clean
ffffff8000a83f10 S ___set___sysctl_set_sym_sysctl__vm_pageout_enqueued_cleaned_from_inactive_dirty
ffffff8000a83f28 S ___set___sysctl_set_sym_sysctl__vm_pageout_freed_from_cleaned
ffffff8000a83f38 S ___set___sysctl_set_sym_sysctl__vm_pageout_freed_from_inactive_clean
ffffff8000a83f30 S ___set___sysctl_set_sym_sysctl__vm_pageout_freed_from_speculative
ffffff8000a83f50 S ___set___sysctl_set_sym_sysctl__vm_pageout_inactive_clean
ffffff8000a83f58 S ___set___sysctl_set_sym_sysctl__vm_pageout_inactive_dirty_external
ffffff8000a83f60 S ___set___sysctl_set_sym_sysctl__vm_pageout_inactive_dirty_internal
ffffff8000a83f40 S ___set___sysctl_set_sym_sysctl__vm_pageout_inactive_used
ffffff8000a83ff0 S ___set___sysctl_set_sym_sysctl__vm_pageout_purged_objects
ffffff8000a83f48 S ___set___sysctl_set_sym_sysctl__vm_pageout_speculative_clean
ffffff8000a84020 S ___set___sysctl_set_sym_sysctl__vm_pagesize
ffffff8000a83fb8 S ___set___sysctl_set_sym_sysctl__vm_partial_reusable_calls
ffffff8000a83f98 S ___set___sysctl_set_sym_sysctl__vm_partial_reuse_calls
ffffff8000a83500 S ___set___sysctl_set_sym_sysctl__vm_phantom_cache_eval_period_in_msecs
ffffff8000a834f8 S ___set___sysctl_set_sym_sysctl__vm_phantom_cache_thrashing_threshold
ffffff8000a834f0 S ___set___sysctl_set_sym_sysctl__vm_phantom_cache_thrashing_threshold_ssd
ffffff8000a83ec0 S ___set___sysctl_set_sym_sysctl__vm_prefault_nb_bailout
ffffff8000a83ec8 S ___set___sysctl_set_sym_sysctl__vm_prefault_nb_pages
ffffff8000a83fd0 S ___set___sysctl_set_sym_sysctl__vm_reusable_failure
ffffff8000a83f80 S ___set___sysctl_set_sym_sysctl__vm_reusable_reclaimed
ffffff8000a83fc8 S ___set___sysctl_set_sym_sysctl__vm_reusable_shared
ffffff8000a83fd8 S ___set___sysctl_set_sym_sysctl__vm_reusable_success
ffffff8000a83fa8 S ___set___sysctl_set_sym_sysctl__vm_reuse_failure
ffffff8000a83fb0 S ___set___sysctl_set_sym_sysctl__vm_reuse_success
ffffff8000a84028 S ___set___sysctl_set_sym_sysctl__vm_shared_region_persistence
ffffff8000a84038 S ___set___sysctl_set_sym_sysctl__vm_shared_region_trace_level
ffffff8000a83ea0 S ___set___sysctl_set_sym_sysctl__vm_shared_region_unnest_logging
ffffff8000a84030 S ___set___sysctl_set_sym_sysctl__vm_shared_region_version
ffffff8000a83508 S ___set___sysctl_set_sym_sysctl__vm_swapfileprefix
ffffff8000a83620 S ___set___sysctl_set_sym_sysctl__vm_swapusage
ffffff8000a835c0 S ___set___sysctl_set_sym_sysctl__vm_user_wire_limit
ffffff8000a835a8 S ___set___sysctl_set_sym_sysctl__vm_vm_copy_src_large
ffffff8000a835b8 S ___set___sysctl_set_sym_sysctl__vm_vm_copy_src_not_internal
ffffff8000a835b0 S ___set___sysctl_set_sym_sysctl__vm_vm_copy_src_not_symmetric
ffffff8000a83e68 S ___set___sysctl_set_sym_sysctl__vm_vm_create_upl_extra_cow
ffffff8000a83e70 S ___set___sysctl_set_sym_sysctl__vm_vm_create_upl_extra_cow_pages
ffffff8000a83e80 S ___set___sysctl_set_sym_sysctl__vm_vm_create_upl_lookup_failure_copy
ffffff8000a83e78 S ___set___sysctl_set_sym_sysctl__vm_vm_create_upl_lookup_failure_write
ffffff8000a83e88 S ___set___sysctl_set_sym_sysctl__vm_vm_debug_events
ffffff8000a83e40 S ___set___sysctl_set_sym_sysctl__vm_vm_do_collapse_compressor
ffffff8000a83e48 S ___set___sysctl_set_sym_sysctl__vm_vm_do_collapse_compressor_pages
ffffff8000a83e50 S ___set___sysctl_set_sym_sysctl__vm_vm_do_collapse_terminate
ffffff8000a83e58 S ___set___sysctl_set_sym_sysctl__vm_vm_do_collapse_terminate_failure
ffffff8000a835a0 S ___set___sysctl_set_sym_sysctl__vm_vm_page_external_count
ffffff8000a83598 S ___set___sysctl_set_sym_sysctl__vm_vm_page_filecache_min
ffffff8000a84018 S ___set___sysctl_set_sym_sysctl__vm_vm_page_free_target
ffffff8000a83558 S ___set___sysctl_set_sym_sysctl__vm_vm_ripe_target_age_in_secs
ffffff8000a83e60 S ___set___sysctl_set_sym_sysctl__vm_vm_should_cow_but_wired
ffffff80007b25b0 T ___sigwait
ffffff80007b25f0 T ___sigwait_nocancel
ffffff80002ad370 T ___stack_chk_fail
ffffff8000a85070 S ___stack_chk_guard
ffffff800028fca0 T ___vmxoff
ffffff800028fc70 T ___vmxon
ffffff80005edba0 T __addq
ffffff80005edc20 T __addq_multi
ffffff80007576c0 T __audit_cv_broadcast
ffffff8000757670 T __audit_cv_destroy
ffffff8000757650 T __audit_cv_init
ffffff8000757690 T __audit_cv_signal
ffffff80007576f0 T __audit_cv_wait
ffffff8000757820 T __audit_cv_wait_continuation
ffffff8000757710 T __audit_cv_wait_sig
ffffff8000757630 T __audit_free
ffffff8000757ce0 T __audit_lck_grp_init
ffffff8000757580 T __audit_malloc
ffffff8000757790 T __audit_mtx_destroy
ffffff8000757730 T __audit_mtx_init
ffffff8000757c40 T __audit_ppsratecheck
ffffff8000757a20 T __audit_rlck_assert
ffffff80007579f0 T __audit_rlck_destroy
ffffff8000757900 T __audit_rlck_init
ffffff8000757970 T __audit_rlck_lock
ffffff80007579c0 T __audit_rlck_unlock
ffffff80007577f0 T __audit_rw_destroy
ffffff80007577c0 T __audit_rw_init
ffffff8000757bd0 T __audit_slck_assert
ffffff8000757c10 T __audit_slck_destroy
ffffff8000757a70 T __audit_slck_init
ffffff8000757ad0 T __audit_slck_lock
ffffff8000757b90 T __audit_slck_trylock
ffffff8000757b50 T __audit_slck_unlock
ffffff800028f9d0 T __bcopy
ffffff800028fa00 T __bcopy2
ffffff800028fa10 T __bcopy4
ffffff800028fa20 T __bcopy8
ffffff800028fa30 T __bcopystr
ffffff80002e0330 T __clock_delay_until_deadline
ffffff80002e01f0 T __clock_delay_until_deadline_with_leeway
ffffff80002f2940 T __consume_kprintf_args
ffffff80002e3e20 T __consume_panic_args
ffffff80002f2930 T __consume_printf_args
ffffff8000a9ae68 S __cpu_capabilities
ffffff800028f860 T __disable_preemption
ffffff800094f570 S __dist_code
ffffff80002f3b90 T __doprnt
ffffff80002f3bc0 T __doprnt_log
ffffff8000a8ab58 S __doprnt_truncates
ffffff8000298540 T __dtrace_close
ffffff8000298650 T __dtrace_ioctl
ffffff8000298320 T __dtrace_open
ffffff8000a30000 D __dtrace_probe$0536___boost____send_boost
ffffff8000a30320 D __dtrace_probe$1004892___fsinfo____pathconf
ffffff8000a30328 D __dtrace_probe$1014892___fsinfo____pathconf
ffffff8000a30050 D __dtrace_probe$102292___sched____off__cpu
ffffff8000a30330 D __dtrace_probe$1024892___fsinfo____pathconf
ffffff8000a30338 D __dtrace_probe$1034892___fsinfo____pathconf
ffffff8000a30340 D __dtrace_probe$1044892___fsinfo____pathconf
ffffff8000a30348 D __dtrace_probe$1053599___fsinfo____fsync
ffffff8000a30350 D __dtrace_probe$1063599___fsinfo____fsync
ffffff8000a30358 D __dtrace_probe$1074728___fsinfo____getattrlistbulk
ffffff8000a30360 D __dtrace_probe$1081262___io____start
ffffff8000a30368 D __dtrace_probe$1091315___io____start
ffffff8000a30370 D __dtrace_probe$1101356___fsinfo____strategy
ffffff8000a30378 D __dtrace_probe$1115293___fsinfo____blktooff
ffffff8000a30380 D __dtrace_probe$1121270___io____start
ffffff8000a30058 D __dtrace_probe$112316___sched____on__cpu
ffffff8000a30388 D __dtrace_probe$1131302___io____start
ffffff8000a30390 D __dtrace_probe$1141278___io____start
ffffff8000a30398 D __dtrace_probe$1151285___io____start
ffffff8000a303a0 D __dtrace_probe$1165404___fsinfo____strategy
ffffff8000a303a8 D __dtrace_probe$1173980___io____done
ffffff8000a303b0 D __dtrace_probe$1183879___io____wait__start
ffffff8000a303b8 D __dtrace_probe$1193881___io____wait__done
ffffff8000a303c0 D __dtrace_probe$1205423___fsinfo____bwrite
ffffff8000a303c8 D __dtrace_probe$1215423___fsinfo____bwrite
ffffff8000a303d0 D __dtrace_probe$1225423___fsinfo____bwrite
ffffff8000a30060 D __dtrace_probe$122871___sched____on__cpu
ffffff8000a303d8 D __dtrace_probe$1235423___fsinfo____bwrite
ffffff8000a303e0 D __dtrace_probe$1245423___fsinfo____bwrite
ffffff8000a303e8 D __dtrace_probe$1255404___fsinfo____strategy
ffffff8000a303f0 D __dtrace_probe$1265404___fsinfo____strategy
ffffff8000a303f8 D __dtrace_probe$1275404___fsinfo____strategy
ffffff8000a30400 D __dtrace_probe$1285423___fsinfo____bwrite
ffffff8000a30408 D __dtrace_probe$1295404___fsinfo____strategy
ffffff8000a30410 D __dtrace_probe$1301000___io____wait__start
ffffff8000a30418 D __dtrace_probe$1311002___io____wait__done
ffffff8000a30068 D __dtrace_probe$131739___boost____qos_set
ffffff8000a30420 D __dtrace_probe$1324781___fsinfo____readlink
ffffff8000a30428 D __dtrace_probe$1332836___fsinfo____lookup
ffffff8000a30430 D __dtrace_probe$1342836___fsinfo____lookup
ffffff8000a30438 D __dtrace_probe$1353299___fsinfo____read
ffffff8000a30440 D __dtrace_probe$1363299___fsinfo____read
ffffff8000a30448 D __dtrace_probe$1373299___fsinfo____read
ffffff8000a30450 D __dtrace_probe$1383599___fsinfo____fsync
ffffff8000a30458 D __dtrace_probe$1394852___fsinfo____reclaim
ffffff8000a30460 D __dtrace_probe$1403599___fsinfo____fsync
ffffff8000a30468 D __dtrace_probe$1413066___fsinfo____open
ffffff8000a30070 D __dtrace_probe$142394___boost____qos_add_override_pre
ffffff8000a30470 D __dtrace_probe$1424637___fsinfo____readdir
ffffff8000a30478 D __dtrace_probe$1434637___fsinfo____readdir
ffffff8000a30480 D __dtrace_probe$1443599___fsinfo____fsync
ffffff8000a30488 D __dtrace_probe$1453599___fsinfo____fsync
ffffff8000a30490 D __dtrace_probe$1464781___fsinfo____readlink
ffffff8000a30498 D __dtrace_probe$1473599___fsinfo____fsync
ffffff8000a304a0 D __dtrace_probe$1485180___fsinfo____copyfile
ffffff8000a304a8 D __dtrace_probe$1494892___fsinfo____pathconf
ffffff8000a304b0 D __dtrace_probe$1504637___fsinfo____readdir
ffffff8000a304b8 D __dtrace_probe$1514637___fsinfo____readdir
ffffff8000a304c0 D __dtrace_probe$1524637___fsinfo____readdir
ffffff8000a30078 D __dtrace_probe$152482___boost____qos_add_override_post
ffffff8000a304c8 D __dtrace_probe$1534637___fsinfo____readdir
ffffff8000a304d0 D __dtrace_probe$1543508___fsinfo____revoke
ffffff8000a304d8 D __dtrace_probe$1554685___fsinfo____readdirattr
ffffff8000a30008 D __dtrace_probe$1557___boost____drop_boost
ffffff8000a304e0 D __dtrace_probe$1565140___fsinfo____searchfs
ffffff8000a304e8 D __dtrace_probe$1573299___fsinfo____read
ffffff8000a304f0 D __dtrace_probe$1584953___fsinfo____advlock
ffffff8000a304f8 D __dtrace_probe$1595491___fsinfo____monitor
ffffff8000a30500 D __dtrace_probe$1605491___fsinfo____monitor
ffffff8000a30508 D __dtrace_probe$1613599___fsinfo____fsync
ffffff8000a30510 D __dtrace_probe$1623299___fsinfo____read
ffffff8000a30518 D __dtrace_probe$1634892___fsinfo____pathconf
ffffff8000a30080 D __dtrace_probe$163650___boost____boost
ffffff8000a30520 D __dtrace_probe$1644892___fsinfo____pathconf
ffffff8000a30528 D __dtrace_probe$1655199___fsinfo____getxattr
ffffff8000a30530 D __dtrace_probe$1663299___fsinfo____read
ffffff8000a30538 D __dtrace_probe$1673299___fsinfo____read
ffffff8000a30540 D __dtrace_probe$1683162___fsinfo____getattr
ffffff8000a30548 D __dtrace_probe$1693162___fsinfo____getattr
ffffff8000a30550 D __dtrace_probe$1703162___fsinfo____getattr
ffffff8000a30558 D __dtrace_probe$1713299___fsinfo____read
ffffff8000a30560 D __dtrace_probe$1723299___fsinfo____read
ffffff8000a30568 D __dtrace_probe$1733299___fsinfo____read
ffffff8000a30088 D __dtrace_probe$173652___boost____unboost
ffffff8000a30570 D __dtrace_probe$1745262___fsinfo____listxattr
ffffff8000a30578 D __dtrace_probe$1755541___fsinfo____getnamedstream
ffffff8000a30580 D __dtrace_probe$1763066___fsinfo____open
ffffff8000a30588 D __dtrace_probe$1773099___fsinfo____close
ffffff8000a30590 D __dtrace_probe$1783099___fsinfo____close
ffffff8000a30598 D __dtrace_probe$1793162___fsinfo____getattr
ffffff8000a305a0 D __dtrace_probe$1802836___fsinfo____lookup
ffffff8000a305a8 D __dtrace_probe$1813162___fsinfo____getattr
ffffff8000a305b0 D __dtrace_probe$1822836___fsinfo____lookup
ffffff8000a305b8 D __dtrace_probe$1832836___fsinfo____lookup
ffffff8000a30090 D __dtrace_probe$18423___proc____lwp__exit
ffffff8000a305c0 D __dtrace_probe$1843162___fsinfo____getattr
ffffff8000a305c8 D __dtrace_probe$1853162___fsinfo____getattr
ffffff8000a305d0 D __dtrace_probe$1865562___fsinfo____makenamedstream
ffffff8000a305d8 D __dtrace_probe$1875584___fsinfo____removenamedstream
ffffff8000a305e0 D __dtrace_probe$1883162___fsinfo____getattr
ffffff8000a305e8 D __dtrace_probe$1893066___fsinfo____open
ffffff8000a305f0 D __dtrace_probe$1903299___fsinfo____read
ffffff8000a30098 D __dtrace_probe$191063___proc____lwp__create
ffffff8000a305f8 D __dtrace_probe$1913099___fsinfo____close
ffffff8000a30600 D __dtrace_probe$1922836___fsinfo____lookup
ffffff8000a30608 D __dtrace_probe$1933162___fsinfo____getattr
ffffff8000a30610 D __dtrace_probe$1943162___fsinfo____getattr
ffffff8000a30618 D __dtrace_probe$1953192___fsinfo____setattr
ffffff8000a30620 D __dtrace_probe$1962836___fsinfo____lookup
ffffff8000a30628 D __dtrace_probe$1972899___fsinfo____compound_open
ffffff8000a30630 D __dtrace_probe$1982894___fsinfo____compound_open
ffffff8000a30638 D __dtrace_probe$1992896___fsinfo____compound_open
ffffff8000a30640 D __dtrace_probe$2003162___fsinfo____getattr
ffffff8000a30648 D __dtrace_probe$2013635___fsinfo____remove
ffffff8000a30650 D __dtrace_probe$2022958___fsinfo____create
ffffff8000a300a0 D __dtrace_probe$202649___proc____exec__success
ffffff8000a30658 D __dtrace_probe$2033030___fsinfo____mknod
ffffff8000a30660 D __dtrace_probe$2043066___fsinfo____open
ffffff8000a30668 D __dtrace_probe$2053099___fsinfo____close
ffffff8000a30670 D __dtrace_probe$2063132___fsinfo____access
ffffff8000a30678 D __dtrace_probe$2073299___fsinfo____read
ffffff8000a30680 D __dtrace_probe$2083340___fsinfo____write
ffffff8000a30688 D __dtrace_probe$2093401___fsinfo____ioctl
ffffff8000a30690 D __dtrace_probe$2103439___fsinfo____select
ffffff8000a30698 D __dtrace_probe$2113473___fsinfo____exchange
ffffff8000a306a0 D __dtrace_probe$2123508___fsinfo____revoke
ffffff8000a300a8 D __dtrace_probe$212651___proc____start
ffffff8000a30010 D __dtrace_probe$21286___boost____receive_boost
ffffff8000a306a8 D __dtrace_probe$2133539___fsinfo____mmap
ffffff8000a306b0 D __dtrace_probe$2143568___fsinfo____mnomap
ffffff8000a306b8 D __dtrace_probe$2153599___fsinfo____fsync
ffffff8000a306c0 D __dtrace_probe$2163675___fsinfo____compound_remove
ffffff8000a306c8 D __dtrace_probe$2173673___fsinfo____compound_remove
ffffff8000a306d0 D __dtrace_probe$2183675___fsinfo____compound_remove
ffffff8000a306d8 D __dtrace_probe$2193754___fsinfo____link
ffffff8000a306e0 D __dtrace_probe$2204135___fsinfo____compound_rename
ffffff8000a306e8 D __dtrace_probe$2214065___fsinfo____rename
ffffff8000a306f0 D __dtrace_probe$2224241___fsinfo____mkdir
ffffff8000a300b0 D __dtrace_probe$222653___proc____lwp__start
ffffff8000a306f8 D __dtrace_probe$2234278___fsinfo____compound_mkdir
ffffff8000a30700 D __dtrace_probe$2244241___fsinfo____mkdir
ffffff8000a30708 D __dtrace_probe$2254388___fsinfo____compound_rmdir
ffffff8000a30710 D __dtrace_probe$2264345___fsinfo____rmdir
ffffff8000a30718 D __dtrace_probe$2274585___fsinfo____symlink
ffffff8000a30720 D __dtrace_probe$2284637___fsinfo____readdir
ffffff8000a30728 D __dtrace_probe$2294685___fsinfo____readdirattr
ffffff8000a30730 D __dtrace_probe$2304728___fsinfo____getattrlistbulk
ffffff8000a300b8 D __dtrace_probe$231254___sdt____thread_timercallout__start
ffffff8000a30738 D __dtrace_probe$2314781___fsinfo____readlink
ffffff8000a30740 D __dtrace_probe$2324809___fsinfo____inactive
ffffff8000a30748 D __dtrace_probe$2334852___fsinfo____reclaim
ffffff8000a30750 D __dtrace_probe$2344892___fsinfo____pathconf
ffffff8000a30758 D __dtrace_probe$2354953___fsinfo____advlock
ffffff8000a30760 D __dtrace_probe$2364993___fsinfo____allocate
ffffff8000a30768 D __dtrace_probe$2375036___fsinfo____pagein
ffffff8000a30770 D __dtrace_probe$2385075___fsinfo____pageout
ffffff8000a30778 D __dtrace_probe$2395140___fsinfo____searchfs
ffffff8000a30780 D __dtrace_probe$2405180___fsinfo____copyfile
ffffff8000a300c0 D __dtrace_probe$241266___sdt____thread_timercallout__end
ffffff8000a30788 D __dtrace_probe$2415199___fsinfo____getxattr
ffffff8000a30790 D __dtrace_probe$2425218___fsinfo____setxattr
ffffff8000a30798 D __dtrace_probe$2435241___fsinfo____removexattr
ffffff8000a307a0 D __dtrace_probe$2445262___fsinfo____listxattr
ffffff8000a307a8 D __dtrace_probe$2455293___fsinfo____blktooff
ffffff8000a307b0 D __dtrace_probe$2465323___fsinfo____offtoblk
ffffff8000a307b8 D __dtrace_probe$2475367___fsinfo____blockmap
ffffff8000a307c0 D __dtrace_probe$2485404___fsinfo____strategy
ffffff8000a307c8 D __dtrace_probe$2495423___fsinfo____bwrite
ffffff8000a307d0 D __dtrace_probe$2505447___fsinfo____kqfilt_add
ffffff8000a307d8 D __dtrace_probe$2515472___fsinfo____kqfilt_remove
ffffff8000a307e0 D __dtrace_probe$2525491___fsinfo____monitor
ffffff8000a307e8 D __dtrace_probe$2535516___fsinfo____setlabel
ffffff8000a307f0 D __dtrace_probe$2545541___fsinfo____getnamedstream
ffffff8000a307f8 D __dtrace_probe$2555562___fsinfo____makenamedstream
ffffff8000a30800 D __dtrace_probe$2565584___fsinfo____removenamedstream
ffffff8000a30808 D __dtrace_probe$257426___io____journal__start
ffffff8000a30810 D __dtrace_probe$2585404___fsinfo____strategy
ffffff8000a30818 D __dtrace_probe$259431___io____journal__done
ffffff8000a300c8 D __dtrace_probe$25968___sdt____thread_timercallout__create
ffffff8000a30820 D __dtrace_probe$2605423___fsinfo____bwrite
ffffff8000a300d0 D __dtrace_probe$261015___sdt____thread_timercallout__cancel
ffffff8000a30828 D __dtrace_probe$2615293___fsinfo____blktooff
ffffff8000a30830 D __dtrace_probe$2625423___fsinfo____bwrite
ffffff8000a30838 D __dtrace_probe$2634637___fsinfo____readdir
ffffff8000a30840 D __dtrace_probe$2643599___fsinfo____fsync
ffffff8000a30848 D __dtrace_probe$2654030___ip____send
ffffff8000a30850 D __dtrace_probe$2664036___ip____send
ffffff8000a30858 D __dtrace_probe$267964___ip____receive
ffffff8000a30860 D __dtrace_probe$2681071___ip____receive
ffffff8000a30868 D __dtrace_probe$2691855___ip____receive
ffffff8000a30870 D __dtrace_probe$2701937___ip____receive
ffffff8000a30878 D __dtrace_probe$2711343___ip____send
ffffff8000a300d8 D __dtrace_probe$27118___proc____qos__remove
ffffff8000a30880 D __dtrace_probe$272549___tcp____iaj
ffffff8000a30888 D __dtrace_probe$2731844___tcp____receive
ffffff8000a30890 D __dtrace_probe$2741882___tcp____receive
ffffff8000a30898 D __dtrace_probe$2752484___tcp____state__change
ffffff8000a308a0 D __dtrace_probe$2763839___tcp____state__change
ffffff8000a308a8 D __dtrace_probe$2773347___tcp____state__change
ffffff8000a308b0 D __dtrace_probe$2783833___tcp____state__change
ffffff8000a308b8 D __dtrace_probe$2793294___tcp____state__change
ffffff8000a308c0 D __dtrace_probe$2803287___tcp____state__change
ffffff8000a300e0 D __dtrace_probe$28127___proc____qos__legacy__denied
ffffff8000a308c8 D __dtrace_probe$2813107___tcp____state__change
ffffff8000a308d0 D __dtrace_probe$2824502___tcp____state__change
ffffff8000a308d8 D __dtrace_probe$2834482___tcp____state__change
ffffff8000a308e0 D __dtrace_probe$2844810___tcp____state__change
ffffff8000a308e8 D __dtrace_probe$2854820___tcp____state__change
ffffff8000a308f0 D __dtrace_probe$2864833___tcp____state__change
ffffff8000a308f8 D __dtrace_probe$2872481___tcp____send
ffffff8000a30900 D __dtrace_probe$2882486___tcp____send
ffffff8000a30908 D __dtrace_probe$2891092___tcp____state__change
ffffff8000a30910 D __dtrace_probe$2901227___tcp____state__change
ffffff8000a30918 D __dtrace_probe$2911268___tcp____state__change
ffffff8000a300e8 D __dtrace_probe$29118___proc____qos__remove
ffffff8000a30920 D __dtrace_probe$2921092___tcp____state__change
ffffff8000a30928 D __dtrace_probe$293509___tcp____state__change
ffffff8000a30930 D __dtrace_probe$2942654___tcp____state__change
ffffff8000a30938 D __dtrace_probe$2952662___tcp____state__change
ffffff8000a30940 D __dtrace_probe$296275___tcp____cc
ffffff8000a30948 D __dtrace_probe$297204___mptcp____input
ffffff8000a30950 D __dtrace_probe$298323___mptcp____receive
ffffff8000a30958 D __dtrace_probe$299236___mptcp____receive__degraded
ffffff8000a30960 D __dtrace_probe$300399___mptcp____output
ffffff8000a300f0 D __dtrace_probe$30127___proc____qos__legacy__denied
ffffff8000a30968 D __dtrace_probe$301712___mptcp____state__change
ffffff8000a30970 D __dtrace_probe$302780___mptcp____state__change
ffffff8000a30978 D __dtrace_probe$3031041___mptcp____checksum__result
ffffff8000a30980 D __dtrace_probe$3041080___mptcp____checksum__result
ffffff8000a30988 D __dtrace_probe$3052925___mptcp____state__change
ffffff8000a30990 D __dtrace_probe$3063578___mptcp____state__change
ffffff8000a30998 D __dtrace_probe$307870___mptcp____subflow__close
ffffff8000a309a0 D __dtrace_probe$308939___mptcp____subflow__connect
ffffff8000a309a8 D __dtrace_probe$3091106___mptcp____subflow__receive
ffffff8000a309b0 D __dtrace_probe$3103555___mptcp____dispose
ffffff8000a300f8 D __dtrace_probe$31118___proc____qos__remove
ffffff8000a309b8 D __dtrace_probe$311516___mptcp____session__create
ffffff8000a309c0 D __dtrace_probe$3121681___mptcp____subflow__input
ffffff8000a309c8 D __dtrace_probe$3132160___mptcp____subflow__events
ffffff8000a30018 D __dtrace_probe$31426___boost____receive_boost
ffffff8000a309d0 D __dtrace_probe$314550___mptcp____session__destroy
ffffff8000a309d8 D __dtrace_probe$3151818___mptcp____subflow__output
ffffff8000a309e0 D __dtrace_probe$3162044___mptcp____send
ffffff8000a309e8 D __dtrace_probe$317211___mptcp____cancel__timer
ffffff8000a309f0 D __dtrace_probe$3181212___mptcp____subflow__peeloff
ffffff8000a309f8 D __dtrace_probe$319839___mptcp____subflow__create
ffffff8000a30a00 D __dtrace_probe$3203578___mptcp____state__change
ffffff8000a30100 D __dtrace_probe$32127___proc____qos__legacy__denied
ffffff8000a30a08 D __dtrace_probe$3215000___mptcp____multipath__failed
ffffff8000a30a10 D __dtrace_probe$3225000___mptcp____multipath__failed
ffffff8000a30a18 D __dtrace_probe$3235000___mptcp____multipath__failed
ffffff8000a30a20 D __dtrace_probe$3244971___mptcp____multipath__ready
ffffff8000a30a28 D __dtrace_probe$325283___mptcp____connectx
ffffff8000a30a30 D __dtrace_probe$3261040___mptcp____peeloff
ffffff8000a30a38 D __dtrace_probe$327822___mptcp____disconnectx
ffffff8000a30a40 D __dtrace_probe$3281232___mptcp____state__change
ffffff8000a30a48 D __dtrace_probe$32995___mptcp____error
ffffff8000a30a50 D __dtrace_probe$33076___mptcp____timer
ffffff8000a30a58 D __dtrace_probe$331117___mptcp____error
ffffff8000a30a60 D __dtrace_probe$332177___mptcp____start__timer
ffffff8000a30a68 D __dtrace_probe$333211___mptcp____cancel__timer
ffffff8000a30a70 D __dtrace_probe$334211___mptcp____cancel__timer
ffffff8000a30a78 D __dtrace_probe$335211___mptcp____cancel__timer
ffffff8000a30108 D __dtrace_probe$33615___sdt____timercallout__create
ffffff8000a30a80 D __dtrace_probe$336211___mptcp____cancel__timer
ffffff8000a30a88 D __dtrace_probe$337557___ip____receive
ffffff8000a30a90 D __dtrace_probe$338752___ip____receive
ffffff8000a30a98 D __dtrace_probe$3391206___ip____receive
ffffff8000a30aa0 D __dtrace_probe$3401065___ip____send
ffffff8000a30aa8 D __dtrace_probe$341225___ip____receive
ffffff8000a30ab0 D __dtrace_probe$3425423___fsinfo____bwrite
ffffff8000a30ab8 D __dtrace_probe$3435423___fsinfo____bwrite
ffffff8000a30ac0 D __dtrace_probe$3445423___fsinfo____bwrite
ffffff8000a30ac8 D __dtrace_probe$3455423___fsinfo____bwrite
ffffff8000a30ad0 D __dtrace_probe$3465423___fsinfo____bwrite
ffffff8000a30110 D __dtrace_probe$34720___sdt____timercallout__cancel
ffffff8000a30ad8 D __dtrace_probe$3472836___fsinfo____lookup
ffffff8000a30ae0 D __dtrace_probe$3484892___fsinfo____pathconf
ffffff8000a30ae8 D __dtrace_probe$3495404___fsinfo____strategy
ffffff8000a30af0 D __dtrace_probe$3505404___fsinfo____strategy
ffffff8000a30af8 D __dtrace_probe$3513599___fsinfo____fsync
ffffff8000a30b00 D __dtrace_probe$3523599___fsinfo____fsync
ffffff8000a30b08 D __dtrace_probe$3533099___fsinfo____close
ffffff8000a30b10 D __dtrace_probe$3543599___fsinfo____fsync
ffffff8000a30b18 D __dtrace_probe$3553599___fsinfo____fsync
ffffff8000a30b20 D __dtrace_probe$3563099___fsinfo____close
ffffff8000a30b28 D __dtrace_probe$3573099___fsinfo____close
ffffff8000a30b30 D __dtrace_probe$3585423___fsinfo____bwrite
ffffff8000a30118 D __dtrace_probe$35865___sdt____timercallout__start
ffffff8000a30b38 D __dtrace_probe$3595423___fsinfo____bwrite
ffffff8000a30b40 D __dtrace_probe$3605423___fsinfo____bwrite
ffffff8000a30b48 D __dtrace_probe$3615423___fsinfo____bwrite
ffffff8000a30b50 D __dtrace_probe$3625423___fsinfo____bwrite
ffffff8000a30b58 D __dtrace_probe$3635423___fsinfo____bwrite
ffffff8000a30b60 D __dtrace_probe$3643099___fsinfo____close
ffffff8000a30b68 D __dtrace_probe$3653066___fsinfo____open
ffffff8000a30b70 D __dtrace_probe$3663099___fsinfo____close
ffffff8000a30b78 D __dtrace_probe$3675423___fsinfo____bwrite
ffffff8000a30b80 D __dtrace_probe$3683299___fsinfo____read
ffffff8000a30120 D __dtrace_probe$36878___sdt____timercallout__end
ffffff8000a30b88 D __dtrace_probe$3693299___fsinfo____read
ffffff8000a30b90 D __dtrace_probe$3705423___fsinfo____bwrite
ffffff8000a30b98 D __dtrace_probe$3713599___fsinfo____fsync
ffffff8000a30ba0 D __dtrace_probe$3723599___fsinfo____fsync
ffffff8000a30ba8 D __dtrace_probe$3733599___fsinfo____fsync
ffffff8000a30bb0 D __dtrace_probe$3743599___fsinfo____fsync
ffffff8000a30bb8 D __dtrace_probe$3752650___proc____kauth__identity__cache__hit
ffffff8000a30bc0 D __dtrace_probe$3762773___proc____kauth__id__resolver__submitted
ffffff8000a30bc8 D __dtrace_probe$3772777___proc____kauth__id__resolver__returned
ffffff8000a30128 D __dtrace_probe$378073___vminfo____clustersize
ffffff8000a30bd0 D __dtrace_probe$3783151___proc____kauth__group__resolver__submitted
ffffff8000a30bd8 D __dtrace_probe$3793155___proc____kauth__group__resolver__returned
ffffff8000a30be0 D __dtrace_probe$3803139___proc____kauth__group__cache__hit
ffffff8000a30be8 D __dtrace_probe$3814953___fsinfo____advlock
ffffff8000a30130 D __dtrace_probe$381851___vminfo____maj_fault
ffffff8000a30bf0 D __dtrace_probe$3825323___fsinfo____offtoblk
ffffff8000a30bf8 D __dtrace_probe$3835293___fsinfo____blktooff
ffffff8000a30c00 D __dtrace_probe$3845367___fsinfo____blockmap
ffffff8000a30c08 D __dtrace_probe$3854953___fsinfo____advlock
ffffff8000a30c10 D __dtrace_probe$3864953___fsinfo____advlock
ffffff8000a30c18 D __dtrace_probe$3872945___proc____spawn__failure
ffffff8000a30c20 D __dtrace_probe$3882964___proc____exec__failure
ffffff8000a30c28 D __dtrace_probe$3892947___proc____spawn__success
ffffff8000a30c30 D __dtrace_probe$3902966___proc____exec__success
ffffff8000a30c38 D __dtrace_probe$3912489___proc____create
ffffff8000a30138 D __dtrace_probe$392150___vminfo____pgin
ffffff8000a30c40 D __dtrace_probe$3921627___proc____spawn__port__failure
ffffff8000a30c48 D __dtrace_probe$3931805___proc____spawn__fd__failure
ffffff8000a30c50 D __dtrace_probe$3941803___proc____spawn__open__failure
ffffff8000a30c58 D __dtrace_probe$3951309___proc____exec
ffffff8000a30c60 D __dtrace_probe$3963210___proc____exec__failure
ffffff8000a30c68 D __dtrace_probe$3973198___proc____exec__success
ffffff8000a30c70 D __dtrace_probe$398469___proc____exit
ffffff8000a30c78 D __dtrace_probe$3993508___fsinfo____revoke
ffffff8000a30c80 D __dtrace_probe$4003508___fsinfo____revoke
ffffff8000a30c88 D __dtrace_probe$401651___fsinfo____advlock__wait
ffffff8000a30140 D __dtrace_probe$402150___vminfo____fspgin
ffffff8000a30c90 D __dtrace_probe$402517___fsinfo____advlock__nowait
ffffff8000a30c98 D __dtrace_probe$403310___proc____create
ffffff8000a30ca0 D __dtrace_probe$404919___proc____create
ffffff8000a30ca8 D __dtrace_probe$405118___proc____qos__remove
ffffff8000a30cb0 D __dtrace_probe$406127___proc____qos__legacy__denied
ffffff8000a30cb8 D __dtrace_probe$407118___proc____qos__remove
ffffff8000a30cc0 D __dtrace_probe$408127___proc____qos__legacy__denied
ffffff8000a30cc8 D __dtrace_probe$4093599___fsinfo____fsync
ffffff8000a30cd0 D __dtrace_probe$4101863___proc____signal__discard
ffffff8000a30cd8 D __dtrace_probe$4111850___proc____signal__discard
ffffff8000a30148 D __dtrace_probe$412150___vminfo____anonpgin
ffffff8000a30ce0 D __dtrace_probe$4121900___proc____signal__discard
ffffff8000a30ce8 D __dtrace_probe$4132127___proc____signal__send
ffffff8000a30cf0 D __dtrace_probe$4141370___proc____signal__clear
ffffff8000a30cf8 D __dtrace_probe$4152765___proc____fault
ffffff8000a30d00 D __dtrace_probe$4162773___proc____signal__handle
ffffff8000a30d08 D __dtrace_probe$4173066___fsinfo____open
ffffff8000a30d10 D __dtrace_probe$4183099___fsinfo____close
ffffff8000a30d18 D __dtrace_probe$4193299___fsinfo____read
ffffff8000a30d20 D __dtrace_probe$4203439___fsinfo____select
ffffff8000a30d28 D __dtrace_probe$4215293___fsinfo____blktooff
ffffff8000a30150 D __dtrace_probe$422165___vminfo____cow_fault
ffffff8000a30d30 D __dtrace_probe$4225323___fsinfo____offtoblk
ffffff8000a30d38 D __dtrace_probe$4233539___fsinfo____mmap
ffffff8000a30d40 D __dtrace_probe$4243568___fsinfo____mnomap
ffffff8000a30d48 D __dtrace_probe$4255075___fsinfo____pageout
ffffff8000a30d50 D __dtrace_probe$4265075___fsinfo____pageout
ffffff8000a30d58 D __dtrace_probe$4275075___fsinfo____pageout
ffffff8000a30d60 D __dtrace_probe$428627___vminfo____pgpgin
ffffff8000a30020 D __dtrace_probe$42915___boost____receive_boost
ffffff8000a30d68 D __dtrace_probe$4295036___fsinfo____pagein
ffffff8000a30d70 D __dtrace_probe$4305036___fsinfo____pagein
ffffff8000a30d78 D __dtrace_probe$431579___proc____fault
ffffff8000a30158 D __dtrace_probe$432395___vminfo____pgin
ffffff8000a30d80 D __dtrace_probe$432586___proc____signal__handle
ffffff8000a30d88 D __dtrace_probe$433541___proc____fault
ffffff8000a30d90 D __dtrace_probe$434549___proc____signal__handle
ffffff8000a30d98 D __dtrace_probe$435166___sdt____iotestimercallout__expire
ffffff8000a30da0 D __dtrace_probe$436124___sdt____iotestimercallout__expire
ffffff8000a30da8 D __dtrace_probe$4375516___fsinfo____setlabel
ffffff8000a30160 D __dtrace_probe$442395___vminfo____fspgin
ffffff8000a30168 D __dtrace_probe$452395___vminfo____anonpgin
ffffff8000a30170 D __dtrace_probe$462572___vminfo____pgin
ffffff8000a30178 D __dtrace_probe$472572___vminfo____fspgin
ffffff8000a30180 D __dtrace_probe$482572___vminfo____anonpgin
ffffff8000a30188 D __dtrace_probe$49792___vminfo____zfod
ffffff8000a30190 D __dtrace_probe$502713___vminfo____pgin
ffffff8000a30198 D __dtrace_probe$512713___vminfo____fspgin
ffffff8000a301a0 D __dtrace_probe$522713___vminfo____anonpgin
ffffff8000a301a8 D __dtrace_probe$532720___vminfo____as_fault
ffffff8000a301b0 D __dtrace_probe$542723___vminfo____kernel_asflt
ffffff8000a301b8 D __dtrace_probe$554110___vminfo____pgin
ffffff8000a301c0 D __dtrace_probe$564110___vminfo____fspgin
ffffff8000a301c8 D __dtrace_probe$574110___vminfo____anonpgin
ffffff8000a30028 D __dtrace_probe$5753___sched____wakeup
ffffff8000a301d0 D __dtrace_probe$584148___vminfo____cow_fault
ffffff8000a301d8 D __dtrace_probe$595036___vminfo____softlock
ffffff8000a301e0 D __dtrace_probe$602537___vminfo____vm_map_iokit_mapped_region
ffffff8000a301e8 D __dtrace_probe$612436___vminfo____map_entry_extend
ffffff8000a301f0 D __dtrace_probe$626484___vminfo____vm_map_iokit_unmapped_region
ffffff8000a301f8 D __dtrace_probe$6310999___vminfo____prot_fault
ffffff8000a30200 D __dtrace_probe$64103___vminfo____map_entry_link_copy
ffffff8000a30208 D __dtrace_probe$65143___vminfo____map_entry_link
ffffff8000a30210 D __dtrace_probe$66143___vminfo____map_entry_link
ffffff8000a30030 D __dtrace_probe$6714___sched____iwakeup
ffffff8000a30218 D __dtrace_probe$67182___vminfo____map_entry_unlink
ffffff8000a30220 D __dtrace_probe$68182___vminfo____map_entry_unlink
ffffff8000a30228 D __dtrace_probe$691601___vminfo____rev
ffffff8000a30230 D __dtrace_probe$701651___vminfo____scan
ffffff8000a30238 D __dtrace_probe$712379___vminfo____scan
ffffff8000a30240 D __dtrace_probe$722537___vminfo____dfree
ffffff8000a30248 D __dtrace_probe$732542___vminfo____fsfree
ffffff8000a30250 D __dtrace_probe$742540___vminfo____anonfree
ffffff8000a30258 D __dtrace_probe$753931___vminfo____laundrythrottle
ffffff8000a30260 D __dtrace_probe$763934___vminfo____laundryunthrottle
ffffff8000a30268 D __dtrace_probe$773145___vminfo____pgrrun
ffffff8000a30038 D __dtrace_probe$7827___sched____sleep
ffffff8000a30270 D __dtrace_probe$784740___vminfo____execfree
ffffff8000a30278 D __dtrace_probe$794741___vminfo____execpgin
ffffff8000a30280 D __dtrace_probe$804742___vminfo____execpgout
ffffff8000a30288 D __dtrace_probe$814743___vminfo____pgswapin
ffffff8000a30040 D __dtrace_probe$82178___sched____off__cpu
ffffff8000a30290 D __dtrace_probe$824744___vminfo____pgswapout
ffffff8000a30298 D __dtrace_probe$834745___vminfo____swapin
ffffff8000a302a0 D __dtrace_probe$844746___vminfo____swapout
ffffff8000a302a8 D __dtrace_probe$853958___vminfo____laundrythrottle
ffffff8000a302b0 D __dtrace_probe$863988___vminfo____laundrythrottle
ffffff8000a302b8 D __dtrace_probe$877137___vminfo____fspgout
ffffff8000a302c0 D __dtrace_probe$887135___vminfo____anonpgout
ffffff8000a302c8 D __dtrace_probe$897175___vminfo____pgout
ffffff8000a302d0 D __dtrace_probe$907127___vminfo____pgrec
ffffff8000a302d8 D __dtrace_probe$917404___vminfo____pgpgout
ffffff8000a30048 D __dtrace_probe$92188___sched____on__cpu
ffffff8000a302e0 D __dtrace_probe$923369___vminfo____pgrec
ffffff8000a302e8 D __dtrace_probe$933370___vminfo____pgfrec
ffffff8000a302f0 D __dtrace_probe$94301___sdt____physread
ffffff8000a302f8 D __dtrace_probe$954781___fsinfo____readlink
ffffff8000a30300 D __dtrace_probe$963299___fsinfo____read
ffffff8000a30308 D __dtrace_probe$974637___fsinfo____readdir
ffffff8000a30310 D __dtrace_probe$984637___fsinfo____readdir
ffffff8000a30318 D __dtrace_probe$994892___fsinfo____pathconf
ffffff80004b8830 T __dtrace_register_anon_DOF
ffffff800028f870 T __enable_preemption
ffffff800028f8a0 T __enable_preemption_no_check
ffffff80005ee390 T __flushq
ffffff80005ee3a0 T __flushq_flow
ffffff80003df1c0 T __get_cpu_capabilities
ffffff80005edc50 T __getq
ffffff80005edeb0 T __getq_all
ffffff80005edd70 T __getq_flow
ffffff80005ee090 T __getq_random
ffffff80005edee0 T __getq_tail
ffffff8000abdea0 S __giDebugLogDataInternal
ffffff8000abde98 S __giDebugLogInternal
ffffff8000abdea8 S __giDebugReserved1
ffffff8000abdeb0 S __giDebugReserved2
ffffff800031d740 T __global_eventq
ffffff80002901b0 T __intr_0x20
ffffff80002901d0 T __intr_0x21
ffffff80002901f0 T __intr_0x22
ffffff8000290210 T __intr_0x23
ffffff8000290230 T __intr_0x24
ffffff8000290250 T __intr_0x25
ffffff8000290270 T __intr_0x26
ffffff8000290290 T __intr_0x27
ffffff80002902b0 T __intr_0x28
ffffff80002902d0 T __intr_0x29
ffffff80002902f0 T __intr_0x2a
ffffff8000290310 T __intr_0x2b
ffffff8000290330 T __intr_0x2c
ffffff8000290350 T __intr_0x2d
ffffff8000290370 T __intr_0x2e
ffffff8000290390 T __intr_0x2f
ffffff80002903b0 T __intr_0x30
ffffff80002903d0 T __intr_0x31
ffffff80002903f0 T __intr_0x32
ffffff8000290410 T __intr_0x33
ffffff8000290430 T __intr_0x34
ffffff8000290450 T __intr_0x35
ffffff8000290470 T __intr_0x36
ffffff8000290490 T __intr_0x37
ffffff80002904b0 T __intr_0x38
ffffff80002904d0 T __intr_0x39
ffffff80002904f0 T __intr_0x3a
ffffff8000290510 T __intr_0x3b
ffffff8000290530 T __intr_0x3c
ffffff8000290550 T __intr_0x3d
ffffff8000290570 T __intr_0x3e
ffffff8000290590 T __intr_0x3f
ffffff80002905b0 T __intr_0x40
ffffff80002905d0 T __intr_0x41
ffffff80002905f0 T __intr_0x42
ffffff8000290610 T __intr_0x43
ffffff8000290630 T __intr_0x44
ffffff8000290650 T __intr_0x45
ffffff8000290670 T __intr_0x46
ffffff8000290690 T __intr_0x47
ffffff80002906b0 T __intr_0x48
ffffff80002906d0 T __intr_0x49
ffffff80002906f0 T __intr_0x4a
ffffff8000290710 T __intr_0x4b
ffffff8000290730 T __intr_0x4c
ffffff8000290750 T __intr_0x4d
ffffff8000290770 T __intr_0x4e
ffffff8000290790 T __intr_0x4f
ffffff80002907b0 T __intr_0x50
ffffff80002907d0 T __intr_0x51
ffffff80002907f0 T __intr_0x52
ffffff8000290810 T __intr_0x53
ffffff8000290830 T __intr_0x54
ffffff8000290850 T __intr_0x55
ffffff8000290870 T __intr_0x56
ffffff8000290890 T __intr_0x57
ffffff80002908b0 T __intr_0x58
ffffff80002908d0 T __intr_0x59
ffffff80002908f0 T __intr_0x5a
ffffff8000290910 T __intr_0x5b
ffffff8000290930 T __intr_0x5c
ffffff8000290950 T __intr_0x5d
ffffff8000290970 T __intr_0x5e
ffffff8000290990 T __intr_0x5f
ffffff80002909b0 T __intr_0x60
ffffff80002909d0 T __intr_0x61
ffffff80002909f0 T __intr_0x62
ffffff8000290a10 T __intr_0x63
ffffff8000290a30 T __intr_0x64
ffffff8000290a50 T __intr_0x65
ffffff8000290a70 T __intr_0x66
ffffff8000290a90 T __intr_0x67
ffffff8000290ab0 T __intr_0x68
ffffff8000290ad0 T __intr_0x69
ffffff8000290af0 T __intr_0x6a
ffffff8000290b10 T __intr_0x6b
ffffff8000290b30 T __intr_0x6c
ffffff8000290b50 T __intr_0x6d
ffffff8000290b70 T __intr_0x6e
ffffff8000290b90 T __intr_0x6f
ffffff8000290bb0 T __intr_0x70
ffffff8000290bd0 T __intr_0x71
ffffff8000290bf0 T __intr_0x72
ffffff8000290c10 T __intr_0x73
ffffff8000290c30 T __intr_0x74
ffffff8000290c50 T __intr_0x75
ffffff8000290c70 T __intr_0x76
ffffff8000290c90 T __intr_0x77
ffffff8000290cb0 T __intr_0x78
ffffff8000290cd0 T __intr_0x79
ffffff8000290cf0 T __intr_0x7a
ffffff8000290d10 T __intr_0x7b
ffffff8000290d30 T __intr_0x7c
ffffff8000290d50 T __intr_0x7d
ffffff8000290d70 T __intr_0x7e
ffffff8000290db0 T __intr_0x83
ffffff8000290dd0 T __intr_0x84
ffffff8000290df0 T __intr_0x85
ffffff8000290e10 T __intr_0x86
ffffff8000290e30 T __intr_0x87
ffffff8000290e50 T __intr_0x88
ffffff8000290e70 T __intr_0x89
ffffff8000290e90 T __intr_0x8a
ffffff8000290eb0 T __intr_0x8b
ffffff8000290ed0 T __intr_0x8c
ffffff8000290ef0 T __intr_0x8d
ffffff8000290f10 T __intr_0x8e
ffffff8000290f30 T __intr_0x8f
ffffff8000290f50 T __intr_0x90
ffffff8000290f70 T __intr_0x91
ffffff8000290f90 T __intr_0x92
ffffff8000290fb0 T __intr_0x93
ffffff8000290fd0 T __intr_0x94
ffffff8000290ff0 T __intr_0x95
ffffff8000291010 T __intr_0x96
ffffff8000291030 T __intr_0x97
ffffff8000291050 T __intr_0x98
ffffff8000291070 T __intr_0x99
ffffff8000291090 T __intr_0x9a
ffffff80002910b0 T __intr_0x9b
ffffff80002910d0 T __intr_0x9c
ffffff80002910f0 T __intr_0x9d
ffffff8000291110 T __intr_0x9e
ffffff8000291130 T __intr_0x9f
ffffff8000291150 T __intr_0xa0
ffffff8000291170 T __intr_0xa1
ffffff8000291190 T __intr_0xa2
ffffff80002911b0 T __intr_0xa3
ffffff80002911d0 T __intr_0xa4
ffffff80002911f0 T __intr_0xa5
ffffff8000291210 T __intr_0xa6
ffffff8000291230 T __intr_0xa7
ffffff8000291250 T __intr_0xa8
ffffff8000291270 T __intr_0xa9
ffffff8000291290 T __intr_0xaa
ffffff80002912b0 T __intr_0xab
ffffff80002912d0 T __intr_0xac
ffffff80002912f0 T __intr_0xad
ffffff8000291310 T __intr_0xae
ffffff8000291330 T __intr_0xaf
ffffff8000291350 T __intr_0xb0
ffffff8000291370 T __intr_0xb1
ffffff8000291390 T __intr_0xb2
ffffff80002913b0 T __intr_0xb3
ffffff80002913d0 T __intr_0xb4
ffffff80002913f0 T __intr_0xb5
ffffff8000291410 T __intr_0xb6
ffffff8000291430 T __intr_0xb7
ffffff8000291450 T __intr_0xb8
ffffff8000291470 T __intr_0xb9
ffffff8000291490 T __intr_0xba
ffffff80002914b0 T __intr_0xbb
ffffff80002914d0 T __intr_0xbc
ffffff80002914f0 T __intr_0xbd
ffffff8000291510 T __intr_0xbe
ffffff8000291530 T __intr_0xbf
ffffff8000291550 T __intr_0xc0
ffffff8000291570 T __intr_0xc1
ffffff8000291590 T __intr_0xc2
ffffff80002915b0 T __intr_0xc3
ffffff80002915d0 T __intr_0xc4
ffffff80002915f0 T __intr_0xc5
ffffff8000291610 T __intr_0xc6
ffffff8000291630 T __intr_0xc7
ffffff8000291650 T __intr_0xc8
ffffff8000291670 T __intr_0xc9
ffffff8000291690 T __intr_0xca
ffffff80002916b0 T __intr_0xcb
ffffff80002916d0 T __intr_0xcc
ffffff80002916f0 T __intr_0xcd
ffffff8000291710 T __intr_0xce
ffffff8000291730 T __intr_0xcf
ffffff8000291750 T __intr_0xd0
ffffff8000291770 T __intr_0xd1
ffffff8000291790 T __intr_0xd2
ffffff80002917b0 T __intr_0xd3
ffffff80002917d0 T __intr_0xd4
ffffff80002917f0 T __intr_0xd5
ffffff8000291810 T __intr_0xd6
ffffff8000291830 T __intr_0xd7
ffffff8000291850 T __intr_0xd8
ffffff8000291870 T __intr_0xd9
ffffff8000291890 T __intr_0xda
ffffff80002918b0 T __intr_0xdb
ffffff80002918d0 T __intr_0xdc
ffffff80002918f0 T __intr_0xdd
ffffff8000291910 T __intr_0xde
ffffff8000291930 T __intr_0xdf
ffffff8000291950 T __intr_0xe0
ffffff8000291970 T __intr_0xe1
ffffff8000291990 T __intr_0xe2
ffffff80002919b0 T __intr_0xe3
ffffff80002919d0 T __intr_0xe4
ffffff80002919f0 T __intr_0xe5
ffffff8000291a10 T __intr_0xe6
ffffff8000291a30 T __intr_0xe7
ffffff8000291a50 T __intr_0xe8
ffffff8000291a70 T __intr_0xe9
ffffff8000291a90 T __intr_0xea
ffffff8000291ab0 T __intr_0xeb
ffffff8000291ad0 T __intr_0xec
ffffff8000291af0 T __intr_0xed
ffffff8000291b10 T __intr_0xee
ffffff8000291b30 T __intr_0xef
ffffff8000291b50 T __intr_0xf0
ffffff8000291b70 T __intr_0xf1
ffffff8000291b90 T __intr_0xf2
ffffff8000291bb0 T __intr_0xf3
ffffff8000291bd0 T __intr_0xf4
ffffff8000291bf0 T __intr_0xf5
ffffff8000291c10 T __intr_0xf6
ffffff8000291c30 T __intr_0xf7
ffffff8000291c50 T __intr_0xf8
ffffff8000291c70 T __intr_0xf9
ffffff8000291c90 T __intr_0xfa
ffffff8000291cb0 T __intr_0xfb
ffffff8000291cd0 T __intr_0xfc
ffffff8000291cf0 T __intr_0xfd
ffffff8000291d10 T __intr_0xfe
ffffff80002da660 T __kernelrpc_mach_port_allocate_trap
ffffff80002daa60 T __kernelrpc_mach_port_construct_trap
ffffff80002da760 T __kernelrpc_mach_port_deallocate_trap
ffffff80002da700 T __kernelrpc_mach_port_destroy_trap
ffffff80002dab10 T __kernelrpc_mach_port_destruct_trap
ffffff80002da9f0 T __kernelrpc_mach_port_extract_member_trap
ffffff80002dab80 T __kernelrpc_mach_port_guard_trap
ffffff80002da980 T __kernelrpc_mach_port_insert_member_trap
ffffff80002da8a0 T __kernelrpc_mach_port_insert_right_trap
ffffff80002da7c0 T __kernelrpc_mach_port_mod_refs_trap
ffffff80002da830 T __kernelrpc_mach_port_move_member_trap
ffffff80002dabf0 T __kernelrpc_mach_port_unguard_trap
ffffff80002da390 T __kernelrpc_mach_vm_allocate_trap
ffffff80002da440 T __kernelrpc_mach_vm_deallocate_trap
ffffff80002da550 T __kernelrpc_mach_vm_map_trap
ffffff80002da4e0 T __kernelrpc_mach_vm_protect_trap
ffffff8000a816c8 D __lastkerneldataconst
ffffff8000a816d0 D __lastkerneldataconst_padsize
ffffff800094f770 S __length_code
ffffff80004b6ae0 T __lockstat_open
ffffff800039e7e0 T __mach_make_memory_entry
ffffff8000a951c8 S __map_enter_debug
ffffff8000abcfb0 S __max_linkhdr
ffffff8000abcfa8 S __max_protohdr
ffffff8000200000 T __mh_execute_header
ffffff800028f8b0 T __mp_disable_preemption
ffffff800028f8c0 T __mp_enable_preemption
ffffff800028f8f0 T __mp_enable_preemption_no_check
ffffff800028e070 T __pal_efi_call_in_32bit_mode_asm
ffffff800028e000 T __pal_efi_call_in_64bit_mode_asm
ffffff800028e0e0 T __pal_rtc_nanotime_store
ffffff80007c58b0 T __printf
ffffff80004bc9e0 T __profile_open
ffffff80005edb70 T __qinit
ffffff80005ee280 T __removeq
ffffff800028fbb0 T __rtc_nanotime_adjust
ffffff800028fbd0 T __rtc_nanotime_read
ffffff800028fc10 T __rtc_tsc_to_nanoseconds
ffffff80004baec0 T __sdt_open
ffffff80003ea520 T __serial_getc
ffffff8000823960 T __shared_region_map_and_slide
ffffff800010d000 S __start
ffffff80004bbd50 T __systrace_open
ffffff8000aa3d90 S __throttle_io_info
ffffff800086eb40 T __tr_align
ffffff800086ede0 T __tr_flush_block
ffffff800086e690 T __tr_init
ffffff800086e980 T __tr_stored_block
ffffff8000870980 T __tr_tally
ffffff8000373310 T __vm_map_store_entry_link
ffffff80003734e0 T __vm_map_store_entry_unlink
ffffff8000378320 T __vm_object_lock_try
ffffff80002c2ae0 T _abort_panic_transfer
ffffff80003daa80 T _absolutetime_to_microtime
ffffff80003daaf0 T _absolutetime_to_nanoseconds
ffffff80007ff410 T _accept
ffffff80007fecc0 T _accept_nocancel
ffffff80004fad40 T _access
ffffff80004fa6d0 T _access_extended
ffffff8000773560 T _acct
ffffff80007734e0 T _acct_init
ffffff8000773b60 T _acct_process
ffffff8000a6e454 D _acctchkfreq
ffffff8000ab86e0 S _acctp
ffffff8000a6e450 D _acctresume
ffffff8000a6e44c D _acctsuspend
ffffff8000773830 T _acctwatch
ffffff800090ad80 T _acknowledgeSleepWakeNotification
ffffff80003e96f0 T _acpi_idle_kernel
ffffff80003e8d20 T _acpi_install_wake_handler
ffffff800028e110 T _acpi_sleep_cpu
ffffff80003e8e80 T _acpi_sleep_kernel
ffffff800010d156 S _acpi_wake_prot
ffffff800028e1cf T _acpi_wake_prot_entry
ffffff8000313900 T _act_abort
ffffff80003148f0 T _act_get_state
ffffff80003d98b0 T _act_machine_switch_pcb
ffffff8000314910 T _act_set_astbsd
ffffff8000314a30 T _act_set_astmacf
ffffff80003149f0 T _act_set_kperf
ffffff8000314890 T _act_set_state
ffffff80003148c0 T _act_set_state_from_user
ffffff80003d9740 T _act_thread_catt
ffffff80003d9810 T _act_thread_cfree
ffffff80003d9480 T _act_thread_csave
ffffff8000a87250 S _active_debugger
ffffff80003de5c0 T _active_rt_threads
ffffff80003b4750 T _add_blocks
ffffff80005230d0 T _add_fsevent
ffffff800064ad80 T _add_to_time_wait
ffffff80006ac5f0 T _addrsel_policy_init
ffffff8000ab6340 S _addrsel_policytab
ffffff80007c5bc0 T _addupc_task
ffffff80007c0250 T _adjtime
ffffff800037c3a0 T _adjust_vm_object_cache
ffffff8000866640 T _adler32
ffffff8000866aa0 T _adler32_combine
ffffff8000a86ef0 S _adr
ffffff80004dc4b0 T _advisory_read
ffffff80004dbf30 T _advisory_read_ext
ffffff8000871bb0 T _aes_decrypt
ffffff8000871ec0 T _aes_decrypt_aad_gcm
ffffff8000871b10 T _aes_decrypt_cbc
ffffff8000871f30 T _aes_decrypt_finalize_gcm
ffffff8000871ef0 T _aes_decrypt_gcm
ffffff8000871fa0 T _aes_decrypt_get_ctx_size_gcm
ffffff8000871ab0 T _aes_decrypt_key
ffffff8000871c30 T _aes_decrypt_key128
ffffff8000871cf0 T _aes_decrypt_key256
ffffff8000871e60 T _aes_decrypt_key_gcm
ffffff8000871e90 T _aes_decrypt_set_iv_gcm
ffffff8000871a90 T _aes_encrypt
ffffff8000871db0 T _aes_encrypt_aad_gcm
ffffff80008719f0 T _aes_encrypt_cbc
ffffff8000871e20 T _aes_encrypt_finalize_gcm
ffffff8000871de0 T _aes_encrypt_gcm
ffffff8000871f70 T _aes_encrypt_get_ctx_size_gcm
ffffff8000871990 T _aes_encrypt_key
ffffff8000871bd0 T _aes_encrypt_key128
ffffff8000871c90 T _aes_encrypt_key256
ffffff8000871d50 T _aes_encrypt_key_gcm
ffffff8000871d80 T _aes_encrypt_set_iv_gcm
ffffff8000a30f4c D _affinity_sets_enabled
ffffff8000a30f50 D _affinity_sets_mapping
ffffff8000a5a058 D _age_is_stale
ffffff8000a8f990 S _age_of_decompressions_during_sample_period
ffffff8000678d80 T _ah4_calccksum
ffffff8000679860 T _ah4_input
ffffff800067b080 T _ah4_output
ffffff8000679350 T _ah6_calccksum
ffffff800067af40 T _ah6_ctlinput
ffffff800067a320 T _ah6_input
ffffff800067b650 T _ah6_output
ffffff80006770d0 T _ah_algorithm_lookup
ffffff800067b610 T _ah_hdrlen
ffffff800067b030 T _ah_hdrsiz
ffffff80007740a0 T _aio_cancel
ffffff8000774880 T _aio_error
ffffff8000774980 T _aio_fsync
ffffff8000a7a52c D _aio_max_requests
ffffff8000a7a530 D _aio_max_requests_per_process
ffffff8000774f20 T _aio_read
ffffff8000774f50 T _aio_return
ffffff8000775300 T _aio_suspend
ffffff8000775340 T _aio_suspend_nocancel
ffffff8000a7a534 D _aio_worker_threads
ffffff8000775700 T _aio_write
ffffff8000a8d020 S _all_zones_lock
ffffff80004cb050 T _alloc_io_buf
ffffff8000a98690 S _alloc_ptepages_count
ffffff800076cee0 T _allocate_storage_unit
ffffff80004cb330 T _allocbuf
ffffff8000a319ec D _allow_data_exec
ffffff8000a8ca00 S _allow_qos_policy_set
ffffff8000a9865c S _allow_stack_exec
ffffff8000a65eb0 D _allowed_increase
ffffff8000ab88b8 S _allproc
ffffff8000ab7628 S _always_do_fullfsync
ffffff8000a99b88 S _apic_table
ffffff8000a80d10 D _appleClut8
ffffff80003b92c0 T _apple_protect_pager_bootstrap
ffffff8000a319e4 D _apple_protect_pager_cache_limit
ffffff8000a98650 S _apple_protect_pager_count
ffffff8000a9864c S _apple_protect_pager_count_mapped
ffffff8000a98648 S _apple_protect_pager_count_max
ffffff8000a98644 S _apple_protect_pager_count_unmapped_max
ffffff80003b9410 T _apple_protect_pager_create
ffffff80003b8eb0 T _apple_protect_pager_data_initialize
ffffff80003b8400 T _apple_protect_pager_data_request
ffffff8000a98638 S _apple_protect_pager_data_request_debug
ffffff80003b8e90 T _apple_protect_pager_data_return
ffffff80003b8ed0 T _apple_protect_pager_data_unlock
ffffff80003b8370 T _apple_protect_pager_deallocate
ffffff80003b8fb0 T _apple_protect_pager_deallocate_internal
ffffff80003b9350 T _apple_protect_pager_dequeue
ffffff80003b8380 T _apple_protect_pager_init
ffffff80003b8f40 T _apple_protect_pager_last_unmap
ffffff8000a98500 S _apple_protect_pager_lck_attr
ffffff8000a98508 S _apple_protect_pager_lck_grp
ffffff8000a98504 S _apple_protect_pager_lck_grp_attr
ffffff8000a98618 S _apple_protect_pager_lock
ffffff80003b9340 T _apple_protect_pager_lookup
ffffff80003b8f00 T _apple_protect_pager_map
ffffff8000a98640 S _apple_protect_pager_num_trim_max
ffffff8000a9863c S _apple_protect_pager_num_trim_total
ffffff8000a068d0 S _apple_protect_pager_ops
ffffff8000a98628 S _apple_protect_pager_queue
ffffff80003b8340 T _apple_protect_pager_reference
ffffff80003b9750 T _apple_protect_pager_setup
ffffff80003b8ee0 T _apple_protect_pager_synchronize
ffffff80003b83f0 T _apple_protect_pager_terminate
ffffff80003b90d0 T _apple_protect_pager_terminate_internal
ffffff80003b9160 T _apple_protect_pager_trim
ffffff80003d1d80 T _apply_func_phys
ffffff8000604ee0 T _arp_ifinit
ffffff8000602390 T _arp_init
ffffff8000603530 T _arp_ip_handle_input
ffffff8000602430 T _arp_llreach_set_reachable
ffffff80006026c0 T _arp_lookup_ip
ffffff8000aab600 S _arpstat
ffffff8000a53930 D _assembly_probes
ffffff80002f86a0 T _assert_wait
ffffff80002f8930 T _assert_wait_deadline
ffffff80002f8a20 T _assert_wait_deadline_with_leeway
ffffff80002f8670 T _assert_wait_possible
ffffff80002f8700 T _assert_wait_timeout
ffffff80002f8810 T _assert_wait_timeout_with_leeway
ffffff80002de5f0 T _ast_check
ffffff80002de700 T _ast_context
ffffff80002de300 T _ast_init
ffffff80002de6e0 T _ast_off
ffffff80002de6c0 T _ast_on
ffffff80003ca040 T _ast_pending
ffffff80002de310 T _ast_taken
ffffff8000aa27e8 S _async_work_handled
ffffff8000aa27e4 S _async_work_timed_out
ffffff8000aa2830 S _async_work_vnodes
ffffff800033df00 T _atm_collect_trace_info
ffffff800033cb40 T _atm_command
ffffff800033cad0 T _atm_extract_content
ffffff800033da00 T _atm_get_diagnostic_config
ffffff800033c830 T _atm_get_value
ffffff800033d810 T _atm_init
ffffff800033e140 T _atm_inspect_process_buffer
ffffff800033d050 T _atm_invoke_collection
ffffff8000a8d4f0 S _atm_lock_attr
ffffff8000a8d4f8 S _atm_lock_grp
ffffff8000a8d4ec S _atm_lock_grp_attr
ffffff8000a31768 D _atm_manager
ffffff800033dcb0 T _atm_register_trace_memory
ffffff800033d040 T _atm_release
ffffff800033c790 T _atm_release_value
ffffff800033dac0 T _atm_send_proc_inspect_notification
ffffff800033da10 T _atm_send_user_notification
ffffff800033de60 T _atm_set_diagnostic_config
ffffff800033dea0 T _atm_task_descriptor_destroy
ffffff8000a8d620 S _atm_value_hash_table
ffffff80003a98c0 T _atoi
ffffff80003a9900 T _atoi_term
ffffff800075fb20 T _au_bsm_to_domain
ffffff800075f930 T _au_bsm_to_errno
ffffff800075fa40 T _au_bsm_to_fcntl_cmd
ffffff80007606c0 T _au_bsm_to_socket_type
ffffff800075fad0 T _au_domain_to_bsm
ffffff800075f8e0 T _au_errno_to_bsm
ffffff800075fdc0 T _au_evclassmap_init
ffffff800075fc30 T _au_evclassmap_insert
ffffff800075fb90 T _au_event_class
ffffff800075f9b0 T _au_fcntl_cmd_to_bsm
ffffff800075fe80 T _au_preselect
ffffff8000760660 T _au_socket_type_to_bsm
ffffff8000760910 T _au_to_arg
ffffff8000760730 T _au_to_arg32
ffffff8000760820 T _au_to_arg64
ffffff8000760bb0 T _au_to_attr
ffffff8000760a00 T _au_to_attr32
ffffff8000760ad0 T _au_to_attr64
ffffff8000760c80 T _au_to_data
ffffff8000762f80 T _au_to_exec_args
ffffff80007630a0 T _au_to_exec_env
ffffff8000760d70 T _au_to_exit
ffffff8000761580 T _au_to_file
ffffff8000760e20 T _au_to_groups
ffffff80007630b0 T _au_to_header32_ex_tm
ffffff8000763200 T _au_to_header32_tm
ffffff80007632f0 T _au_to_header64_tm
ffffff8000761080 T _au_to_in_addr
ffffff8000761120 T _au_to_in_addr_ex
ffffff80007611d0 T _au_to_ip
ffffff8000761270 T _au_to_ipc
ffffff8000761320 T _au_to_ipc_perm
ffffff8000761420 T _au_to_iport
ffffff8000760f40 T _au_to_newgroups
ffffff80007614c0 T _au_to_opaque
ffffff8000761770 T _au_to_path
ffffff8000761a70 T _au_to_process
ffffff8000761850 T _au_to_process32
ffffff8000761b80 T _au_to_process32_ex
ffffff8000761960 T _au_to_process64
ffffff8000761ce0 T _au_to_process64_ex
ffffff8000761ef0 T _au_to_process_ex
ffffff8000762060 T _au_to_return
ffffff8000761f00 T _au_to_return32
ffffff8000761fb0 T _au_to_return64
ffffff8000762110 T _au_to_seq
ffffff80007627f0 T _au_to_sock_inet
ffffff80007626e0 T _au_to_sock_inet128
ffffff80007625c0 T _au_to_sock_inet32
ffffff8000762470 T _au_to_sock_unix
ffffff80007621b0 T _au_to_socket_ex
ffffff8000762b30 T _au_to_subject
ffffff8000762910 T _au_to_subject32
ffffff8000762c40 T _au_to_subject32_ex
ffffff8000762a20 T _au_to_subject64
ffffff8000762da0 T _au_to_subject64_ex
ffffff8000762f70 T _au_to_subject_ex
ffffff8000761690 T _au_to_text
ffffff80007633e0 T _au_to_trailer
ffffff8000a8c4cc S _audio_active
ffffff8000766e90 T _audit
ffffff8000a6d620 D _audit_M_AUDITBSM
ffffff8000a6d5e0 D _audit_M_AUDITDATA
ffffff8000a6d5f0 D _audit_M_AUDITPATH
ffffff8000a6d600 D _audit_M_AUDITTEXT
ffffff8000a6db30 D _audit_M_AU_SESSION
ffffff8000756220 T _audit_arg_addr
ffffff8000757320 T _audit_arg_argv
ffffff80007569b0 T _audit_arg_auditinfo
ffffff8000756a00 T _audit_arg_auditinfo_addr
ffffff8000756e00 T _audit_arg_auditon
ffffff80007569a0 T _audit_arg_auid
ffffff8000756d60 T _audit_arg_cmd
ffffff8000756460 T _audit_arg_ctlname
ffffff8000756be0 T _audit_arg_data
ffffff80007562f0 T _audit_arg_egid
ffffff80007573f0 T _audit_arg_envv
ffffff8000756300 T _audit_arg_euid
ffffff8000756270 T _audit_arg_exit
ffffff80007562b0 T _audit_arg_fd
ffffff80007562c0 T _audit_arg_fflags
ffffff8000756e30 T _audit_arg_file
ffffff80007562d0 T _audit_arg_gid
ffffff8000756350 T _audit_arg_groupset
ffffff8000756290 T _audit_arg_len
ffffff8000756400 T _audit_arg_login
ffffff8000763850 T _audit_arg_mac_string
ffffff8000757300 T _audit_arg_mach_port1
ffffff8000757310 T _audit_arg_mach_port2
ffffff80007564b0 T _audit_arg_mask
ffffff80007564c0 T _audit_arg_mode
ffffff8000756b20 T _audit_arg_opaque
ffffff8000756510 T _audit_arg_owner
ffffff8000756530 T _audit_arg_pid
ffffff8000756de0 T _audit_arg_posix_ipc_perm
ffffff8000756540 T _audit_arg_process
ffffff8000756310 T _audit_arg_rgid
ffffff8000756320 T _audit_arg_ruid
ffffff8000756330 T _audit_arg_sgid
ffffff8000756680 T _audit_arg_signum
ffffff80007566b0 T _audit_arg_sockaddr
ffffff8000756690 T _audit_arg_socket
ffffff8000756340 T _audit_arg_suid
ffffff8000756dc0 T _audit_arg_svipc_addr
ffffff8000756d70 T _audit_arg_svipc_cmd
ffffff8000756db0 T _audit_arg_svipc_id
ffffff8000756d80 T _audit_arg_svipc_perm
ffffff8000756a70 T _audit_arg_text
ffffff80007562e0 T _audit_arg_uid
ffffff80007568c0 T _audit_arg_upath
ffffff80007564e0 T _audit_arg_value32
ffffff80007564f0 T _audit_arg_value64
ffffff8000756fe0 T _audit_arg_vnpath
ffffff8000757280 T _audit_arg_vnpath_withref
ffffff8000ab76c0 S _audit_arge
ffffff8000ab76bc S _audit_argv
ffffff8000760510 T _audit_canon_path
ffffff8000755290 T _audit_commit
ffffff800075feb0 T _audit_ctlname_to_sysctlevent
ffffff8000a6dad0 D _audit_default_aia_p
ffffff8000ab7728 S _audit_drain_cv
ffffff8000ab76a0 S _audit_enabled
ffffff8000ab76b4 S _audit_fail_stop
ffffff8000760400 T _audit_fcntl_command_event
ffffff8000760210 T _audit_flags_and_error_to_openatevent
ffffff8000760310 T _audit_flags_and_error_to_openbyidevent
ffffff8000760010 T _audit_flags_and_error_to_openevent
ffffff8000760110 T _audit_flags_and_error_to_openextendedevent
ffffff8000755160 T _audit_free
ffffff8000ab76c8 S _audit_fstat
ffffff8000754c90 T _audit_get_kinfo
ffffff8000ab76b8 S _audit_in_failure
ffffff8000754cf0 T _audit_init
ffffff8000ab76a8 S _audit_kevent_mask
ffffff8000763780 T _audit_mac_data
ffffff8000763590 T _audit_mac_free
ffffff8000763480 T _audit_mac_init
ffffff8000ab7748 S _audit_mac_label_zone
ffffff80007634b0 T _audit_mac_new
ffffff8000763680 T _audit_mac_syscall_enter
ffffff80007636f0 T _audit_mac_syscall_exit
ffffff8000755ee0 T _audit_mach_syscall_enter
ffffff8000755fc0 T _audit_mach_syscall_exit
ffffff8000760390 T _audit_msgctl_to_event
ffffff8000ab7710 S _audit_mtx
ffffff8000ab76d8 S _audit_nae_mask
ffffff8000754f30 T _audit_new
ffffff8000ab76b0 S _audit_panic_on_write_fail
ffffff8000764a10 T _audit_pipe_init
ffffff80007638c0 T _audit_pipe_preselect
ffffff8000764b20 T _audit_pipe_shutdown
ffffff80007646f0 T _audit_pipe_submit
ffffff8000764970 T _audit_pipe_submit_user
ffffff8000ab76f4 S _audit_pre_q_len
ffffff8000756030 T _audit_proc_coredump
ffffff8000ab76e0 S _audit_q
ffffff8000ab76f0 S _audit_q_len
ffffff8000ab76f8 S _audit_qctrl
ffffff80007682e0 T _audit_rotate_vnode
ffffff8000766c50 T _audit_sdev_submit
ffffff80007603b0 T _audit_semctl_to_event
ffffff8000757d30 T _audit_send_trigger
ffffff8000765900 T _audit_session_aiaref
ffffff8000765950 T _audit_session_aiaunref
ffffff8000765a00 T _audit_session_init
ffffff8000766bf0 T _audit_session_join
ffffff8000764bd0 T _audit_session_lookup
ffffff80002de720 T _audit_session_mksend
ffffff80002de8a0 T _audit_session_nosenders
ffffff80007665f0 T _audit_session_port
ffffff80002de920 T _audit_session_portdestroy
ffffff80002de850 T _audit_session_porttoaia
ffffff80007659b0 T _audit_session_procexit
ffffff8000765980 T _audit_session_procnew
ffffff8000765920 T _audit_session_ref
ffffff8000766520 T _audit_session_self
ffffff8000765b40 T _audit_session_setaia
ffffff80007668c0 T _audit_session_spawnjoin
ffffff8000765960 T _audit_session_unref
ffffff8000754c30 T _audit_set_kinfo
ffffff8000754f00 T _audit_shutdown
ffffff8000ab76ac S _audit_suspended
ffffff8000755d00 T _audit_syscall_enter
ffffff8000755e80 T _audit_syscall_exit
ffffff8000ab76a4 S _audit_syscalls
ffffff80007574c0 T _audit_sysclose
ffffff800033a650 T _audit_triggers
ffffff8000ab7738 S _audit_watermark_cv
ffffff8000ab7718 S _audit_worker_cv
ffffff8000768580 T _audit_worker_init
ffffff80007680b0 T _auditctl
ffffff8000767090 T _auditon
ffffff80007603d0 T _auditon_command_event
ffffff8000a9ac28 S _avail_end
ffffff8000a9acc0 S _avail_start
ffffff8000a95cc0 S _available_for_purge
ffffff8000a8b4ac S _avenrun
ffffff8000a70750 D _averunnable
ffffff8000837700 T _b_sum16
ffffff80007d7dc0 T _b_to_q
ffffff8000a867f8 S _backing_store_abort_compaction
ffffff80002b1050 T _backing_store_add
ffffff80002b0f30 T _backing_store_alloc
ffffff8000a86818 S _backing_store_list
ffffff80002b0fc0 T _backing_store_lookup
ffffff8000a867f0 S _backing_store_release_trigger_disable
ffffff8000a867f4 S _backing_store_stop_compaction
ffffff8000627dc0 T _badport_bandlim
ffffff800033c260 T _bank_billed_time
ffffff800033c170 T _bank_billed_time_safe
ffffff800033b9b0 T _bank_command
ffffff800033b820 T _bank_extract_content
ffffff800033b4d0 T _bank_get_value
ffffff800033c590 T _bank_get_voucher_ledger
ffffff800033bd40 T _bank_init
ffffff8000a31734 D _bank_ledgers
ffffff8000a8d3cc S _bank_lock_attr
ffffff8000a8d3d0 S _bank_lock_grp
ffffff8000a8d3c8 S _bank_lock_grp_attr
ffffff8000a31738 D _bank_manager
ffffff800033bb50 T _bank_release
ffffff800033b0d0 T _bank_release_value
ffffff800033c470 T _bank_serviced_time
ffffff800033c380 T _bank_serviced_time_safe
ffffff800033c660 T _bank_swap_thread_bank_ledger
ffffff800033bea0 T _bank_task_destroy
ffffff800033bf40 T _bank_task_initialize
ffffff8000a8d4e0 S _bank_voucher_attr_control
ffffff8000932b70 S _bcd2bin_data
ffffff80004cb780 T _bcleanbuf
ffffff80003d2680 T _bcmp
ffffff800010e080 S _bcopy
ffffff800010e070 S _bcopy_no_overwrite
ffffff80003d1cd0 T _bcopy_phys
ffffff8000a7b140 D _bdevsw
ffffff8000836870 T _bdevsw_add
ffffff8000836740 T _bdevsw_isfree
ffffff80008369f0 T _bdevsw_remove
ffffff80004e6290 T _bdevvp
ffffff8000ab8698 S _bg_nkdbufs
ffffff8000a8b524 S _bg_quantum
ffffff8000a8b514 S _bg_quantum_us
ffffff8000a65e00 D _bg_ss_fltsz
ffffff8000932c10 S _bin2bcd_data
ffffff80007fe950 T _bind
ffffff8000a9e4b8 S _blaundrycnt
ffffff80004ba040 T _blist_alloc
ffffff80004b9dc0 T _blist_create
ffffff80004ba000 T _blist_destroy
ffffff80004ba3c0 T _blist_free
ffffff80004ba6a0 T _blist_resize
ffffff800010e140 S _blkclr
ffffff8000a8d040 S _bool_gen_lock
ffffff8000aa25c0 S _bootcache_contains_block
ffffff8000a6e3a0 D _boothowto
ffffff8000a98068 S _bootprofile_all_procs
ffffff8000a98040 S _bootprofile_buffer
ffffff8000a9804c S _bootprofile_buffer_current_position
ffffff8000a98048 S _bootprofile_buffer_size
ffffff80003b1d70 T _bootprofile_gather
ffffff80003b16c0 T _bootprofile_init
ffffff8000a98058 S _bootprofile_interval_abs
ffffff8000a98050 S _bootprofile_interval_ms
ffffff8000a98070 S _bootprofile_lck_grp
ffffff8000a98180 S _bootprofile_mtx
ffffff8000a98060 S _bootprofile_next_deadline
ffffff8000a98190 S _bootprofile_proc_name
ffffff8000a9806c S _bootprofile_type
ffffff80003b1d20 T _bootprofile_wake_from_sleep
ffffff8000abeef0 S _bootsessionuuid_string
ffffff8000a98698 S _bootstrap_wired_pages
ffffff80007c0400 T _boottime_sec
ffffff8000538430 T _bpf_attach
ffffff8000538980 T _bpf_filter
ffffff80005386f0 T _bpf_init
ffffff8000538410 T _bpf_tap_in
ffffff8000538400 T _bpf_tap_out
ffffff8000539300 T _bpf_validate
ffffff8000538420 T _bpfattach
ffffff8000535850 T _bpfclose
ffffff80005385b0 T _bpfdetach
ffffff80005366f0 T _bpfioctl
ffffff8000538340 T _bpfkqfilter
ffffff80005350b0 T _bpfopen
ffffff8000535a30 T _bpfread
ffffff8000537540 T _bpfselect
ffffff8000536010 T _bpfwrite
ffffff8000a9aa88 S _break_kprintf
ffffff8000aaa030 S _bridge_hostfilter_stats
ffffff80002b0d20 T _bs_commit
ffffff80002b10b0 T _bs_get_global_clsize
ffffff80002b0e00 T _bs_global_info
ffffff80002b0b40 T _bs_initialize
ffffff8000a867ec S _bs_low
ffffff80002b0c60 T _bs_more_space
ffffff80002b0c20 T _bs_no_paging_space
ffffff8000abd1f0 S _bs_port_table
ffffff80002b1060 T _bs_set_default_clsize
ffffff80007b43a0 T _bsd_ast
ffffff800076ca40 T _bsd_autoconf
ffffff80004c1d30 T _bsd_bufferinit
ffffff80002e4f30 T _bsd_exception
ffffff800076cbf0 T _bsd_exec_setup
ffffff800081e570 T _bsd_getthreadname
ffffff80008370f0 T _bsd_hostname
ffffff8000768de0 T _bsd_init
ffffff8000a8d3a8 S _bsd_init_task
ffffff80007c4f30 T _bsd_log_init
ffffff80002f3c00 T _bsd_log_lock
ffffff8000a8ab68 S _bsd_log_spinlock
ffffff80002f3c20 T _bsd_log_unlock
ffffff80004c1bd0 T _bsd_mbuf_cluster_reserve
ffffff8000ab8398 S _bsd_pageable_map
ffffff80004c2310 T _bsd_scale_setup
ffffff80007a6310 T _bsd_set_dependency_capable
ffffff80004c1990 T _bsd_startupearly
ffffff800081e590 T _bsd_threadcdir
ffffff8000777fd0 T _bsd_timeout
ffffff8000778040 T _bsd_untimeout
ffffff8000778210 T _bsd_uprofil
ffffff800076cac0 T _bsd_utaskbootstrap
ffffff800076cb40 T _bsdinit_task
ffffff8000819d80 T _bsdthread_create
ffffff8000819e50 T _bsdthread_ctl
ffffff8000819dc0 T _bsdthread_register
ffffff8000819e20 T _bsdthread_terminate
ffffff800075f8b0 T _bsm_rec_verify
ffffff8000a5d2a8 D _bstp_etheraddr
ffffff80002deb60 T _btlog_add_entry
ffffff80002de990 T _btlog_create
ffffff80002ded60 T _btlog_remove_entries_for_element
ffffff80006f13e0 T _btree_swap_node
ffffff80004cfca0 T _buf_acquire
ffffff80004cd130 T _buf_alloc
ffffff80004cace0 T _buf_attr
ffffff80004cdd20 T _buf_bawrite
ffffff80004cf940 T _buf_bdwrite
ffffff80004cc3d0 T _buf_biodone
ffffff80004cc620 T _buf_biowait
ffffff80004cbca0 T _buf_blkno
ffffff80004ce410 T _buf_bread
ffffff80004cf1b0 T _buf_breadn
ffffff80004cc820 T _buf_brelse
ffffff80004cf340 T _buf_bwrite
ffffff80004caee0 T _buf_callback
ffffff80004cbea0 T _buf_clear
ffffff80004cfb20 T _buf_clear_redundancy_flags
ffffff80004cadb0 T _buf_clearflags
ffffff80004caf70 T _buf_clone
ffffff80004cae00 T _buf_count
ffffff80004cbc40 T _buf_create_shadow
ffffff80004cb1f0 T _buf_create_shadow_priv
ffffff80004caea0 T _buf_dataptr
ffffff80004cbce0 T _buf_device
ffffff80004cae70 T _buf_dirtyend
ffffff80004cae60 T _buf_dirtyoff
ffffff80004cfc50 T _buf_drop
ffffff80004cbd20 T _buf_drvdata
ffffff80004cad70 T _buf_error
ffffff80004cadd0 T _buf_flags
ffffff80004cd9e0 T _buf_flushdirtyblks
ffffff80004cd9f0 T _buf_flushdirtyblks_skipinfo
ffffff80004cd140 T _buf_free
ffffff80004ca950 T _buf_fromcache
ffffff80004cbd40 T _buf_fsprivate
ffffff80004cab10 T _buf_fua
ffffff80004ce580 T _buf_getblk
ffffff80004cfa30 T _buf_geteblk
ffffff8000abd870 S _buf_headers
ffffff80004cfb30 T _buf_invalblkno
ffffff80004cd530 T _buf_invalidateblks
ffffff80004cd150 T _buf_iterate
ffffff8000a8c4a8 S _buf_kernel_addrperm
ffffff80004cfcf0 T _buf_kernel_addrperm_addr
ffffff80004cbcb0 T _buf_lblkno
ffffff80004cfd70 T _buf_list_lock
ffffff80004cfd90 T _buf_list_unlock
ffffff80004cbdb0 T _buf_map
ffffff80004cab00 T _buf_markaged
ffffff80004caa30 T _buf_markclean
ffffff80004ca970 T _buf_markdelayed
ffffff80004caaf0 T _buf_markeintr
ffffff80004cab20 T _buf_markfua
ffffff80004ca960 T _buf_markinvalid
ffffff80004cacf0 T _buf_markstatic
ffffff80004cf180 T _buf_meta_bread
ffffff80004cf310 T _buf_meta_breadn
ffffff80004cbda0 T _buf_proc
ffffff80004cbd60 T _buf_rcred
ffffff80004cfb00 T _buf_redundancy_flags
ffffff80004cade0 T _buf_reset
ffffff80004cae40 T _buf_resid
ffffff80004cfb10 T _buf_set_redundancy_flags
ffffff80004cbcc0 T _buf_setblkno
ffffff80004caf00 T _buf_setcallback
ffffff80004cae10 T _buf_setcount
ffffff80004caeb0 T _buf_setdataptr
ffffff80004cbcf0 T _buf_setdevice
ffffff80004cae90 T _buf_setdirtyend
ffffff80004cae80 T _buf_setdirtyoff
ffffff80004cbd30 T _buf_setdrvdata
ffffff80004cad80 T _buf_seterror
ffffff80004cbc50 T _buf_setfilter
ffffff80004cada0 T _buf_setflags
ffffff80004cbd50 T _buf_setfsprivate
ffffff80004cbcd0 T _buf_setlblkno
ffffff80004cae50 T _buf_setresid
ffffff80004cae30 T _buf_setsize
ffffff80004caf30 T _buf_setupl
ffffff80004caed0 T _buf_setvnode
ffffff80004cb1e0 T _buf_shadow
ffffff80004cae20 T _buf_size
ffffff80004cad00 T _buf_static
ffffff80004cbf60 T _buf_strategy
ffffff80004cbe30 T _buf_unmap
ffffff80004cbd80 T _buf_upl
ffffff80004cbd90 T _buf_uploffset
ffffff80004ca930 T _buf_valid
ffffff80004caec0 T _buf_vnode
ffffff80004cf950 T _buf_wait_for_shadow_io
ffffff80004cbd70 T _buf_wcred
ffffff80004cab70 T _bufattr_alloc
ffffff80004cab30 T _bufattr_cpoff
ffffff80004cab50 T _bufattr_cpx
ffffff80004cacd0 T _bufattr_delayidlesleep
ffffff80004cac00 T _bufattr_dup
ffffff80004cabe0 T _bufattr_free
ffffff80004cad20 T _bufattr_greedymode
ffffff80004cad40 T _bufattr_isochronous
ffffff80004cad10 T _bufattr_markgreedymode
ffffff80004cad30 T _bufattr_markisochronous
ffffff80004cacc0 T _bufattr_markmeta
ffffff80004cad50 T _bufattr_markquickcomplete
ffffff80004cacb0 T _bufattr_meta
ffffff80004caca0 T _bufattr_nocache
ffffff80004cac90 T _bufattr_passive
ffffff80004cad60 T _bufattr_quickcomplete
ffffff80004cac70 T _bufattr_rawencrypted
ffffff80004cab40 T _bufattr_setcpoff
ffffff80004cab60 T _bufattr_setcpx
ffffff80004cac80 T _bufattr_throttled
ffffff8000a9e4a8 S _buffer_map
ffffff8000a9e4a0 S _bufferhdr_map
ffffff8000a9e4c0 S _bufhash
ffffff8000a9e4c8 S _bufhashtbl
ffffff8000a9e4d8 S _bufstats
ffffff80004cfdb0 T _build_path
ffffff8000a9ae20 S _bus2tsc
ffffff8000a9adf8 S _busFCvtn2t
ffffff8000a9adf0 S _busFCvtt2n
ffffff8000a9ae28 S _busFreq
ffffff800010e140 S _bzero
ffffff80003d1c80 T _bzero_phys
ffffff80003d1c30 T _bzero_phys_nc
ffffff8000a8f658 S _c_age_count
ffffff8000a8f868 S _c_age_list_head
ffffff8000a8f678 S _c_bad_count
ffffff8000a8f858 S _c_bad_list_head
ffffff8000a8f908 S _c_buffers
ffffff8000a8f900 S _c_buffers_size
ffffff8000a8f68c S _c_compressor_swap_trigger
ffffff8000a8f674 S _c_empty_count
ffffff8000a8f670 S _c_filling_count
ffffff8000a8f898 S _c_filling_list_head
ffffff8000a317a4 D _c_free_segno_head
ffffff8000a8f640 S _c_generation_id
ffffff8000a915c0 S _c_generation_id_flush_barrier
ffffff8000a8f850 S _c_list_lock
ffffff8000a8f66c S _c_major_count
ffffff8000a8f888 S _c_major_list_head
ffffff8000a8f83c S _c_master_lock
ffffff8000a8f67c S _c_minor_count
ffffff8000a8f878 S _c_minor_list_head
ffffff8000a8f680 S _c_overage_swapped_count
ffffff8000a8f684 S _c_overage_swapped_limit
ffffff800034a3e0 T _c_seg_do_minor_compaction_and_unlock
ffffff8000a8f8f0 S _c_seg_fixed_array_len
ffffff800034bfe0 T _c_seg_free
ffffff800034b520 T _c_seg_free_locked
ffffff800034bef0 T _c_seg_insert_into_q
ffffff800034a540 T _c_seg_major_compact
ffffff800034c010 T _c_seg_major_compact_ok
ffffff8000a8f958 S _c_seg_major_compact_stats
ffffff800034a870 T _c_seg_minor_compaction_and_unlock
ffffff800034be30 T _c_seg_move_to_sparse_list
ffffff8000a8f944 S _c_seg_moved_to_sparse_list
ffffff800034bd50 T _c_seg_need_delayed_compaction
ffffff800034ba10 T _c_seg_swapin
ffffff800034bca0 T _c_seg_swapin_requeue
ffffff800034ab60 T _c_seg_switch_state
ffffff8000a8f954 S _c_seg_trim_page_count
ffffff800034bba0 T _c_seg_trim_tail
ffffff800034bf90 T _c_seg_try_minor_compaction_and_unlock
ffffff800034a320 T _c_seg_wait_on_busy
ffffff8000a8f6f8 S _c_segment_compressed_bytes
ffffff8000a8f634 S _c_segment_count
ffffff8000a8f638 S _c_segment_count_max
ffffff8000a8f6f0 S _c_segment_input_bytes
ffffff8000a935f4 S _c_segment_noncompressible_pages
ffffff8000a8f708 S _c_segment_pages_compressed
ffffff8000a8f714 S _c_segment_pages_compressed_limit
ffffff8000a8f718 S _c_segment_pages_compressed_nearing_limit
ffffff8000a915d8 S _c_segment_sv_hash_table
ffffff8000a935e8 S _c_segment_svp_hash_failed
ffffff8000a935e4 S _c_segment_svp_hash_succeeded
ffffff8000a935e0 S _c_segment_svp_in_hash
ffffff8000a935f0 S _c_segment_svp_nonzero_compressions
ffffff8000a935d8 S _c_segment_svp_nonzero_decompressions
ffffff8000a935ec S _c_segment_svp_zero_compressions
ffffff8000a935dc S _c_segment_svp_zero_decompressions
ffffff8000a915d0 S _c_segment_warmup_count
ffffff8000a8f8f8 S _c_segments
ffffff8000a8f70c S _c_segments_available
ffffff8000a8f8f4 S _c_segments_busy
ffffff8000a8f710 S _c_segments_limit
ffffff8000a8f71c S _c_segments_nearing_limit
ffffff8000a8f910 S _c_segments_next_page
ffffff8000a8f65c S _c_swapout_count
ffffff8000a8f8a8 S _c_swapout_list_head
ffffff8000a8f660 S _c_swappedin_count
ffffff8000a8f8b8 S _c_swappedin_list_head
ffffff8000a8f664 S _c_swappedout_count
ffffff8000a8f8c8 S _c_swappedout_list_head
ffffff8000a8f668 S _c_swappedout_sparse_count
ffffff8000a8f8d8 S _c_swappedout_sparse_list_head
ffffff8000a8a2d0 S _c_thr_exc_raise
ffffff8000a8a2d8 S _c_thr_exc_raise_state
ffffff8000a8a2e0 S _c_thr_exc_raise_state_id
ffffff8000a8a2e8 S _c_tsk_exc_raise
ffffff8000a8a2f0 S _c_tsk_exc_raise_state
ffffff8000a8a2f8 S _c_tsk_exc_raise_state_id
ffffff8000a972c8 S _c_vm_page_grab_fictitious
ffffff8000a972cc S _c_vm_page_grab_fictitious_failed
ffffff8000a972d4 S _c_vm_page_more_fictitious
ffffff8000a972d0 S _c_vm_page_release_fictitious
ffffff80004d2a60 T _cache_enter
ffffff80004d2440 T _cache_enter_create
ffffff80004d2940 T _cache_enter_with_gen
ffffff80003d2aa0 T _cache_flush_page_phys
ffffff80004d21c0 T _cache_lookup
ffffff80004d1850 T _cache_lookup_path
ffffff80004d3050 T _cache_purge
ffffff80004d3120 T _cache_purge_negatives
ffffff80004d3170 T _cache_purgevfs
ffffff80007adc70 T _calcru
ffffff8000648490 T _calculate_tcp_clock
ffffff80002e0690 T _calend_getattr
ffffff80002e0660 T _calend_gettime
ffffff8000a30f78 D _calend_ops
ffffff800028fc30 T _call_continuation
ffffff8000abd860 S _timercallout
ffffff80002f49f0 T _can_update_priority
ffffff80007b04e0 T _cansignal
ffffff80007c1d90 T _cantrace
ffffff80006f2650 T _cat_acquire_cnid
ffffff80006fc2c0 T _cat_binarykeycompare
ffffff80006f2570 T _cat_check_idhash
ffffff80006f5930 T _cat_create
ffffff80006f8fd0 T _cat_createlink
ffffff80006f6ff0 T _cat_delete
ffffff80006f98c0 T _cat_deletelink
ffffff80006f5470 T _cat_findname
ffffff80006faba0 T _cat_getdirentries
ffffff80006f9a80 T _cat_getentriesattr
ffffff80006fc460 T _cat_getkeyplusattr
ffffff80006f4b00 T _cat_idlookup
ffffff80006f25b0 T _cat_insert_idhash
ffffff80006f5090 T _cat_insertfilethread
ffffff80006f3750 T _cat_lookup
ffffff80006fc6b0 T _cat_lookup_dirlink
ffffff80006f8c80 T _cat_lookup_lastlink
ffffff80006f8990 T _cat_lookup_siblinglinks
ffffff80006f86a0 T _cat_lookuplink
ffffff80006f4920 T _cat_lookupmangled
ffffff80006f2d60 T _cat_postflight
ffffff80006f2940 T _cat_preflight
ffffff80006f2600 T _cat_remove_idhash
ffffff80006f61c0 T _cat_rename
ffffff80006f4eb0 T _cat_resolvelink
ffffff80006f7730 T _cat_update
ffffff80006fca80 T _cat_update_dirlink
ffffff80006f83c0 T _cat_update_siblinglinks
ffffff8000a02b68 S _catch_exc_subsystem
ffffff80008260e0 T _catch_exception_raise
ffffff80008263b0 T _catch_exception_raise_state
ffffff80008263d0 T _catch_exception_raise_state_identity
ffffff8000a031b0 S _catch_mach_exc_subsystem
ffffff8000826130 T _catch_mach_exception_raise
ffffff80008263c0 T _catch_mach_exception_raise_state
ffffff80008263e0 T _catch_mach_exception_raise_state_identity
ffffff80007d8060 T _catq
ffffff80003e86c0 T _cause_ast_check
ffffff8000652ce0 T _cbrtf
ffffff80003b1e10 T _cc_clear
ffffff80003b2a90 T _ccdigest_final_64be
ffffff80003b24a0 T _ccdigest_init
ffffff80003b24e0 T _ccdigest_update
ffffff80003b2460 T _ccdrbg_factory_nisthmac
ffffff80003b4ba0 T _ccdrbg_factory_yarrow
ffffff8000a31908 D _ccdrbg_nisthmac_info
ffffff80003b2620 T _cchmac
ffffff80003b2a20 T _cchmac_final
ffffff80003b2740 T _cchmac_init
ffffff80003b2a10 T _cchmac_update
ffffff8000a06890 S _ccsha1_eay_di
ffffff8000931090 S _ccsha1_initial_state
ffffff8000a7b690 D _cdevsw
ffffff8000836c20 T _cdevsw_add
ffffff8000836e40 T _cdevsw_add_with_bdev
ffffff8000abd8b0 S _cdevsw_flags
ffffff8000836af0 T _cdevsw_isfree
ffffff8000836d70 T _cdevsw_remove
ffffff8000837050 T _cdevsw_setkqueueok
ffffff8000aab330 S _cfil_active_count
ffffff8000a5fb38 D _cfil_close_wait_timeout
ffffff8000a5fb40 D _cfil_debug
ffffff80005e3cf0 T _cfil_init
ffffff8000a5fb3c D _cfil_log_level
ffffff8000aab4d0 S _cfil_rw_lock_history
ffffff8000aab338 S _cfil_rw_nxt_lck
ffffff8000aab33c S _cfil_rw_nxt_unlck
ffffff8000aab490 S _cfil_rw_unlock_history
ffffff80005e98b0 T _cfil_sock_attach
ffffff8000aab334 S _cfil_sock_attached_count
ffffff80005ebae0 T _cfil_sock_buf_update
ffffff80005eb770 T _cfil_sock_close_wait
ffffff80005eaf60 T _cfil_sock_data_in
ffffff80005ea7d0 T _cfil_sock_data_out
ffffff80005e8c40 T _cfil_sock_data_pending
ffffff80005eba00 T _cfil_sock_data_space
ffffff80005ea1f0 T _cfil_sock_detach
ffffff8000aab478 S _cfil_sock_head
ffffff80005e3cc0 T _cfil_sock_id_from_socket
ffffff80005eb240 T _cfil_sock_is_closed
ffffff80005e8b50 T _cfil_sock_notify_shutdown
ffffff80005eb0a0 T _cfil_sock_shutdown
ffffff8000aab348 S _cfil_stats
ffffff8000abd868 S _cfree
ffffff8000abd858 S _cfreecount
ffffff8000abd850 S _cfreelist
ffffff800078a540 T _change_fdguard_np
ffffff8000ab75b0 S _chash_lck_attr
ffffff8000ab75a8 S _chash_lck_grp
ffffff8000ab75a0 S _chash_lck_grp_attr
ffffff80004f5f80 T _chdir
ffffff800032b0a0 T _check_actforsig
ffffff800072fe40 T _check_for_dataless_file
ffffff8000309e90 T _check_for_tasksuspend
ffffff800072fdd0 T _check_for_tracked_file
ffffff80004e85f0 T _check_mountedon
ffffff80008364e0 T _check_policy_init
ffffff800033a6a0 T _check_task_access
ffffff80004fc150 T _chflags
ffffff80007a4c90 T _chgproccnt
ffffff8000525e40 T _chkvnlock
ffffff80004fc970 T _chmod
ffffff80004fc540 T _chmod_extended
ffffff80002fc270 T _choose_processor
ffffff80004fcdd0 T _chown
ffffff80004f62d0 T _chroot
ffffff8000828780 T _chrtoblk
ffffff80008287c0 T _chrtoblk_set
ffffff8000826480 T _chud
ffffff8000826470 T _chud_null_dtrace
ffffff80003f4310 T _chudxnu_cpu_alloc
ffffff80003f4430 T _chudxnu_cpu_free
ffffff80008264b0 T _chudxnu_dtrace_callback
ffffff80003a9ee0 T _chudxnu_get_thread_bits
ffffff80003a9e20 T _chudxnu_platform_ptr
ffffff80003a9e80 T _chudxnu_set_thread_ast
ffffff80003a9ef0 T _chudxnu_set_thread_bits
ffffff80003a9e30 T _chudxnu_thread_ast
ffffff8000a97e20 S _chudxnu_thread_ast_handler
ffffff80003a9f00 T _chudxnu_thread_get_dirty
ffffff80003a9f20 T _chudxnu_thread_set_dirty
ffffff80007d7780 T _cinit
ffffff8000a957e0 S _ciq
ffffff8000a6aeb0 D _cjk_encoding
ffffff8000ab75b8 S _cjk_lastunique
ffffff80007d7790 T _clalloc
ffffff80005f0b70 T _classq_init
ffffff8000aab5b0 S _classq_verbose
ffffff80003cf080 T _clear_fpu
ffffff80007b0b60 T _clear_procsiglist
ffffff8000312a00 T _clear_thread_rwlock_boost
ffffff80002fb650 T _clear_wait
ffffff80007d7880 T _clfree
ffffff80002e0420 T _clock_absolutetime_interval_to_deadline
ffffff80002dfd50 T _clock_adjtime
ffffff80002e0d60 T _clock_alarm
ffffff800032ca60 T _clock_alarm_reply
ffffff80002deec0 T _clock_config
ffffff8000a501f0 D _clock_count
ffffff80002e0470 T _clock_deadline_for_periodic_event
ffffff80002e01b0 T _clock_delay_until
ffffff80002e0cf0 T _clock_get_attributes
ffffff80002dfcd0 T _clock_get_boottime_nanotime
ffffff80002df320 T _clock_get_calendar_absolute_and_microtime
ffffff80002df310 T _clock_get_calendar_microtime
ffffff80002df420 T _clock_get_calendar_nanotime
ffffff80002e04b0 T _clock_get_calendar_nanotime_nowait
ffffff80003da7f0 T _clock_get_system_microtime
ffffff80003da850 T _clock_get_system_nanotime
ffffff80002e0cd0 T _clock_get_time
ffffff80002e0450 T _clock_get_uptime
ffffff80002df520 T _clock_gettimeofday
ffffff80003da8a0 T _clock_gettimeofday_set_commpage
ffffff80002df230 T _clock_init
ffffff80002df980 T _clock_initialize_calendar
ffffff80003daa60 T _clock_interval_to_absolutetime_interval
ffffff80002e03f0 T _clock_interval_to_deadline
ffffff8000a501c0 D _clock_list
ffffff8000a870f0 S _clock_lock
ffffff80002e06d0 T _clock_oldconfig
ffffff80002e0b60 T _clock_oldinit
ffffff800032c9e0 T _clock_priv_server
ffffff800032c750 T _clock_priv_server_routine
ffffff8000a02af8 S _clock_priv_subsystem
ffffff800032c6d0 T _clock_server
ffffff800032c270 T _clock_server_routine
ffffff80002e0bb0 T _clock_service_create
ffffff80002e0d40 T _clock_set_attributes
ffffff80002df6c0 T _clock_set_calendar_microtime
ffffff80002e0d20 T _clock_set_time
ffffff80002e1080 T _clock_sleep_trap
ffffff8000a02a60 S _clock_subsystem
ffffff80003da940 T _clock_timebase_info
ffffff80002df280 T _clock_timebase_init
ffffff80007a0ec0 T _cloneproc
ffffff8000786790 T _close
ffffff8000782130 T _close_internal_locked
ffffff80007867d0 T _close_nocancel
ffffff80007825a0 T _closef_locked
ffffff80003d1b90 T _clrbit
ffffff80007d7c80 T _clrbits
ffffff80004d5220 T _cluster_bp
ffffff80004d52a0 T _cluster_bp_ext
ffffff80004dc840 T _cluster_copy_ubc_data
ffffff80004d8f90 T _cluster_copy_upl_data
ffffff80004d32b0 T _cluster_init
ffffff80004dbca0 T _cluster_lock_direct_read
ffffff80004d5060 T _cluster_pagein
ffffff80004d5090 T _cluster_pagein_ext
ffffff80004d3630 T _cluster_pageout
ffffff80004d3660 T _cluster_pageout_ext
ffffff80004dc4d0 T _cluster_push
ffffff80004dc4e0 T _cluster_push_ext
ffffff80004d91b0 T _cluster_read
ffffff80004d91c0 T _cluster_read_ext
ffffff8000a30e14 D _cluster_transfer_minimum
ffffff80004dbea0 T _cluster_unlock_direct_read
ffffff80004d5320 T _cluster_write
ffffff80004d5350 T _cluster_write_ext
ffffff80004d34e0 T _cluster_zero
ffffff8000a86970 S _clustered_reads
ffffff8000a86860 S _clustered_writes
ffffff8000a86a7c S _clusters_available
ffffff8000a86a78 S _clusters_committed
ffffff8000a86a80 S _clusters_committed_peak
ffffff8000a6e3a4 D _cmask
ffffff80004b9b90 T _cmn_err
ffffff8000828830 T _cnclose
ffffff80003eadd0 T _cngetc
ffffff80008288f0 T _cnioctl
ffffff80003eae00 T _cnmaygetc
ffffff80008287f0 T _cnopen
ffffff80003ea880 T _cnputc
ffffff8000a9d798 S _cnputc_lock
ffffff80003ea750 T _cnputc_unbuffered
ffffff80003ea850 T _cnputcusr
ffffff8000828870 T _cnread
ffffff8000828930 T _cnselect
ffffff80008288b0 T _cnwrite
ffffff8000a65c90 D _coalesc_sz
ffffff8000a65ce8 D _coalesc_time
ffffff80007cdf10 T _coalition
ffffff80002e2160 T _coalition_create_internal
ffffff80002e2480 T _coalition_find_and_activate_by_id
ffffff80002e2380 T _coalition_find_by_id
ffffff80002e27a0 T _coalition_for_each_task
ffffff80002e32c0 T _coalition_get_leader
ffffff80002e3320 T _coalition_get_page_count
ffffff80002e34c0 T _coalition_get_pid_list
ffffff80002e3160 T _coalition_get_task_count
ffffff80002e2580 T _coalition_id
ffffff80007ce240 T _coalition_info
ffffff80002e3240 T _coalition_is_leader
ffffff80002e2690 T _coalition_is_privileged
ffffff800033e1b0 T _coalition_notification
ffffff80002e2d90 T _coalition_reap_internal
ffffff80002e2310 T _coalition_release
ffffff80002e27f0 T _coalition_remove_active
ffffff80002e2c70 T _coalition_request_terminate_internal
ffffff80002e1430 T _coalition_resource_usage_internal
ffffff80002e2f10 T _coalition_set_notify
ffffff80002e2ec0 T _coalition_should_notify
ffffff80002e2680 T _coalition_type
ffffff8000a87108 S _coalition_zone
ffffff80002e28d0 T _coalitions_adopt_init_task
ffffff80002e2910 T _coalitions_adopt_task
ffffff80002e30b0 T _coalitions_get_list
ffffff80002e2f70 T _coalitions_init
ffffff8000a87220 S _coalitions_lck_attr
ffffff8000a87110 S _coalitions_lck_grp
ffffff8000a87240 S _coalitions_lck_grp_attr
ffffff80002e2ad0 T _coalitions_remove_task
ffffff80002e2bc0 T _coalitions_set_roles
ffffff80007782f0 T _collectth_state
ffffff8000a31090 D _collision_backoffs
ffffff8000a9ae48 S _commPagePtr32
ffffff8000a9ae50 S _commPagePtr64
ffffff8000a9ae58 S _commPageTextPtr32
ffffff8000a9ae60 S _commPageTextPtr64
ffffff8000a97c08 S _commpage32_entry
ffffff8000a97bf8 S _commpage32_handle
ffffff8000a97c18 S _commpage32_map
ffffff8000a97c10 S _commpage64_entry
ffffff8000a97c00 S _commpage64_handle
ffffff8000a97c20 S _commpage64_map
ffffff8000a01000 S _commpage_32_routines
ffffff8000a01028 S _commpage_64_routines
ffffff80003dffd0 T _commpage_disable_timestamp
ffffff80003e0110 T _commpage_is_in_pfz32
ffffff80003e0140 T _commpage_is_in_pfz64
ffffff80003df1d0 T _commpage_populate
ffffff800028fcc4 T _commpage_sched_gen_inc
ffffff80003e0060 T _commpage_set_memory_pressure
ffffff80003dfef0 T _commpage_set_nanotime
ffffff80003e0090 T _commpage_set_spin_count
ffffff80003e0000 T _commpage_set_timestamp
ffffff8000a97c38 S _commpage_text32_entry
ffffff8000a97c28 S _commpage_text32_handle
ffffff8000a318d4 D _commpage_text32_location
ffffff8000a97c48 S _commpage_text32_map
ffffff8000a97c40 S _commpage_text64_entry
ffffff8000a97c30 S _commpage_text64_handle
ffffff8000a318d8 D _commpage_text64_location
ffffff8000a97c50 S _commpage_text64_map
ffffff80003dfcc0 T _commpage_text_populate
ffffff80003dfc10 T _commpage_update_active_cpus
ffffff80003dfc90 T _commpage_update_atm_diagnostic_config
ffffff80003dfc60 T _commpage_update_kdebug_enable
ffffff80003e00c0 T _commpage_update_mach_approximate_time
ffffff80003b61b0 T _comp_add_data
ffffff80003b61d0 T _comp_end
ffffff80003b61c0 T _comp_get_ratio
ffffff80003b61a0 T _comp_init
ffffff8000a915c8 S _compaction_swap_trigger_thread_awakened
ffffff8000a915b8 S _compaction_swapper_abort
ffffff8000a915b4 S _compaction_swapper_init_now
ffffff8000a915b0 S _compaction_swapper_inited
ffffff8000a8f950 S _compaction_swapper_running
ffffff8000866c50 T _compress
ffffff8000866b80 T _compress2
ffffff8000866c60 T _compressBound
ffffff8000a8f700 S _compressor_bytes_used
ffffff8000a8f918 S _compressor_cpus
ffffff8000a317bc D _compressor_eval_period_in_msecs
ffffff800034e3b0 T _compressor_memory_object_create
ffffff800034e0c0 T _compressor_memory_object_data_initialize
ffffff800034e1c0 T _compressor_memory_object_data_reclaim
ffffff800034df90 T _compressor_memory_object_data_request
ffffff800034e0a0 T _compressor_memory_object_data_return
ffffff800034e140 T _compressor_memory_object_data_unlock
ffffff800034dce0 T _compressor_memory_object_deallocate
ffffff800034ded0 T _compressor_memory_object_init
ffffff800034e1a0 T _compressor_memory_object_last_unmap
ffffff800034e180 T _compressor_memory_object_map
ffffff800034dca0 T _compressor_memory_object_reference
ffffff800034e160 T _compressor_memory_object_synchronize
ffffff800034df30 T _compressor_memory_object_terminate
ffffff8000a31830 D _compressor_object
ffffff8000a95334 S _compressor_object_lck_attr
ffffff8000a935f8 S _compressor_pager_lck_attr
ffffff8000a93600 S _compressor_pager_lck_grp
ffffff8000a935fc S _compressor_pager_lck_grp_attr
ffffff8000a059a0 S _compressor_pager_ops
ffffff800034e250 T _compressor_pager_slot_lookup
ffffff800034e1e0 T _compressor_pager_slots_chunk_free
ffffff8000a93718 S _compressor_pager_stats
ffffff8000a93710 S _compressor_pager_zone
ffffff8000a317c4 D _compressor_sample_max_in_msecs
ffffff8000a317c0 D _compressor_sample_min_in_msecs
ffffff8000a8f920 S _compressor_scratch_bufs
ffffff8000a8f8e8 S _compressor_segment_zone
ffffff8000a86000 S _compressor_store_stop_compaction
ffffff8000a317cc D _compressor_thrashing_min_per_10msecs
ffffff8000a317c8 D _compressor_thrashing_threshold_per_10msecs
ffffff80002f60b0 T _compute_averages
ffffff80007b6070 T _compute_averunnable
ffffff80006372a0 T _compute_iaj
ffffff800037e500 T _compute_memory_pressure
ffffff80003821f0 T _compute_pageout_gc_throttle
ffffff80003c6a10 T _compute_pmap_gc_throttle
ffffff8000302360 T _compute_stack_target
ffffff800034b780 T _compute_swapout_target_age
ffffff80003b13d0 T _compute_telemetry
ffffff80003b1420 T _compute_telemetry_windowed
ffffff8000329ba0 T _compute_zone_gc_throttle
ffffff80007ff450 T _connect
ffffff80007ff490 T _connect_nocancel
ffffff80007ff890 T _connectx
ffffff80008291d0 T _cons_cinput
ffffff8000a502a0 D _cons_ops
ffffff8000a502c0 D _cons_ops_index
ffffff80002f3e60 T _cons_putc_locked
ffffff80002f3fc0 T _consdebug_log
ffffff80002f3ea0 T _consdebug_putc
ffffff80002f3f30 T _consdebug_putc_unbuffered
ffffff8000a95648 S _consider_buffer_cache_collect
ffffff80003d7480 T _consider_machine_adjust
ffffff80003d7470 T _consider_machine_collect
ffffff800081f400 T _consider_vm_pressure_events
ffffff8000329ae0 T _consider_zone_gc
ffffff80002f3e00 T _conslog_putc
ffffff80003ea670 T _console_cpu_alloc
ffffff80003ea700 T _console_cpu_free
ffffff80003ea5b0 T _console_init
ffffff80003b0190 T _console_is_serial
ffffff80003ea730 T _console_set_serial_ops
ffffff8000abda08 S _constty
ffffff8000aab328 S _content_filters
ffffff80002e6ca0 T _convert_clock_ctrl_to_port
ffffff80002e6c90 T _convert_clock_to_port
ffffff80002e74e0 T _convert_host_to_port
ffffff80007bd1e0 T _convert_internal_pressure_level_to_dispatch_level
ffffff80002e97c0 T _convert_lock_set_to_port
ffffff80003525c0 T _convert_memory_object_to_port
ffffff80002e8f90 T _convert_mig_object_to_port
ffffff8000352550 T _convert_mo_control_to_port
ffffff8000372270 T _convert_port_entry_to_map
ffffff80003723a0 T _convert_port_entry_to_object
ffffff80002d76d0 T _convert_port_name_to_voucher
ffffff80002bb600 T _convert_port_to_UNDReply
ffffff80002e6bd0 T _convert_port_to_clock
ffffff80002e6c30 T _convert_port_to_clock_ctrl
ffffff80002e72c0 T _convert_port_to_host
ffffff80002e7320 T _convert_port_to_host_priv
ffffff80002e7560 T _convert_port_to_host_security
ffffff80002e97b0 T _convert_port_to_lock_set
ffffff80002eb530 T _convert_port_to_locked_task
ffffff80002eb760 T _convert_port_to_map
ffffff80003525b0 T _convert_port_to_memory_object
ffffff80002e9090 T _convert_port_to_mig_object
ffffff8000352540 T _convert_port_to_mo_control
ffffff80002e7380 T _convert_port_to_processor
ffffff80002e73e0 T _convert_port_to_pset
ffffff80002e7480 T _convert_port_to_pset_name
ffffff80002e9650 T _convert_port_to_semaphore
ffffff80002eb710 T _convert_port_to_space
ffffff80002eb5e0 T _convert_port_to_task
ffffff80002eb640 T _convert_port_to_task_name
ffffff80002eb6b0 T _convert_port_to_task_suspension_token
ffffff80002eb7d0 T _convert_port_to_thread
ffffff80003526b0 T _convert_port_to_upl
ffffff80002d7660 T _convert_port_to_voucher
ffffff80002d7950 T _convert_port_to_voucher_attr_control
ffffff80002e7500 T _convert_processor_to_port
ffffff80002e7540 T _convert_pset_name_to_port
ffffff80002e7520 T _convert_pset_to_port
ffffff80002e9690 T _convert_semaphore_to_port
ffffff80002ebad0 T _convert_task_name_to_port
ffffff80002eba20 T _convert_task_suspension_token_to_port
ffffff80002eb9c0 T _convert_task_to_port
ffffff80002ebb30 T _convert_thread_to_port
ffffff8000352710 T _convert_upl_to_port
ffffff80002d7a00 T _convert_voucher_attr_control_to_port
ffffff80002d77f0 T _convert_voucher_to_port
ffffff80003d9820 T _copy_debug_state32
ffffff80003d9860 T _copy_debug_state64
ffffff80004fe100 T _copyfile
ffffff80003d2f20 T _copyin
ffffff800035cea0 T _copyinmap
ffffff80003d2bc0 T _copyinmsg
ffffff80003d2f50 T _copyinstr
ffffff80003d2fa0 T _copyout
ffffff800035cf70 T _copyoutmap
ffffff80003d2f80 T _copyoutmsg
ffffff80008292a0 T _copyoutstr
ffffff80003d2fd0 T _copypv
ffffff800093db50 S _copyright
ffffff8000829320 T _copystr
ffffff8000829370 T _copywithin
ffffff8000778390 T _coredump
ffffff80003bebe0 T _coredumpok
ffffff8000a31730 D _corpse_enabled_config
ffffff800033a820 T _corpses_enabled
ffffff800033a7d0 T _corpses_init
ffffff8000a8ced4 S _corruption_debug_flag
ffffff80004cfd50 T _count_busy_buffers
ffffff80004cfd10 T _count_lock_queue
ffffff8000741880 T _cp_key_store_action
ffffff8000741890 T _cp_register_wraps
ffffff8000392930 T _cpm_allocate
ffffff80009310c8 S _cpu_64bit
ffffff80003e6870 T _cpu_NMI_interrupt
ffffff80003e6a00 T _cpu_PM_interrupt
ffffff80003c9a80 T _cpu_control
ffffff8000a9e0a0 S _cpu_core
ffffff80003c91a0 T _cpu_data_alloc
ffffff8000a31a50 D _cpu_data_ptr
ffffff80003c9830 T _cpu_data_realloc
ffffff80003c8c70 T _cpu_desc_init64
ffffff80003c9130 T _cpu_desc_load64
ffffff80003c9d90 T _cpu_exit_wait
ffffff80008373e0 T _cpu_in_cksum
ffffff80003c9ac0 T _cpu_info
ffffff80003c9aa0 T _cpu_info_count
ffffff80003c9b50 T _cpu_init
ffffff80003e67c0 T _cpu_interrupt
ffffff8000a50140 D _cpu_itime_bins
ffffff8000a9e098 S _cpu_list
ffffff8000a9e0a8 S _cpu_lock
ffffff80003c9ce0 T _cpu_machine_init
ffffff80003c97a0 T _cpu_mode_init
ffffff80003e87b0 T _cpu_number
ffffff80003dda20 T _cpu_pmc_control
ffffff80003dd8a0 T _cpu_powerstats
ffffff80003c9f50 T _cpu_processor_alloc
ffffff80003c9fd0 T _cpu_processor_free
ffffff8000a501a0 D _cpu_rtime_bins
ffffff80003e50f0 T _cpu_signal_handler
ffffff80003c9af0 T _cpu_sleep
ffffff80003c9c10 T _cpu_start
ffffff80003ca0e0 T _cpu_subtype
ffffff80003cc530 T _cpu_thread_alloc
ffffff80003cd8d0 T _cpu_thread_halt
ffffff80003cd800 T _cpu_thread_init
ffffff80003ca100 T _cpu_threadtype
ffffff8000a9ae90 S _cpu_to_lapic
ffffff80003ca020 T _cpu_to_processor
ffffff80003cdfe0 T _cpu_topology_sort
ffffff80003ce530 T _cpu_topology_start_cpu
ffffff80003ca0c0 T _cpu_type
ffffff8000a9d000 S _cpu_warm_call_arr
ffffff8000a9d780 S _cpu_warm_call_list
ffffff8000a3c518 D _cpudata_desc_pattern
ffffff80003cc0a0 T _cpuid_cpu_display
ffffff80003cc120 T _cpuid_cpufamily
ffffff80003cc1c0 T _cpuid_cpusubtype
ffffff80003cc170 T _cpuid_cputype
ffffff80003cbfb0 T _cpuid_extfeature_display
ffffff80003cc050 T _cpuid_extfeatures
ffffff80003cc0d0 T _cpuid_family
ffffff80003cbcc0 T _cpuid_feature_display
ffffff80003cbe00 T _cpuid_features
ffffff80003cbc60 T _cpuid_get_extfeature_names
ffffff80003cbb40 T _cpuid_get_feature_names
ffffff80003cbc90 T _cpuid_get_leaf7_feature_names
ffffff80003cbb00 T _cpuid_info
ffffff80003cbf60 T _cpuid_leaf7_features
ffffff80003ca120 T _cpuid_set_info
ffffff80003cc490 T _cpuid_vmm_family
ffffff80003cc220 T _cpuid_vmm_info
ffffff80003cc210 T _cpuid_vmm_present
ffffff8000a8c7bc S _cpumon_ustackshots_trigger_pct
ffffff80007418b0 T _cpx_alloc
ffffff80007418c0 T _cpx_free
ffffff80007418d0 T _cpx_is_sep_wrapped_key
ffffff8000741940 T _cpx_iv_aes_ctx
ffffff8000741930 T _cpx_key
ffffff8000741910 T _cpx_key_len
ffffff80007418e0 T _cpx_set_is_sep_wrapped_key
ffffff8000741920 T _cpx_set_key_len
ffffff8000741900 T _cpx_set_use_offset_for_iv
ffffff80007418a0 T _cpx_size
ffffff80007418f0 T _cpx_use_offset_for_iv
ffffff80004c24a0 T _crc32
ffffff8000525bc0 T _create_fsevent_from_kevent
ffffff80002c0b20 T _create_panic_header
ffffff80004b7b30 T _crgetgid
ffffff80004b7b60 T _crgetuid
ffffff8000a737f0 D _critical_threshold_percentage
ffffff80003b93b0 T _crypt_info_deallocate
ffffff80003b9740 T _crypt_info_reference
ffffff8000ab8790 S _cs_all_vnodes
ffffff800077eda0 T _cs_allow_invalid
ffffff800077f4a0 T _cs_blob_get
ffffff80007daed0 T _cs_blob_reset_cache
ffffff8000ab8780 S _cs_debug
ffffff800077efb0 T _cs_enforcement
ffffff8000ab8788 S _cs_enforcement_enable
ffffff8000ab8784 S _cs_enforcement_panic
ffffff8000a95048 S _cs_enter_tainted_accepted
ffffff8000a95040 S _cs_enter_tainted_rejected
ffffff800077f340 T _cs_entitlement_flags
ffffff800077f3d0 T _cs_entitlements_blob_get
ffffff8000ab877c S _cs_force_hard
ffffff8000ab8778 S _cs_force_kill
ffffff800077f500 T _cs_get_cdhash
ffffff800077f440 T _cs_identity_get
ffffff800077ec70 T _cs_init
ffffff800077edc0 T _cs_invalid_page
ffffff8000ab878c S _cs_library_val_enable
ffffff8000ab8770 S _cs_procs_invalidated
ffffff8000ab8768 S _cs_procs_killed
ffffff800077eff0 T _cs_require_lv
ffffff800077f350 T _cs_restricted
ffffff80007daf60 T _cs_validate_page
ffffff8000abcd28 S _cs_validate_page_bad_hash
ffffff8000abcd20 S _cs_validate_page_no_hash
ffffff80007d8780 T _csblob_find_blob
ffffff80007d86f0 T _csblob_find_blob_bytes
ffffff800077f100 T _csblob_get_cdhash
ffffff80007d8810 T _csblob_get_entitlements
ffffff800077f050 T _csblob_get_flags
ffffff800077f0c0 T _csblob_get_identity
ffffff800077f030 T _csblob_get_platform_binary
ffffff800077f0b0 T _csblob_get_teamid
ffffff800077f280 T _csfg_get_cdhash
ffffff800077f370 T _csfg_get_path
ffffff800077f220 T _csfg_get_platform_binary
ffffff800077f2e0 T _csfg_get_teamid
ffffff80007a7d30 T _csops
ffffff80007a8860 T _csops_audittoken
ffffff800077f060 T _csproc_get_blob
ffffff800077f180 T _csproc_get_platform_binary
ffffff800077f1d0 T _csproc_get_platform_path
ffffff800077f110 T _csproc_get_teamid
ffffff800077f580 T _csr_check
ffffff800077f560 T _csr_get_active_config
ffffff800077f540 T _csr_init
ffffff800077f6e0 T _csrctl
ffffff800077f090 T _csvnode_get_blob
ffffff800077f150 T _csvnode_get_teamid
ffffff80007dabf0 T _csvnode_print_debug
ffffff80002fc820 T _csw_check
ffffff80002fc880 T _csw_check_locked
ffffff8000a30dd8 D _cthread_stack_size
ffffff8000ab889c S _ctl_autorcvbuf_high
ffffff8000a6ef20 D _ctl_autorcvbuf_max
ffffff8000ab8898 S _ctl_debug
ffffff80007936e0 T _ctl_deregister
ffffff8000792c00 T _ctl_enqueuedata
ffffff8000792420 T _ctl_enqueuembuf
ffffff8000792950 T _ctl_enqueuembuf_list
ffffff8000792e20 T _ctl_getenqueuepacketcount
ffffff8000792f00 T _ctl_getenqueuereadable
ffffff8000792ea0 T _ctl_getenqueuespace
ffffff8000ab8888 S _ctl_head
ffffff80007938e0 T _ctl_id_by_name
ffffff80007939a0 T _ctl_name_by_id
ffffff8000792f50 T _ctl_register
ffffff8000572b60 T _ctrace_record
ffffff80007d8530 T _cttyioctl
ffffff80007d8110 T _cttyopen
ffffff80007d8390 T _cttyread
ffffff80007d8610 T _cttyselect
ffffff80007d84a0 T _cttywrite
ffffff8000754f10 T _currecord
ffffff80003d6360 T _current_act
ffffff8000a8724c S _current_debugger
ffffff80003724d0 T _current_map
ffffff80007a4830 T _current_persona_get
ffffff80008366b0 T _current_proc
ffffff80007a7d10 T _current_proc_EXTERNAL
ffffff80003ca000 T _current_processor
ffffff8000514470 T _current_rootdir
ffffff8000309eb0 T _current_task
ffffff80003d6370 T _current_thread
ffffff800032b750 T _current_thread_aborted
ffffff80007a6140 T _current_uthread
ffffff8000514370 T _current_workingdir
ffffff8000a9e0b8 S _cyc_lock
ffffff80004b82d0 T _cyclic_add
ffffff80004b8070 T _cyclic_add_omni
ffffff80004b8500 T _cyclic_remove
ffffff80004b81b0 T _cyclic_remove_omni
ffffff80004b7d40 T _cyclic_timer_add
ffffff80004b7fe0 T _cyclic_timer_remove
ffffff80002b0670 T _d_to_i
ffffff8000a67c80 D _dad6_mutex
ffffff80008eab80 T _db_dumpiojunk
ffffff80008eab70 T _db_piokjunk
ffffff8000a9ae80 S _db_run_mode
ffffff80003d28c0 T _dcache_incoherent_io_flush64
ffffff80003d27f0 T _dcache_incoherent_io_store64
ffffff80004b8a60 T _ddi_create_minor_node
ffffff80004b8a50 T _ddi_driver_major
ffffff80004b87a0 T _ddi_get_soft_state
ffffff80004b8ae0 T _ddi_getprop
ffffff80004b8a30 T _ddi_prop_free
ffffff80004b8980 T _ddi_prop_lookup_int_array
ffffff80004b8aa0 T _ddi_remove_minor_node
ffffff80004b8700 T _ddi_report_dev
ffffff80004b87f0 T _ddi_soft_state_fini
ffffff80004b87c0 T _ddi_soft_state_free
ffffff80004b8710 T _ddi_soft_state_init
ffffff80004b8780 T _ddi_soft_state_zalloc
ffffff8000525d50 T _dead_badop
ffffff8000525e10 T _dead_blktooff
ffffff8000525e30 T _dead_blockmap
ffffff8000525d80 T _dead_ebadf
ffffff8000525dc0 T _dead_ioctl
ffffff8000525d30 T _dead_lookup
ffffff8000aa26f0 S _dead_mountp
ffffff8000525e20 T _dead_offtoblk
ffffff8000525d70 T _dead_open
ffffff8000525d90 T _dead_read
ffffff8000ab64e8 S _dead_sah_count
ffffff8000ab64fc S _dead_sav_count
ffffff8000525dd0 T _dead_select
ffffff8000525de0 T _dead_strategy
ffffff8000a8c640 S _dead_task_statistics
ffffff8000a8c630 S _dead_task_statistics_lock
ffffff8000aa27f0 S _dead_vnode_waited
ffffff8000aa27ec S _dead_vnode_wanted
ffffff8000a5bcf0 D _dead_vnodeop_entries
ffffff8000a5bf30 D _dead_vnodeop_opv_desc
ffffff8000aa3d50 S _dead_vnodeop_p
ffffff8000525db0 T _dead_write
ffffff8000aa2838 S _deadvnodes
ffffff8000a9ae74 S _debug_boot_arg
ffffff8000a87280 S _debug_buf
ffffff8000a30fa8 D _debug_buf_addr
ffffff8000a30fb0 D _debug_buf_ptr
ffffff8000a30fb8 D _debug_buf_size
ffffff8000abec50 S _debug_container_malloc_size
ffffff80004b8b00 T _debug_enter
ffffff8000abec44 S _debug_iomalloc_size
ffffff8000abec48 S _debug_iomallocpageable_size
ffffff8000abdb68 S _debug_ivars_size
ffffff80002e3df0 T _debug_log_init
ffffff8000abec40 S _debug_malloc_size
ffffff8000a87254 S _debug_mode
ffffff80002e4020 T _debug_putc
ffffff80003d7320 T _debug_state_is_valid32
ffffff80003d7400 T _debug_state_is_valid64
ffffff8000a9aaa0 S _debug_task
ffffff8000a9b468 S _debugger_entry_time
ffffff8000a9b470 S _debugger_exit_time
ffffff8000a9d890 S _debugger_ptep
ffffff8000a9d888 S _debugger_window_kva
ffffff80005301a0 T _decmpfs_cnode_destroy
ffffff8000530350 T _decmpfs_cnode_get_vnode_cached_size
ffffff80005302b0 T _decmpfs_cnode_get_vnode_state
ffffff8000530090 T _decmpfs_cnode_init
ffffff80005302c0 T _decmpfs_cnode_set_vnode_state
ffffff8000aaa020 S _decmpfs_ctx
ffffff8000533d20 T _decmpfs_decompress_file
ffffff8000531050 T _decmpfs_file_is_compressed
ffffff8000533a20 T _decmpfs_free_compressed_data
ffffff8000531630 T _decmpfs_hides_rsrc
ffffff8000531710 T _decmpfs_hides_xattr
ffffff8000534ec0 T _decmpfs_init
ffffff8000530230 T _decmpfs_lock_compressed_data
ffffff8000531b30 T _decmpfs_pagein_compressed
ffffff8000532650 T _decmpfs_read_compressed
ffffff80005301c0 T _decmpfs_trylock_compressed_data
ffffff8000530280 T _decmpfs_unlock_compressed_data
ffffff8000531520 T _decmpfs_update_attributes
ffffff8000530360 T _decmpfs_validate_compressed_file
ffffff8000862590 T _decompress_lzss
ffffff8000a8f688 S _decompressions_blocked
ffffff8000a50294 D _deep_idle_rebase
ffffff8000aa3d20 S _def_tbuffer_size
ffffff8000a311dc D _default_bg_preemption_rate
ffffff80002b0450 T _default_pager
ffffff80002b5850 T _default_pager_add_file
ffffff8000a86848 S _default_pager_async_lock
ffffff80002b11b0 T _default_pager_backing_store_create
ffffff80002b4120 T _default_pager_backing_store_delete
ffffff80002b3c50 T _default_pager_backing_store_delete_internal
ffffff80002b13a0 T _default_pager_backing_store_info
ffffff80002b5e70 T _default_pager_backing_store_monitor
ffffff8000a86c98 S _default_pager_backing_store_monitor_timercallout
ffffff8000a867b8 S _default_pager_clsize
ffffff8000a86780 S _default_pager_default_set
ffffff8000a30de4 D _default_pager_external_count
ffffff8000a86790 S _default_pager_external_set
ffffff80002b09e0 T _default_pager_info
ffffff80002b0a30 T _default_pager_info_64
ffffff8000a30e18 D _default_pager_info_verbose
ffffff8000abd1e0 S _default_pager_init_flag
ffffff80002b08c0 T _default_pager_initialize
ffffff8000a30de0 D _default_pager_internal_count
ffffff8000a86788 S _default_pager_internal_set
ffffff8000a86768 S _default_pager_lck_attr
ffffff8000a86658 S _default_pager_lck_grp
ffffff8000a86778 S _default_pager_lck_grp_attr
ffffff80002b7320 T _default_pager_memory_object_create
ffffff8000a04548 S _default_pager_memory_object_default_subsystem
ffffff8000a86770 S _default_pager_object
ffffff80002b73f0 T _default_pager_object_create
ffffff80002b7a20 T _default_pager_object_pages
ffffff80002b8940 T _default_pager_object_server
ffffff80002b7f50 T _default_pager_object_server_routine
ffffff8000a011d8 S _default_pager_object_subsystem
ffffff80002b74c0 T _default_pager_objects
ffffff8000a01170 S _default_pager_ops
ffffff80002b7f00 T _default_pager_space_alert
ffffff80002b5c70 T _default_pager_triggers
ffffff8000a311d8 D _default_preemption_rate
ffffff8000930ea8 S _default_task_effective_policy
ffffff8000930eb0 S _default_task_pended_policy
ffffff8000930ea0 S _default_task_requested_policy
ffffff8000a8b54c S _default_timeshare_computation
ffffff8000a8b550 S _default_timeshare_constraint
ffffff8000ab62f0 S _defaultaddrpolicy
ffffff8000868d40 T _deflate
ffffff8000869790 T _deflateBound
ffffff80008697e0 T _deflateCopy
ffffff80008675b0 T _deflateEnd
ffffff8000867350 T _deflateInit2_
ffffff8000867320 T _deflateInit_
ffffff8000868c50 T _deflateParams
ffffff8000868c10 T _deflatePrime
ffffff8000867680 T _deflateReset
ffffff8000868ba0 T _deflateResetWithIO
ffffff8000868a40 T _deflateSetDictionary
ffffff8000868be0 T _deflateSetHeader
ffffff8000869750 T _deflateTune
ffffff800094e2d0 S _deflate_copyright
ffffff80006d5340 T _defrouter_lookup
ffffff80006d7240 T _defrouter_reset
ffffff80006d5910 T _defrouter_select
ffffff80006d7540 T _defrtrlist_add_static
ffffff80006d54f0 T _defrtrlist_del
ffffff80006d75f0 T _defrtrlist_del_static
ffffff80006d73a0 T _defrtrlist_ioctl
ffffff80002e03b0 T _delay
ffffff80002e0340 T _delay_for_interval
ffffff80002e0370 T _delay_for_interval_with_leeway
ffffff8000a9ad38 S _delay_spin_threshold
ffffff8000a86074 S _delayed_trim_handling_in_progress
ffffff80004f9d30 T _delete
ffffff8000a737e8 D _delta_percentage
ffffff8000871780 T _des3_cbc_encrypt
ffffff80008716f0 T _des3_cbc_key_sched
ffffff800044b1f0 T _des3_derive_key
ffffff8000871520 T _des3_ecb_encrypt
ffffff8000871490 T _des3_ecb_key_sched
ffffff800044b080 T _des3_make_key
ffffff8000871870 T _des_cbc_cksum
ffffff8000871600 T _des_cbc_encrypt
ffffff8000871570 T _des_cbc_key_sched
ffffff8000871440 T _des_ecb_encrypt
ffffff80008713b0 T _des_ecb_key_sched
ffffff8000871950 T _des_fixup_key_parity
ffffff8000871970 T _des_is_weak_key
ffffff8000a9e540 S _desiredNegNodes
ffffff8000a9e544 S _desiredNodes
ffffff8000a5a420 D _desireddquot
ffffff8000abd844 S _desiredvnodes
ffffff8000689570 T _dest6_input
ffffff800052b770 T _dev_add_entry
ffffff800052bbb0 T _dev_add_name
ffffff800052b890 T _dev_add_node
ffffff800052c7b0 T _dev_dup_plane
ffffff800052be60 T _dev_findname
ffffff800052c4f0 T _dev_free_name
ffffff8000a9e480 S _dev_kmem_enabled
ffffff80004c10f0 T _dev_kmem_init
ffffff8000a9e484 S _dev_kmem_mask_top_bit
ffffff8000a97e00 S _dev_lck_attr
ffffff8000a97df8 S _dev_lck_grp
ffffff8000a97df0 S _dev_lck_grp_attr
ffffff8000aa9fb8 S _dev_root
ffffff8000a5c429 D _devcls
ffffff8000aa9fe8 S _devfs_attr_mutex
ffffff8000526a90 T _devfs_devfd_lookup
ffffff8000526be0 T _devfs_devfd_readdir
ffffff8000a5cfd0 D _devfs_devfd_vnodeop_opv_desc
ffffff8000aaa010 S _devfs_devfd_vnodeop_p
ffffff800052c980 T _devfs_dntovn
ffffff8000526530 T _devfs_fdesc_init
ffffff8000526600 T _devfs_fdesc_makelinks
ffffff8000a5bf40 D _devfs_fdesc_vnodeop_entries
ffffff8000a5c190 D _devfs_fdesc_vnodeop_opv_desc
ffffff800052c8d0 T _devfs_free_plane
ffffff800052ffd0 T _devfs_kernel_mount
ffffff8000aa9fd0 S _devfs_lck_attr
ffffff8000aa9fc8 S _devfs_lck_grp
ffffff8000aa9fc0 S _devfs_lck_grp_attr
ffffff800052d7f0 T _devfs_make_link
ffffff800052d780 T _devfs_make_node
ffffff800052cdc0 T _devfs_make_node_clone
ffffff800052f820 T _devfs_make_symlink
ffffff800052f9c0 T _devfs_mount
ffffff8000aa9fd8 S _devfs_mutex
ffffff800052cdb0 T _devfs_ref_node
ffffff800052cd20 T _devfs_rele_node
ffffff800052bf80 T _devfs_remove
ffffff800052b600 T _devfs_sinit
ffffff8000a5cfe0 D _devfs_spec_vnodeop_opv_desc
ffffff8000aaa018 S _devfs_spec_vnodeop_p
ffffff8000aa9ff8 S _devfs_stats
ffffff8000a5cff0 D _devfs_vfsops
ffffff8000a5ca28 D _devfs_vnodeop_opv_desc
ffffff8000aaa008 S _devfs_vnodeop_p
ffffff80008cd780 T _device_close
ffffff80008cd630 T _device_data_action
ffffff800034f7c0 T _device_object_create
ffffff800034f710 T _device_pager_bootstrap
ffffff800034f6a0 T _device_pager_data_initialize
ffffff800034f640 T _device_pager_data_request
ffffff800034f670 T _device_pager_data_return
ffffff800034f6c0 T _device_pager_data_unlock
ffffff800034f4c0 T _device_pager_deallocate
ffffff800034f530 T _device_pager_init
ffffff800034f700 T _device_pager_last_unmap
ffffff800034f8f0 T _device_pager_lookup
ffffff800034f6f0 T _device_pager_map
ffffff8000a05a08 S _device_pager_ops
ffffff800034f810 T _device_pager_populate_object
ffffff800034f4a0 T _device_pager_reference
ffffff800034f740 T _device_pager_setup
ffffff800034f6d0 T _device_pager_synchronize
ffffff800034f630 T _device_pager_terminate
ffffff8000a94fc0 S _device_pager_zone
ffffff80003a8cb0 T _device_service_create
ffffff8000a5c415 D _devin
ffffff8000a5c407 D _devio
ffffff8000a5c422 D _devioc
ffffff800052bf20 T _devnode_free
ffffff8000a5c400 D _devopn
ffffff8000a5c41b D _devout
ffffff8000837360 T _devsw_init
ffffff8000837170 T _devsw_lock
ffffff8000abdb38 S _devsw_lock_grp
ffffff8000abdb18 S _devsw_lock_list_mtx
ffffff8000abdb28 S _devsw_locks
ffffff8000837290 T _devsw_unlock
ffffff8000a5c40d D _devwait
ffffff8000a9ada4 S _dgWork
ffffff8000601db0 T _dhcpol_add
ffffff8000601f20 T _dhcpol_concat
ffffff8000601e90 T _dhcpol_count
ffffff8000601eb0 T _dhcpol_element
ffffff80006020c0 T _dhcpol_find
ffffff8000601ee0 T _dhcpol_free
ffffff8000601ed0 T _dhcpol_init
ffffff8000601ff0 T _dhcpol_parse_buffer
ffffff8000602160 T _dhcpol_parse_packet
ffffff80008fa300 T _di_root_image
ffffff80008fa750 T _di_root_ramfile
ffffff80003dd100 T _diagCall64
ffffff8000a9ada0 S _diag_pmc_enabled
ffffff80003f1dc0 T _dim_screen
ffffff8000a0cef0 S _dis_distable
ffffff8000a0bef0 S _dis_op0F
ffffff800093e260 S _dis_op0F00
ffffff800093e2e0 S _dis_op0F01
ffffff800093e360 S _dis_op0F18
ffffff80009449e0 S _dis_op0F38
ffffff80009449a0 S _dis_op0F38F0
ffffff80009449c0 S _dis_op0F38F1
ffffff80009459e0 S _dis_op0F3A
ffffff800093e5a0 S _dis_op0F7123
ffffff800093e3e0 S _dis_op0FAE
ffffff800093e460 S _dis_op0FBA
ffffff800093e4e0 S _dis_op0FC7
ffffff800093e560 S _dis_op0FC8
ffffff80009489e0 S _dis_op80
ffffff8000948a60 S _dis_op81
ffffff8000948ae0 S _dis_op82
ffffff8000948b60 S _dis_op83
ffffff80009479e0 S _dis_opAVX0F
ffffff800093f9a0 S _dis_opAVX660F
ffffff8000a0aef0 S _dis_opAVX660F38
ffffff80009469e0 S _dis_opAVX660F3A
ffffff80009419a0 S _dis_opAVXF20F
ffffff80009439a0 S _dis_opAVXF30F
ffffff8000948be0 S _dis_opC0
ffffff8000948ce0 S _dis_opC1
ffffff8000948c60 S _dis_opD0
ffffff8000948d60 S _dis_opD1
ffffff8000948de0 S _dis_opD2
ffffff8000948e60 S _dis_opD3
ffffff8000948ee0 S _dis_opF6
ffffff8000948f60 S _dis_opF7
ffffff8000948fe0 S _dis_opFE
ffffff8000949060 S _dis_opFF
ffffff80009490e0 S _dis_opFP1n2
ffffff80009494e0 S _dis_opFP3
ffffff80009498e0 S _dis_opFP4
ffffff8000949ae0 S _dis_opFP5
ffffff8000949b60 S _dis_opFP6
ffffff8000949be0 S _dis_opFP7
ffffff800093e238 S _dis_opMOVSLD
ffffff800093e248 S _dis_opPause
ffffff800093e7a0 S _dis_opSIMD7123
ffffff800093e9a0 S _dis_opSIMDdata16
ffffff80009409a0 S _dis_opSIMDrepnz
ffffff80009429a0 S _dis_opSIMDrepz
ffffff8000abda1c S _disableConsoleOutput
ffffff8000a8d4e8 S _disable_atm
ffffff8000a30fa0 D _disable_debug_output
ffffff8000a8c620 S _disable_exc_resource
ffffff8000a8107c D _disable_serial_output
ffffff800076cce0 T _disable_wrap
ffffff8000800550 T _disconnectx
ffffff80006182b0 T _div_init
ffffff8000618490 T _div_input
ffffff8000a61fc8 D _div_usrreqs
ffffff80006184b0 T _divert_packet
ffffff8000a5d608 D _dlil_dbgrate
ffffff8000aaa138 S _dlil_filter_disable_tso_count
ffffff8000555c20 T _dlil_if_free
ffffff8000555bb0 T _dlil_if_ref
ffffff800055a960 T _dlil_ifaddr_bytes
ffffff800054e070 T _dlil_init
ffffff8000aaa13c S _dlil_lladdr_ckreq
ffffff800055a700 T _dlil_node_absent
ffffff800055a410 T _dlil_node_present
ffffff8000554680 T _dlil_output
ffffff800055aa60 T _dlil_report_issues
ffffff8000555650 T _dlil_resolve_multi
ffffff8000553260 T _dlil_rxpoll_get_params
ffffff80005511f0 T _dlil_rxpoll_set_params
ffffff8000aaa140 S _dlil_verbose
ffffff8000abdb44 S _dmmax
ffffff8000abdb40 S _dmmin
ffffff8000abdb48 S _dmtext
ffffff80006198d0 T _dn_ipfw_rule_delete
ffffff800052f910 T _dn_mark_for_delayed_times_update
ffffff800052f700 T _dn_times_locked
ffffff800052f950 T _dn_times_now
ffffff80007b3ce0 T _do_bsdexception
ffffff8000349d30 T _do_fastwake_warmup
ffffff800028fcc0 T _do_mfence
ffffff80002bd560 T _do_stackshot
ffffff8000a9ab10 S _doconstro_override
ffffff80007db9f0 T _domain_guard_deploy
ffffff80007dba70 T _domain_guard_release
ffffff8000abcd38 S _domain_proto_mtx_attr
ffffff8000abcd30 S _domain_proto_mtx_grp
ffffff80007dc130 T _domain_proto_mtx_lock_assert_held
ffffff80007ddae0 T _domain_proto_mtx_lock_assert_notheld
ffffff80007ddb00 T _domain_unguard_deploy
ffffff80007ddb80 T _domain_unguard_release
ffffff80007dcb00 T _domaininit
ffffff8000ab8540 S _domainname
ffffff8000ab8640 S _domainnamelen
ffffff8000a7a538 D _domains
ffffff80007c6c30 T _donefileread
ffffff80007acf50 T _donice
ffffff8000a8f6d0 S _dont_trim_until_ts
ffffff8000a310b8 D _doprnt_hide_pointers
ffffff80007ad290 T _dosetrlimit
ffffff80004f3170 T _dounmount
ffffff80004f39e0 T _dounmount_submounts
ffffff8000a86800 S _dp_encryption
ffffff8000a867fc S _dp_encryption_inited
ffffff8000a86804 S _dp_isssd
ffffff80002b6ae0 T _dp_memory_object_data_initialize
ffffff80002b6cd0 T _dp_memory_object_data_reclaim
ffffff80002b65f0 T _dp_memory_object_data_request
ffffff80002b68c0 T _dp_memory_object_data_return
ffffff80002b6bd0 T _dp_memory_object_data_unlock
ffffff80002b60b0 T _dp_memory_object_deallocate
ffffff80002b6370 T _dp_memory_object_init
ffffff80002b6cb0 T _dp_memory_object_last_unmap
ffffff80002b6c90 T _dp_memory_object_map
ffffff80002b6070 T _dp_memory_object_reference
ffffff8000a04198 S _dp_memory_object_subsystem
ffffff80002b6c00 T _dp_memory_object_synchronize
ffffff80002b6410 T _dp_memory_object_terminate
ffffff8000a86810 S _dp_pages_free
ffffff8000a867c4 S _dp_pages_free_drift_count
ffffff8000a867c8 S _dp_pages_free_drifted_max
ffffff8000a86814 S _dp_pages_reserve
ffffff80002b06b0 T _dp_parse_argument
ffffff8000a86640 S _dpt_array
ffffff8000a86648 S _dpt_lock
ffffff8000aa2748 S _dqdirtylist
ffffff80004e0d50 T _dqfileclose
ffffff80004e0ab0 T _dqfileinit
ffffff80004e0ae0 T _dqfileopen
ffffff80004e2280 T _dqflush
ffffff8000aa2738 S _dqfreelist
ffffff80004e0f50 T _dqget
ffffff8000aa2758 S _dqhash
ffffff80004e07c0 T _dqhashinit
ffffff8000aa2730 S _dqhashtbl
ffffff80004e0600 T _dqinit
ffffff80004e07a0 T _dqisinitialized
ffffff80004e0840 T _dqlock
ffffff80004e1ed0 T _dqreclaim
ffffff80004e1bd0 T _dqrele
ffffff80004e21a0 T _dqsync
ffffff80004e1fe0 T _dqsync_orphans
ffffff80004e08b0 T _dqunlock
ffffff80002f28e0 T _dsmos_page_transform
ffffff80002f28b0 T _dsmos_page_transform_hook
ffffff80004b8b10 T _dt_kmem_alloc
ffffff80004b8b90 T _dt_kmem_alloc_aligned
ffffff80004b8b70 T _dt_kmem_free
ffffff80004b8c50 T _dt_kmem_free_aligned
ffffff80004b8b30 T _dt_kmem_zalloc
ffffff80004b8be0 T _dt_kmem_zalloc_aligned
ffffff80004b7a80 T _dtrace_CRED
ffffff80004b8fb0 T _dtrace_abs_to_nano
ffffff8000a2f160 D _dtrace_actions_max
ffffff8000a2f1a8 D _dtrace_aggrate_default
ffffff80002933e0 T _dtrace_assfail
ffffff8000297000 T _dtrace_attached
ffffff8000a85008 S _dtrace_buffer_memory_inuse
ffffff8000a85000 S _dtrace_buffer_memory_maxsize
ffffff80003135f0 T _dtrace_calc_thread_recent_vtime
ffffff80004b9cd0 T _dtrace_caller
ffffff80004b7780 T _dtrace_can_attach_to_proc
ffffff80004b9080 T _dtrace_cas32
ffffff80004b90a0 T _dtrace_casptr
ffffff8000a2f208 D _dtrace_chill_interval
ffffff8000a2f200 D _dtrace_chill_max
ffffff8000a2f190 D _dtrace_cleanrate_default
ffffff8000a2f1a0 D _dtrace_cleanrate_max
ffffff8000a2f198 D _dtrace_cleanrate_min
ffffff8000297020 T _dtrace_condense
ffffff80004b9130 T _dtrace_copyin
ffffff80004b92b0 T _dtrace_copyinstr
ffffff80003bebd0 T _dtrace_copyio_postflight
ffffff80003beb60 T _dtrace_copyio_preflight
ffffff80004b9350 T _dtrace_copyout
ffffff80004b93e0 T _dtrace_copyoutstr
ffffff8000a9e038 S _dtrace_cpu_init
ffffff80004b7bb0 T _dtrace_cpu_state_changed
ffffff8000a9e090 S _dtrace_cpu_state_changed_hook
ffffff8000a9e068 S _dtrace_cpustart_fini
ffffff8000a9e060 S _dtrace_cpustart_init
ffffff8000a2f218 D _dtrace_deadman_interval
ffffff8000a2f220 D _dtrace_deadman_timeout
ffffff8000a2f228 D _dtrace_deadman_user
ffffff8000a9e078 S _dtrace_debugger_fini
ffffff8000a9e070 S _dtrace_debugger_init
ffffff8000a85010 S _dtrace_destructive_disallow
ffffff8000a2f210 D _dtrace_devdepth_max
ffffff8000a2f140 D _dtrace_difo_maxsize
ffffff80008300d0 T _dtrace_disx86
ffffff8000a2f148 D _dtrace_dof_maxsize
ffffff8000a2f180 D _dtrace_dstate_defsize
ffffff8000a85030 S _dtrace_err_verbose
ffffff8000a9e080 S _dtrace_fasttrap_exec_ptr
ffffff8000a9e088 S _dtrace_fasttrap_exit_ptr
ffffff80004b7250 T _dtrace_fasttrap_fork
ffffff8000a9e000 S _dtrace_fasttrap_fork_ptr
ffffff8000a9e030 S _dtrace_fasttrap_probe_ptr
ffffff80004b7740 T _dtrace_fbt_probes_restricted
ffffff80004b9580 T _dtrace_fuword16
ffffff80004b9660 T _dtrace_fuword32
ffffff80004b9740 T _dtrace_fuword64
ffffff80004b94a0 T _dtrace_fuword8
ffffff80003c8700 T _dtrace_get_cpu_int_stack_top
ffffff80003135d0 T _dtrace_get_kernel_stack
ffffff8000313570 T _dtrace_get_thread_last_cpu_id
ffffff8000313530 T _dtrace_get_thread_predcache
ffffff80003135b0 T _dtrace_get_thread_reentering
ffffff8000313590 T _dtrace_get_thread_tracing
ffffff8000313550 T _dtrace_get_thread_vtime
ffffff800082ca10 T _dtrace_getarg
ffffff80004b8f80 T _dtrace_gethrestime
ffffff80004b9000 T _dtrace_gethrtime
ffffff800082bbf0 T _dtrace_getipl
ffffff800082c840 T _dtrace_getpcstack
ffffff800082bcd0 T _dtrace_getreg
ffffff80004b9ce0 T _dtrace_getstackdepth
ffffff800082c660 T _dtrace_getufpstack
ffffff800082be80 T _dtrace_getupcstack
ffffff800082c580 T _dtrace_getustackdepth
ffffff8000a2f170 D _dtrace_helper_actions_max
ffffff8000a2f178 D _dtrace_helper_providers_max
ffffff8000a9e050 S _dtrace_helpers_cleanup
ffffff8000a9e058 S _dtrace_helpers_fork
ffffff8000a85068 S _dtrace_helptrace_buffer
ffffff8000a2f230 D _dtrace_helptrace_bufsize
ffffff8000a85020 S _dtrace_helptrace_enabled
ffffff8000a8501c S _dtrace_helptrace_next
ffffff8000a85064 S _dtrace_helptrace_nlocals
ffffff800029ae70 T _dtrace_init
ffffff80004b7b90 T _dtrace_install_cpu_hooks
ffffff8000830050 T _dtrace_instr_size
ffffff800082ff90 T _dtrace_instr_size_isa
ffffff80004b7ce0 T _dtrace_interrupt_disable
ffffff80004b7d00 T _dtrace_interrupt_enable
ffffff8000296fb0 T _dtrace_invalidate
ffffff80004b75a0 T _dtrace_invop
ffffff80004b75f0 T _dtrace_invop_add
ffffff8000a9e028 S _dtrace_invop_hdlr
ffffff80004b7640 T _dtrace_invop_remove
ffffff80004b76d0 T _dtrace_is_restricted
ffffff80004b7700 T _dtrace_is_running_apple_internal
ffffff800082bcc0 T _dtrace_isa_init
ffffff8000a2f1e8 D _dtrace_jstackframes_default
ffffff8000a2f1f0 D _dtrace_jstackstrsize_default
ffffff8000a85060 S _dtrace_kernel_symbol_mode
ffffff80002980d0 T _dtrace_lazy_dofs_destroy
ffffff8000298150 T _dtrace_lazy_dofs_duplicate
ffffff8000a85040 S _dtrace_lck_attr
ffffff8000a85050 S _dtrace_lck_grp
ffffff8000a85048 S _dtrace_lck_grp_attr
ffffff8000293520 T _dtrace_load16
ffffff8000293650 T _dtrace_load32
ffffff8000293770 T _dtrace_load64
ffffff8000293410 T _dtrace_load8
ffffff8000a85018 S _dtrace_max_cpus
ffffff800082bbe0 T _dtrace_membar_consumer
ffffff800082bbd0 T _dtrace_membar_producer
ffffff8000297a80 T _dtrace_meta_register
ffffff8000298010 T _dtrace_meta_unregister
ffffff8000a85058 S _dtrace_modctl_list
ffffff8000a9e040 S _dtrace_modload
ffffff8000a9e048 S _dtrace_modunload
ffffff8000a2f1f8 D _dtrace_msgdsize_max
ffffff8000a2f138 D _dtrace_nonroot_maxsize
ffffff8000a2f1c8 D _dtrace_nspec_default
ffffff8000abdb10 S _dtrace_pid_probe_ptr
ffffff800029b3e0 T _dtrace_postinit
ffffff8000a53ad0 D _dtrace_predcache_id
ffffff8000293890 T _dtrace_probe
ffffff8000297a00 T _dtrace_probe_arg
ffffff8000297190 T _dtrace_probe_create
ffffff800082bb90 T _dtrace_probe_error
ffffff8000297660 T _dtrace_probe_lookup
ffffff8000a85038 S _dtrace_probe_t_zone
ffffff8000a85034 S _dtrace_probeid_error
ffffff8000a9e008 S _dtrace_proc_awaited_head
ffffff80007a5aa0 T _dtrace_proc_selfpid
ffffff80007a5af0 T _dtrace_proc_selfppid
ffffff80007a5b40 T _dtrace_proc_selfruid
ffffff80004b7270 T _dtrace_proc_waitfor
ffffff8000a9e010 S _dtrace_proc_waitfor_exec_ptr
ffffff8000a9e018 S _dtrace_procwaitfor_lock
ffffff8000a85014 S _dtrace_provide_private_probes
ffffff80004b6e10 T _dtrace_ptss_allocate_page
ffffff80004b6f80 T _dtrace_ptss_claim_entry
ffffff80004b6d70 T _dtrace_ptss_claim_entry_locked
ffffff80004b70b0 T _dtrace_ptss_enable
ffffff80004b7110 T _dtrace_ptss_exec_exit
ffffff80004b7180 T _dtrace_ptss_fork
ffffff80004b7040 T _dtrace_ptss_free_page
ffffff80004b7000 T _dtrace_ptss_release_entry
ffffff8000296480 T _dtrace_register
ffffff80004b76c0 T _dtrace_restriction_policy_load
ffffff80002982b0 T _dtrace_resume
ffffff8000a2f168 D _dtrace_retain_max
ffffff8000abdb08 S _dtrace_return_probe_ptr
ffffff800082cdc0 T _dtrace_safe_defer_signal
ffffff800082cdb0 T _dtrace_safe_synchronous_signal
ffffff8000313640 T _dtrace_set_thread_predcache
ffffff80003136c0 T _dtrace_set_thread_recover
ffffff80003136a0 T _dtrace_set_thread_reentering
ffffff8000313680 T _dtrace_set_thread_tracing
ffffff8000313660 T _dtrace_set_thread_vtime
ffffff8000a2f1d0 D _dtrace_specsize_default
ffffff8000a2f1d8 D _dtrace_stackframes_default
ffffff8000a2f1b0 D _dtrace_statusrate_default
ffffff8000a2f1b8 D _dtrace_statusrate_max
ffffff8000a2f150 D _dtrace_statvar_maxsize
ffffff8000a2f158 D _dtrace_statvar_maxsize_max
ffffff8000a2f188 D _dtrace_strsize_default
ffffff8000298240 T _dtrace_suspend
ffffff8000a2f1c0 D _dtrace_switchrate_default
ffffff80004b90c0 T _dtrace_sync
ffffff80004bc100 T _dtrace_systrace_syscall
ffffff80004bc780 T _dtrace_systrace_syscall_return
ffffff80004b9ae0 T _dtrace_tally_fault
ffffff80003136e0 T _dtrace_thread_bootstrap
ffffff8000313730 T _dtrace_thread_didexec
ffffff80004b8650 T _dtrace_timeout
ffffff800082cb10 T _dtrace_toxic_ranges
ffffff8000296af0 T _dtrace_unregister
ffffff800082cb40 T _dtrace_user_probe
ffffff8000a2f1e0 D _dtrace_ustackframes_default
ffffff8000a9dff8 S _dtrace_vtime_active
ffffff80004b9db0 T _dtrace_vtime_disable
ffffff80004b9da0 T _dtrace_vtime_enable
ffffff800082bc10 T _dtrace_xcall
ffffff8000930ba0 S _dtrace_zero
ffffff8000aab930 S _dummynet_debug
ffffff8000619b60 T _dummynet_drain
ffffff8000ab841c S _dumpdev
ffffff8000ab8420 S _dumplo
ffffff80007813c0 T _dup
ffffff8000781bb0 T _dup2
ffffff80007fe150 T _dup_sockaddr
ffffff8000789700 T _dupfdopen
ffffff8000ab64f8 S _dying_sav_count
ffffff8000a97dd0 S _dynamic_pager_control_port
ffffff8000a9ab88 S _eHIB
ffffff80003b3e50 T _early_random
ffffff8000a64224 D _early_rexmt
ffffff8000a9abd0 S _econstdata
ffffff8000a9abb0 S _edata
ffffff8000abcd50 S _embutl
ffffff8000a86c88 S _emergency_segment_backing_store
ffffff8000ab64ec S _empty_sah_count
ffffff800076cd70 T _enable_wrap
ffffff80004f1940 T _enablequotas
ffffff8000659370 T _encap4_init
ffffff8000659410 T _encap4_input
ffffff80006593c0 T _encap6_init
ffffff8000659880 T _encap6_input
ffffff8000659a60 T _encap_attach
ffffff8000659d80 T _encap_attach_func
ffffff8000659e70 T _encap_detach
ffffff8000659ee0 T _encap_getarg
ffffff8000aad390 S _encaptab
ffffff8000774040 T _encode_comp_t
ffffff8000ab75e0 S _encodinglst_lck_attr
ffffff8000ab75d8 S _encodinglst_lck_grp
ffffff8000ab75d0 S _encodinglst_lck_grp_attr
ffffff8000ab75e8 S _encodinglst_mutex
ffffff8000a9ace8 S _end
ffffff80007c6770 T _enodev
ffffff80007c6780 T _enodev_strat
ffffff80007c67a0 T _enoioctl
ffffff80007c67b0 T _enosys
ffffff80007a6a80 T _enterpgrp
ffffff80003b3cc0 T _entropy_buffer_read
ffffff8000a981b8 S _entropy_lock
ffffff80007c6790 T _enxio
ffffff80007c67c0 T _eopnotsupp
ffffff8000a31980 D _erandom_custom
ffffff8000a981d0 S _erandom_info
ffffff8000a981c0 S _erandom_seed
ffffff8000a981b0 S _erandom_seed_set
ffffff8000a98300 S _erandom_state
ffffff8000505f00 T _err_access
ffffff8000506230 T _err_advlock
ffffff8000506260 T _err_allocate
ffffff8000506460 T _err_blktooff
ffffff80005064d0 T _err_blockmap
ffffff8000506290 T _err_bwrite
ffffff8000505ee0 T _err_close
ffffff8000506430 T _err_copyfile
ffffff8000505e60 T _err_create
ffffff8000505fe0 T _err_exchange
ffffff8000506050 T _err_fsync
ffffff8000505f20 T _err_getattr
ffffff80005061b0 T _err_inactive
ffffff8000505fa0 T _err_ioctl
ffffff8000506090 T _err_link
ffffff80005060d0 T _err_mkdir
ffffff8000505ea0 T _err_mknod
ffffff8000506030 T _err_mmap
ffffff80005064a0 T _err_offtoblk
ffffff8000505ec0 T _err_open
ffffff80005062f0 T _err_pagein
ffffff8000506390 T _err_pageout
ffffff8000506210 T _err_pathconf
ffffff8000505f60 T _err_read
ffffff8000506130 T _err_readdir
ffffff8000506160 T _err_readdirattr
ffffff8000506190 T _err_readlink
ffffff80005061d0 T _err_reclaim
ffffff8000506070 T _err_remove
ffffff80005060b0 T _err_rename
ffffff8000506000 T _err_revoke
ffffff80005060f0 T _err_rmdir
ffffff8000506400 T _err_searchfs
ffffff8000505fc0 T _err_select
ffffff8000505f40 T _err_setattr
ffffff80005061f0 T _err_strategy
ffffff8000506110 T _err_symlink
ffffff8000505e80 T _err_whiteout
ffffff8000505f80 T _err_write
ffffff80007c67f0 T _errsys
ffffff80007a20d0 T _escape_str
ffffff800067d490 T _esp4_input
ffffff800067fd60 T _esp4_output
ffffff800067fc30 T _esp6_ctlinput
ffffff800067e730 T _esp6_input
ffffff8000680df0 T _esp6_output
ffffff8000680e60 T _esp_aes_schedlen
ffffff8000680e70 T _esp_aes_schedule
ffffff800067ba90 T _esp_algorithm_lookup
ffffff800067d210 T _esp_auth
ffffff8000680f50 T _esp_cbc_decrypt_aes
ffffff8000681490 T _esp_cbc_encrypt_aes
ffffff80006821b0 T _esp_gcm_decrypt_aes
ffffff8000681b30 T _esp_gcm_decrypt_finalize
ffffff8000681b80 T _esp_gcm_encrypt_aes
ffffff8000681ad0 T _esp_gcm_encrypt_finalize
ffffff80006819b0 T _esp_gcm_schedlen
ffffff80006819f0 T _esp_gcm_schedule
ffffff800067fd50 T _esp_hdrsiz
ffffff800067d060 T _esp_max_ivlen
ffffff800067d070 T _esp_schedule
ffffff8000aad45c S _esp_udp_encap_port
ffffff8000a9aba0 S _etext
ffffff800055bae0 T _ether_add_proto
ffffff800055c4d0 T _ether_attach_inet
ffffff800055d2b0 T _ether_attach_inet6
ffffff800055c480 T _ether_check_multi
ffffff800055ba00 T _ether_del_proto
ffffff800055bf80 T _ether_demux
ffffff800055d2a0 T _ether_detach_inet
ffffff800055d6f0 T _ether_detach_inet6
ffffff800055c2c0 T _ether_frameout
ffffff800055c2e0 T _ether_frameout_extended
ffffff800055c4c0 T _ether_ioctl
ffffff80002ad38c T _ev_try_lock
ffffff80002ad384 T _ev_unlock
ffffff80007c9d40 T _evpipefree
ffffff80007c9c50 T _evsofree
ffffff800032d3a0 T _exc_server
ffffff800032cf90 T _exc_server_routine
ffffff80002e48d0 T _exception_deliver
ffffff800032cab0 T _exception_raise
ffffff800032cb90 T _exception_raise_state
ffffff800032cd80 T _exception_raise_state_identity
ffffff80002e4d00 T _exception_triage
ffffff80005012e0 T _exchangedata
ffffff80007977e0 T _exec_spawnattr_getmacpolicyinfo
ffffff8000ab88a0 S _execargs_cache_lock
ffffff80007b0f00 T _execsigs
ffffff8000a6f020 D _execsw
ffffff800079a6d0 T _execve
ffffff800079ad60 T _exit
ffffff800079ad80 T _exit1
ffffff800079ada0 T _exit1_internal
ffffff800061e350 T _externalize_flow_id
ffffff80002e50b0 T _extmod_statistics_incr_task_for_pid
ffffff80002e5140 T _extmod_statistics_incr_thread_create
ffffff80002e50f0 T _extmod_statistics_incr_thread_set_state
ffffff80004fafc0 T _faccessat
ffffff8000788190 T _falloc
ffffff8000788510 T _falloc_locked
ffffff80007884a0 T _falloc_withalloc
ffffff8000324610 T _fastbacktrace
ffffff80004bfaf0 T _fasttrap_init
ffffff8000a9e150 S _fasttrap_lck_attr
ffffff8000a9e160 S _fasttrap_lck_grp
ffffff8000a9e158 S _fasttrap_lck_grp_attr
ffffff800082fe50 T _fasttrap_pid_getarg
ffffff800082da90 T _fasttrap_pid_probe
ffffff8000a9e130 S _fasttrap_probe_t_zones
ffffff800082fd60 T _fasttrap_return_probe
ffffff80004bd4d0 T _fasttrap_sigtrap
ffffff8000a9e168 S _fasttrap_tpoints
ffffff800082cf30 T _fasttrap_tracepoint_init
ffffff800082d9d0 T _fasttrap_tracepoint_install
ffffff800082da00 T _fasttrap_tracepoint_remove
ffffff8000a9e128 S _fasttrap_tracepoint_t_zone
ffffff800082ff70 T _fasttrap_usdt_getarg
ffffff8000a8f6cc S _fastwake_recording_in_progress
ffffff8000a8f6c8 S _fastwake_warmup
ffffff800080e810 T _fatfile_getarch_with_bits
ffffff800080e680 T _fatfile_getbestarch
ffffff800080e7f0 T _fatfile_getbestarch_for_cputype
ffffff800080e850 T _fatfile_validate_fatarches
ffffff80004baaa0 T _fbt_enable
ffffff8000a9e0e0 S _fbt_id
ffffff80004bacf0 T _fbt_init
ffffff80002abda0 T _fbt_invop
ffffff80002abe90 T _fbt_perfCallback
ffffff8000a9e0e8 S _fbt_probetab
ffffff8000a9e0f0 S _fbt_probetab_mask
ffffff80002abfd0 T _fbt_provide_module
ffffff80004f5c20 T _fchdir
ffffff80004fc410 T _fchflags
ffffff80004fcd60 T _fchmod
ffffff80004fcaa0 T _fchmod_extended
ffffff80004fca00 T _fchmodat
ffffff80004fd160 T _fchown
ffffff80004fd110 T _fchownat
ffffff8000782840 T _fcntl
ffffff8000782880 T _fcntl_nocancel
ffffff8000789d20 T _fd_guard_ast
ffffff800065b690 T _fd_pcb_tree_RB_FIND
ffffff800065a820 T _fd_pcb_tree_RB_GETCOLOR
ffffff800065a800 T _fd_pcb_tree_RB_GETPARENT
ffffff800065b5a0 T _fd_pcb_tree_RB_INSERT
ffffff800065a8a0 T _fd_pcb_tree_RB_INSERT_COLOR
ffffff800065b790 T _fd_pcb_tree_RB_MINMAX
ffffff800065b710 T _fd_pcb_tree_RB_NEXT
ffffff800065b3f0 T _fd_pcb_tree_RB_REMOVE
ffffff800065ace0 T _fd_pcb_tree_RB_REMOVE_COLOR
ffffff800065a830 T _fd_pcb_tree_RB_SETCOLOR
ffffff800065a860 T _fd_pcb_tree_RB_SETPARENT
ffffff8000780e70 T _fd_rdwr
ffffff8000aa2678 S _fd_vn_lck_attr
ffffff8000aa2670 S _fd_vn_lck_grp
ffffff8000aa2668 S _fd_vn_lck_grp_attr
ffffff8000781630 T _fdalloc
ffffff80004fe0b0 T _fdatasync
ffffff8000787470 T _fdavail
ffffff8000788740 T _fdcopy
ffffff8000526750 T _fdesc_allocvp
ffffff8000526490 T _fdesc_badop
ffffff8000525eb0 T _fdesc_getattr
ffffff8000526400 T _fdesc_inactive
ffffff80005263e0 T _fdesc_ioctl
ffffff8000aa3d68 S _fdesc_lckgrp
ffffff8000aa3d70 S _fdesc_mtx
ffffff8000525e50 T _fdesc_open
ffffff80005264a0 T _fdesc_pathconf
ffffff80005263c0 T _fdesc_read
ffffff8000526420 T _fdesc_reclaim
ffffff80005263f0 T _fdesc_select
ffffff8000526230 T _fdesc_setattr
ffffff8000aa3d80 S _fdesc_vnodeop_p
ffffff80005263d0 T _fdesc_write
ffffff8000788540 T _fdexec
ffffff8000ab87b8 S _fdexpand
ffffff8000788bc0 T _fdfree
ffffff8000787510 T _fdgetf_noref
ffffff8000aa3d58 S _fdhash
ffffff8000aa3d60 S _fdhashtbl
ffffff80007827b0 T _fdrelse
ffffff80003d1c10 T _ffs
ffffff80003d1bd0 T _ffsbit
ffffff8000504100 T _ffsctl
ffffff8000789490 T _fg_drop
ffffff8000782740 T _fg_free
ffffff8000789980 T _fg_insertuipc
ffffff80007898f0 T _fg_insertuipc_mark
ffffff8000788b90 T _fg_ref
ffffff8000789ab0 T _fg_removeuipc
ffffff8000789a20 T _fg_removeuipc_mark
ffffff80004f64e0 T _fg_vn_data_alloc
ffffff80004f6560 T _fg_vn_data_free
ffffff80004c5b50 T _fgetattrlist
ffffff80005046e0 T _fgetxattr
ffffff8000481620 T _fhopen
ffffff8000527410 T _fifo_advlock
ffffff80005275a0 T _fifo_charcount
ffffff8000527100 T _fifo_close
ffffff8000527420 T _fifo_close_internal
ffffff8000527120 T _fifo_ebadf
ffffff8000527550 T _fifo_freespace
ffffff80005273b0 T _fifo_inactive
ffffff8000527280 T _fifo_ioctl
ffffff8000526d50 T _fifo_lookup
ffffff8000a53680 D _fifo_nfsv2nodeop_opv_desc
ffffff8000a9df18 S _fifo_nfsv2nodeop_p
ffffff8000a53670 D _fifo_nfsv4nodeop_opv_desc
ffffff8000a9df10 S _fifo_nfsv4nodeop_p
ffffff8000526d70 T _fifo_open
ffffff80005273c0 T _fifo_pathconf
ffffff8000527530 T _fifo_printinfo
ffffff8000527130 T _fifo_read
ffffff8000527320 T _fifo_select
ffffff8000a5c1a0 D _fifo_vnodeop_entries
ffffff8000a5c3f0 D _fifo_vnodeop_opv_desc
ffffff8000aa3d88 S _fifo_vnodeop_p
ffffff8000527220 T _fifo_write
ffffff800073e9a0 T _file_attribute_exist
ffffff80007880d0 T _file_drop
ffffff8000788010 T _file_flags
ffffff8000789440 T _file_issendable
ffffff8000ab87a8 S _file_lck_attr
ffffff8000ab87a0 S _file_lck_grp
ffffff8000ab8798 S _file_lck_grp_attr
ffffff8000780b70 T _file_lock_init
ffffff8000787f20 T _file_socket
ffffff8000787d30 T _file_vnode
ffffff8000787e20 T _file_vnode_withvid
ffffff8000ab7e20 S _filedesc0
ffffff80002e9190 T _fileport_alloc
ffffff80002e9370 T _fileport_invoke
ffffff80007894e0 T _fileport_makefd
ffffff8000789170 T _fileport_makeport
ffffff80002e9290 T _fileport_notify
ffffff80002e9230 T _fileport_port_to_fileglob
ffffff80007894c0 T _fileport_releasefg
ffffff80002e9430 T _fileport_walk
ffffff8000786670 T _fileproc_alloc_init
ffffff8000782470 T _fileproc_drain
ffffff8000786940 T _fileproc_free
ffffff80003d2740 T _fillPage
ffffff800081c760 T _fill_fileinfo
ffffff800078ff40 T _fill_kqueueinfo
ffffff80007cd040 T _fill_pipeinfo
ffffff8000348660 T _fill_procregioninfo
ffffff8000348a70 T _fill_procregioninfo_onlymappedvnodes
ffffff8000819cd0 T _fill_procworkqueue
ffffff80008128e0 T _fill_pseminfo
ffffff8000814390 T _fill_pshminfo
ffffff8000820220 T _fill_socketinfo
ffffff800032be10 T _fill_task_billed_usage
ffffff800032be50 T _fill_task_io_rusage
ffffff800032bea0 T _fill_task_qos_rusage
ffffff800032bd00 T _fill_task_rusage
ffffff800032b860 T _fill_taskprocinfo
ffffff800032bb00 T _fill_taskthreadinfo
ffffff800032bc80 T _fill_taskthreadlist
ffffff800081c910 T _fill_vnodeinfo
ffffff800033a740 T _find_code_signature
ffffff80009114d0 T _find_entry
ffffff80003c86a0 T _find_kern_regs
ffffff80003c8680 T _find_user_regs
ffffff8000348d30 T _find_vnode_object
ffffff80003b4a50 T _fips_initialize
ffffff8000abdae8 S _firmware_ACPINVS_bytes
ffffff8000abdaf0 S _firmware_ACPIReclaim_bytes
ffffff8000abdb00 S _firmware_Conventional_bytes
ffffff8000a9ac30 S _firmware_MMIO_bytes
ffffff8000abdae0 S _firmware_PalCode_bytes
ffffff8000abdad8 S _firmware_Reserved_bytes
ffffff8000abdaf8 S _firmware_RuntimeServices_bytes
ffffff8000abdad0 S _firmware_Unusable_bytes
ffffff8000abdac8 S _firmware_other_bytes
ffffff8000a9aad8 S _first_avail
ffffff8000a8f6d8 S _first_c_segment_to_warm_generation_id
ffffff8000373750 T _first_free_is_valid_ll
ffffff8000a8d048 S _first_zone
ffffff80007d7f70 T _firstc
ffffff80008665c0 T _firstsect
ffffff8000866270 T _firstseg
ffffff80008662b0 T _firstsegfromheader
ffffff80003c8960 T _fix_desc
ffffff80003c89e0 T _fix_desc64
ffffff80007a7860 T _fixjob_callback
ffffff80007a7460 T _fixjobc
ffffff8000a9ae30 S _flex_ratio
ffffff8000a9ae38 S _flex_ratio_max
ffffff8000a9ae34 S _flex_ratio_min
ffffff8000505750 T _flistxattr
ffffff8000788f40 T _flock
ffffff800065c750 T _flow_divert_connect_out
ffffff800065b7c0 T _flow_divert_detach
ffffff800065c700 T _flow_divert_get_buffered_target_address
ffffff800065dc90 T _flow_divert_implicit_data_out
ffffff800065f990 T _flow_divert_init
ffffff800065dd70 T _flow_divert_pcb_init
ffffff800065f6c0 T _flow_divert_token_get
ffffff800065e910 T _flow_divert_token_set
ffffff80005e36a0 T _flowadv_add
ffffff80005e3630 T _flowadv_alloc_entry
ffffff80005e3680 T _flowadv_free_entry
ffffff80005e3330 T _flowadv_init
ffffff8000ab75f8 S _flush_cache_on_write
ffffff80003beb50 T _flush_dcache
ffffff80003d2990 T _flush_dcache64
ffffff800061e380 T _flush_pipe_ptrs
ffffff8000ab87c8 S _fmsg_ithead
ffffff8000ab87c0 S _fmsghead
ffffff8000788e10 T _fo_close
ffffff80007866b0 T _fo_ioctl
ffffff8000789b60 T _fo_kqfilter
ffffff80007813a0 T _fo_read
ffffff8000789b40 T _fo_select
ffffff8000781380 T _fo_write
ffffff8000aad448 S _force_64bit_dsn
ffffff8000a9b39c S _force_immediate_debugger_NMI
ffffff80007a1490 T _fork
ffffff80007a0050 T _fork1
ffffff80007a0fb0 T _fork_create_child
ffffff80007a0580 T _forkproc
ffffff80007a10e0 T _forkproc_free
ffffff80003cfe10 T _fpSSEexterrflt
ffffff80007811f0 T _fp_drop
ffffff8000787c60 T _fp_drop_event
ffffff8000781120 T _fp_drop_written
ffffff8000788e20 T _fp_free
ffffff80007877a0 T _fp_getfkq
ffffff80007879b0 T _fp_getfpipe
ffffff8000787900 T _fp_getfpsem
ffffff8000787850 T _fp_getfpshm
ffffff80007876e0 T _fp_getfsock
ffffff8000787550 T _fp_getfvp
ffffff8000787610 T _fp_getfvpandvid
ffffff8000789c40 T _fp_guard_exception
ffffff8000789be0 T _fp_isguarded
ffffff8000a9a724 S _fp_kind
ffffff80003cfb20 T _fp_load
ffffff80007812e0 T _fp_lookup
ffffff80003cf720 T _fp_save
ffffff80003cff50 T _fp_setvalid
ffffff8000787a60 T _fp_tryswap
ffffff80007872a0 T _fpathconf
ffffff80003cfcd0 T _fpexterrflt
ffffff80003cfba0 T _fpextovrflt
ffffff80003cf040 T _fpinit
ffffff80003cf910 T _fpnoextflt
ffffff80003cf780 T _fpu_dup_fxstate
ffffff80003cf2a0 T _fpu_free
ffffff80003cf550 T _fpu_get_fxstate
ffffff80003cf090 T _fpu_module_init
ffffff80003cf210 T _fpu_save_context
ffffff80003cf2c0 T _fpu_set_fxstate
ffffff800068b740 T _frag6_drain
ffffff800068a000 T _frag6_init
ffffff800068a1f0 T _frag6_input
ffffff80004cc720 T _free_io_buf
ffffff8000a6bdc0 D _freebitcount
ffffff8000501940 T _freespace_mb
ffffff8000aa2840 S _freevnodes
ffffff8000a73808 D _freeze_threshold_percentage
ffffff80005052e0 T _fremovexattr
ffffff8000a5a4f0 D _fs_filtops
ffffff8000aa2808 S _fs_klist_lck_grp
ffffff8000aa2810 S _fs_klist_lock
ffffff8000aa2690 S _fsconf_lck_attr
ffffff8000aa2688 S _fsconf_lck_grp
ffffff8000aa2680 S _fsconf_lck_grp_attr
ffffff8000502830 T _fsctl
ffffff80004ca840 T _fsetattrlist
ffffff8000504d20 T _fsetxattr
ffffff8000a5bc28 D _fsevent_filtops
ffffff8000525710 T _fsevent_unmount
ffffff8000525720 T _fsevents_init
ffffff80004dc8d0 T _fslog_extmod_msgtracer
ffffff8000787240 T _fstat
ffffff8000787280 T _fstat64
ffffff8000787260 T _fstat64_extended
ffffff80007869a0 T _fstat_extended
ffffff80004fbb90 T _fstatat
ffffff80004fbbe0 T _fstatat64
ffffff80004f4d50 T _fstatfs
ffffff80004f5480 T _fstatfs64
ffffff80004fde90 T _fsync
ffffff80004fe0a0 T _fsync_nocancel
ffffff80004fdc50 T _ftruncate
ffffff80008224a0 T _fubyte
ffffff80008224e0 T _fuibyte
ffffff80008225e0 T _fuiword
ffffff8000822690 T _fulong
ffffff80004fd8f0 T _futimes
ffffff8000822780 T _fuulong
ffffff8000822560 T _fuword
ffffff80004b9850 T _fuword16
ffffff80004b9920 T _fuword16_noerr
ffffff80004b9880 T _fuword32
ffffff80004b9960 T _fuword32_noerr
ffffff80004b98b0 T _fuword64
ffffff80004b99a0 T _fuword64_noerr
ffffff80004b9820 T _fuword8
ffffff80004b98e0 T _fuword8_noerr
ffffff8000a63188 D _fw_bypass
ffffff8000a6318c D _fw_enable
ffffff8000aac418 S _fw_one_pass
ffffff8000aab970 S _fw_verbose
ffffff8000abe0c0 S _gAKSGetKey
ffffff8000abe358 S _gCanSleepTimeout
ffffff8000a6d3e0 D _gCompareTable
ffffff80009560f0 S _gGearPict
ffffff80009500f0 S _gGearPict2x
ffffff8000abe0d8 S _gIOAppPowerStateInterest
ffffff8000abdeb8 S _gIOBMDPageAllocator
ffffff8000abe0e0 S _gIOBusyInterest
ffffff8000abe4c0 S _gIOCatalogLock
ffffff8000abe4a0 S _gIOCatalogue
ffffff8000abe4a8 S _gIOClassKey
ffffff8000abe170 S _gIOCommandPoolSizeKey
ffffff8000abe120 S _gIOConsoleLockTime
ffffff8000abe168 S _gIOConsoleLockedKey
ffffff8000abe0c8 S _gIOConsoleSecurityInterest
ffffff8000abe150 S _gIOConsoleSessionAuditIDKey
ffffff8000abe138 S _gIOConsoleSessionLoginDoneKey
ffffff8000abe140 S _gIOConsoleSessionOnConsoleKey
ffffff8000abe128 S _gIOConsoleSessionScreenLockedTimeKey
ffffff8000abe130 S _gIOConsoleSessionSecureInputPIDKey
ffffff8000abe158 S _gIOConsoleSessionUIDKey
ffffff8000abe160 S _gIOConsoleUsersKey
ffffff8000abe148 S _gIOConsoleUsersSeedKey
ffffff8000abe0b8 S _gIOCreateEFIDevicePathSymbol
ffffff8000abdf88 S _gIODTAAPLInterruptsKey
ffffff8000abdf68 S _gIODTAddressCellKey
ffffff8000abdf40 S _gIODTCompatibleKey
ffffff8000abdf80 S _gIODTDefaultInterruptController
ffffff8000abdf98 S _gIODTInterruptCellKey
ffffff8000abdfa0 S _gIODTInterruptParentKey
ffffff8000abdf50 S _gIODTModelKey
ffffff8000abdfa8 S _gIODTNWInterruptMappingKey
ffffff8000abdf30 S _gIODTNameKey
ffffff8000abdf90 S _gIODTPHandleKey
ffffff8000abdf78 S _gIODTPersistKey
ffffff8000abdf28 S _gIODTPlane
ffffff8000abdf70 S _gIODTRangeKey
ffffff8000abdfb0 S _gIODTSharedInterrupts
ffffff8000abdf60 S _gIODTSizeCellKey
ffffff8000abdf58 S _gIODTTargetTypeKey
ffffff8000abdf48 S _gIODTTypeKey
ffffff8000abdf38 S _gIODTUnitKey
ffffff8000abe198 S _gIODefaultMatchCategoryKey
ffffff8000abe200 S _gIODeviceMemoryKey
ffffff8000abe0f8 S _gIOFirstMatchNotification
ffffff8000abe108 S _gIOFirstPublishNotification
ffffff8000abe0e8 S _gIOGeneralInterest
ffffff800010c068 S _gIOHibernateCurrentHeader
ffffff8000112000 S _gIOHibernateDebugFlags
ffffff8000abde84 S _gIOHibernateFreeTime
ffffff800010c070 S _gIOHibernateHandoffPageCount
ffffff8000112010 S _gIOHibernateHandoffPages
ffffff8000abde80 S _gIOHibernateMode
ffffff8000108000 S _gIOHibernateRestoreStack
ffffff800010c000 S _gIOHibernateRestoreStackEnd
ffffff8000112110 S _gIOHibernateState
ffffff8000abe1f8 S _gIOInterruptControllersKey
ffffff8000abe1f0 S _gIOInterruptSpecifiersKey
ffffff8000a80730 D _gIOKernelConfigTables
ffffff8000abec30 S _gIOKitDebug
ffffff8000abe178 S _gIOKitDebugKey
ffffff8000a97ddc S _gIOKitPortCount
ffffff8000abec38 S _gIOKitTrace
ffffff8000abe838 S _gIOLastPage
ffffff8000abef18 S _gIOLastSleepTime
ffffff8000abef28 S _gIOLastWakeTime
ffffff8000abe060 S _gIOLocationKey
ffffff8000abe1b8 S _gIOLocationMatchKey
ffffff8000abe188 S _gIOMapperIDKey
ffffff8000abe1a0 S _gIOMatchCategoryKey
ffffff8000abe100 S _gIOMatchedNotification
ffffff8000abe190 S _gIOMatchedServiceCountKey
ffffff8000abe890 S _gIOMemoryReferenceCount
ffffff8000abe4b8 S _gIOModuleIdentifierKey
ffffff8000abe068 S _gIONameKey
ffffff8000abe1d0 S _gIONameMatchKey
ffffff8000abe1c8 S _gIONameMatchedKey
ffffff8000abe340 S _gIOPMPowerClientChildProxy
ffffff8000abe348 S _gIOPMPowerClientChildren
ffffff8000abe330 S _gIOPMPowerClientDevice
ffffff8000abe338 S _gIOPMPowerClientDriver
ffffff8000abe350 S _gIOPMPowerClientRootDomain
ffffff8000abef40 S _gIOPMStatsApplicationResponseCancel
ffffff8000abef50 S _gIOPMStatsApplicationResponsePrompt
ffffff8000abef48 S _gIOPMStatsApplicationResponseSlow
ffffff8000abef38 S _gIOPMStatsApplicationResponseTimedOut
ffffff8000abef58 S _gIOPMStatsDriverPSChangeSlow
ffffff8000abdee0 S _gIOPageAllocChunkBytes
ffffff8000abe1b0 S _gIOParentMatchKey
ffffff8000abe1a8 S _gIOPathMatchKey
ffffff8000abea30 S _gIOPlatformActiveActionKey
ffffff8000abe0b0 S _gIOPlatformFunctionHandlerSet
ffffff8000abea38 S _gIOPlatformHaltRestartActionKey
ffffff8000abea40 S _gIOPlatformPanicActionKey
ffffff8000abea28 S _gIOPlatformQuiesceActionKey
ffffff8000abea18 S _gIOPlatformSleepActionKey
ffffff8000abea20 S _gIOPlatformWakeActionKey
ffffff8000abee40 S _gIOPolledCoreFileVars
ffffff8000abe208 S _gIOPowerPlane
ffffff8000abe0d0 S _gIOPriorityPowerStateInterest
ffffff8000abe4b0 S _gIOProbeScoreKey
ffffff8000abdf10 S _gIOProgressBackbufferKey
ffffff8000abe1c0 S _gIOPropertyMatchKey
ffffff8000abe1d8 S _gIOProviderClassKey
ffffff8000abe110 S _gIOPublishNotification
ffffff8000abe910 S _gIORangeAllocatorLock
ffffff8000abe058 S _gIORegistryEntryIDKey
ffffff8000abe020 S _gIORegistryLock
ffffff8000abe008 S _gIORegistryLockAttr
ffffff8000abe018 S _gIORegistryLockGrp
ffffff8000abe010 S _gIORegistryLockGrpAttr
ffffff8000abdf18 S _gIORemoveOnReadProperties
ffffff8000abe1e0 S _gIOResourceMatchKey
ffffff8000abe1e8 S _gIOResourcesKey
ffffff8000abe118 S _gIOServiceKey
ffffff8000abe210 S _gIOServicePlane
ffffff8000abe0f0 S _gIOTerminatedNotification
ffffff8000abe180 S _gIOUserClientClassKey
ffffff8000abeb60 S _gIOUserClientOwnersLock
ffffff8000a9e0dc S _gIgnoreFBTBlacklist
ffffff8000abed60 S _gInterruptAccountingDataList
ffffff8000abed58 S _gInterruptAccountingDataListLock
ffffff8000a80728 D _gInterruptAccountingStatisticBitmask
ffffff8000a6bde0 D _gLatinCaseFold
ffffff8000abdcc8 S _gLoadedKextSummaries
ffffff8000a6bfe0 D _gLowerCaseTable
ffffff8000a80070 D _gOFVariables
ffffff8000a7fc10 D _gOSKextUnresolved
ffffff8000abf158 S _gPEClockFrequencyInfo
ffffff8000abf150 S _gPEEFIRuntimeServices
ffffff8000abf220 S _gPEEFISystemTable
ffffff8000a80d00 D _gPESerialBaud
ffffff8000abea10 S _gPlatformInterruptControllerName
ffffff8000a6bcb8 D _gTimeZone
ffffff8000abde78 S _g_crypto_funcs
ffffff8000a7fb00 D _g_kernel_kmod_info
ffffff8000a97e18 S _g_kext_map
ffffff8000a316f0 D _g_wqt_idx_max
ffffff80007aea20 T _gather_rusage_info
ffffff8000a9d7a0 S _gc_vt100state
ffffff800089be80 T _getCpuDelayBusStallHolderName
ffffff8000772810 T _getProcName
ffffff8000776470 T _get_aiotask
ffffff80007abf40 T _get_audit_token_pid
ffffff80006403c0 T _get_base_rtt
ffffff800032aef0 T _get_bsdtask_info
ffffff800032af60 T _get_bsdthread_info
ffffff800032af30 T _get_bsdthreadtask_info
ffffff80006f1170 T _get_btree_nodesize
ffffff8000866c80 T _get_crc_table
ffffff800081a2a0 T _get_dispatchqueue_offset_from_proc
ffffff800081a2c0 T _get_dispatchqueue_serialno_offset_from_proc
ffffff800039ede0 T _get_dp_control_port
ffffff80003d77c0 T _get_eflags_exportmask
ffffff800032af80 T _get_firstthread
ffffff80005259e0 T _get_fse_info
ffffff8000646fe0 T _get_inpcb_str_size
ffffff800077f7f0 T _get_kernel_symfile
ffffff800032b550 T _get_map_max
ffffff800032b540 T _get_map_min
ffffff8000347970 T _get_map_nentries
ffffff8000502780 T _get_nspace_item_status
ffffff800032bcf0 T _get_numthreads
ffffff80005256f0 T _get_pathbuff
ffffff800056d2b0 T _get_primary_ifscope
ffffff80007782b0 T _get_procrustime
ffffff80009125a0 T _get_range_bounds
ffffff80002b0ab0 T _get_read_buffer
ffffff80002e5e10 T _get_sched_statistics
ffffff800032afa0 T _get_signalact
ffffff80007f87c0 T _get_sockev_state
ffffff80002bce70 T _get_stackshot_estsize
ffffff800032b380 T _get_task_compressed
ffffff800032b4e0 T _get_task_cpu_time
ffffff8000309d30 T _get_task_dispatchqueue_offset
ffffff800032b720 T _get_task_frozen
ffffff800032b200 T _get_task_ipcspace
ffffff800032b170 T _get_task_ledger
ffffff800032b180 T _get_task_map
ffffff800032b190 T _get_task_map_reference
ffffff800032b210 T _get_task_numactivethreads
ffffff800032b260 T _get_task_numacts
ffffff800032b460 T _get_task_phys_footprint
ffffff800032b4b0 T _get_task_phys_footprint_max
ffffff800032b710 T _get_task_pidsuspended
ffffff800032b340 T _get_task_pmap
ffffff800032b3e0 T _get_task_purgeable_size
ffffff800032b3b0 T _get_task_resident_max
ffffff800032b350 T _get_task_resident_size
ffffff800032b6f0 T _get_task_userstop
ffffff8000646ff0 T _get_tcp_str_size
ffffff800032af70 T _get_thread_lock_count
ffffff800032b700 T _get_thread_userstop
ffffff800032b530 T _get_threadtask
ffffff80003c8690 T _get_user_regs
ffffff80003d92a0 T _get_useraddr
ffffff800032b650 T _get_vmmap_entries
ffffff800032b560 T _get_vmmap_size
ffffff800032b570 T _get_vmsubmap_entries
ffffff8000324440 T _get_zleak_state
ffffff80004c8600 T _getattrlist
ffffff80004c8810 T _getattrlistat
ffffff80004c8890 T _getattrlistbulk
ffffff8000767de0 T _getaudit_addr
ffffff8000767c50 T _getauid
ffffff80007d78f0 T _getc
ffffff80008658e0 T _getcommandfromheader
ffffff80005001a0 T _getdirentries
ffffff80005007f0 T _getdirentries64
